(lp0
ccopy_reg
_reconstructor
p1
(cgraspit_interface.msg._Grasp
Grasp
p2
c__builtin__
object
p3
Ntp4
Rp5
(lp6
I0
ag1
(cgeometry_msgs.msg._Pose
Pose
p7
g3
Ntp8
Rp9
(lp10
g1
(cgeometry_msgs.msg._Point
Point
p11
g3
Ntp12
Rp13
(lp14
F0.10983647972881781
aF0.09012763095133869
aF0.05864927587925636
abag1
(cgeometry_msgs.msg._Quaternion
Quaternion
p15
g3
Ntp16
Rp17
(lp18
F-0.11126676841176698
aF0.49528186343895486
aF0.8591866007741918
aF0.0641402139513742
ababa(F-0.3490658503988659
F1.5425000000000013
F0.4982500000000004
F1.5707963267948966
F-0.3490658503988659
F1.3925000000000012
F1.5707963267948966
F1.5707963267948966
F-0.3490658503988659
F1.5707963267948966
F1.5707963267948966
F0.1796355461956296
F0.09302418841898602
F1.2217304763960306
F0.0
F0.5235987755982988
F1.5707963267948966
tp19
aF-1.0
aF0.0
ag1
(cgeometry_msgs.msg._Vector3Stamped
Vector3Stamped
p20
g3
Ntp21
Rp22
(lp23
g1
(cstd_msgs.msg._Header
Header
p24
g3
Ntp25
Rp26
(lp27
I0
ag1
(cgenpy.rostime
Time
p28
g3
Ntp29
Rp30
(lp31
I0
aI0
abaS'shadowhandnew'
p32
abag1
(cgeometry_msgs.msg._Vector3
Vector3
p33
g3
Ntp34
Rp35
(lp36
F0.960429138778732
aF-0.1920858277557464
aF0.2016901191435337
abababag1
(g2
g3
Ntp37
Rp38
(lp39
I0
ag1
(g7
g3
Ntp40
Rp41
(lp42
g1
(g11
g3
Ntp43
Rp44
(lp45
F0.07398695175930532
aF0.012929675535246812
aF-0.09947593971722372
abag1
(g15
g3
Ntp46
Rp47
(lp48
F0.4368301934854948
aF0.3478115497480494
aF0.807989710696624
aF-0.1880402492278483
ababa(F-0.17649905213095485
F0.12499999999999997
F0.012500000000000004
F1.5707963267948966
F-0.3490658503988659
F0.44375000000000026
F0.3950000000000003
F1.5707963267948966
F-0.3490658503988659
F1.0700000000000007
F0.6396855869483926
F0.10700000000000008
F0.7984472475817168
F1.2217304763960306
F0.0
F-0.35984877559829864
F0.16375
tp49
aF-1.0
aF0.13012836713981835
ag1
(g20
g3
Ntp50
Rp51
(lp52
g1
(g24
g3
Ntp53
Rp54
(lp55
I0
ag1
(g28
g3
Ntp56
Rp57
(lp58
I0
aI0
abaS'shadowhandnew'
p59
abag1
(g33
g3
Ntp60
Rp61
(lp62
F0.960429138778732
aF-0.1920858277557464
aF0.2016901191435337
abababag1
(g2
g3
Ntp63
Rp64
(lp65
I0
ag1
(g7
g3
Ntp66
Rp67
(lp68
g1
(g11
g3
Ntp69
Rp70
(lp71
F0.04586215535622874
aF0.025884084408999572
aF0.092576727711839
abag1
(g15
g3
Ntp72
Rp73
(lp74
F-0.48754121305352394
aF-0.03996836965388757
aF0.8718982786667904
aF-0.022349198182412027
ababa(F-0.3490658503988659
F1.545106262733731
F1.5707963267948966
F0.4992500000000004
F-0.3490658503988659
F1.2325000000000008
F1.5707963267948966
F1.5707963267948966
F-0.3490658503988659
F1.5707963267948966
F1.5707963267948966
F0.9338066661179779
F0.18530244880340319
F1.2217304763960306
F0.0
F0.5235987755982988
F1.2325000000000008
tp75
aF-1.0
aF0.0
ag1
(g20
g3
Ntp76
Rp77
(lp78
g1
(g24
g3
Ntp79
Rp80
(lp81
I0
ag1
(g28
g3
Ntp82
Rp83
(lp84
I0
aI0
abaS'shadowhandnew'
p85
abag1
(g33
g3
Ntp86
Rp87
(lp88
F0.960429138778732
aF-0.1920858277557464
aF0.2016901191435337
abababag1
(g2
g3
Ntp89
Rp90
(lp91
I0
ag1
(g7
g3
Ntp92
Rp93
(lp94
g1
(g11
g3
Ntp95
Rp96
(lp97
F0.13888761972706246
aF0.09057077441830874
aF0.05893922985161875
abag1
(g15
g3
Ntp98
Rp99
(lp100
F0.08174377632352536
aF0.3116860542480408
aF0.9462794582990827
aF-0.026924810507258517
ababa(F-0.3490658503988659
F1.545000000000001
F0.4985000000000004
F0.4985000000000004
F-0.3490658503988659
F1.495000000000001
F1.166671878474654
F1.5707963267948966
F-0.3490658503988659
F1.5707963267948966
F1.5707963267948966
F1.3655647286926966
F1.0471975511965976
F0.19500000000000003
F0.0
F0.5235987755982988
F1.5707963267948966
tp101
aF-1.0
aF0.0
ag1
(g20
g3
Ntp102
Rp103
(lp104
g1
(g24
g3
Ntp105
Rp106
(lp107
I0
ag1
(g28
g3
Ntp108
Rp109
(lp110
I0
aI0
abaS'shadowhandnew'
p111
abag1
(g33
g3
Ntp112
Rp113
(lp114
F0.960429138778732
aF-0.1920858277557464
aF0.2016901191435337
abababag1
(g2
g3
Ntp115
Rp116
(lp117
I0
ag1
(g7
g3
Ntp118
Rp119
(lp120
g1
(g11
g3
Ntp121
Rp122
(lp123
F0.08623294027150849
aF0.0026534113019794033
aF0.06910631356142835
abag1
(g15
g3
Ntp124
Rp125
(lp126
F-0.3363952434163622
aF-0.3593189432545564
aF0.8590279641952212
aF-0.14070925327031275
ababa(F-0.04595338301125344
F1.380000000000001
F1.5707963267948966
F0.4990000000000004
F-0.3490658503988659
F1.380000000000001
F1.5707963267948966
F1.5707963267948966
F-0.3490658503988659
F1.5707963267948966
F1.5707963267948966
F0.4990000000000004
F-0.09719755119659683
F0.9500000000000006
F0.0
F0.42640122440170175
F1.5707963267948966
tp127
aF-1.0
aF0.0
ag1
(g20
g3
Ntp128
Rp129
(lp130
g1
(g24
g3
Ntp131
Rp132
(lp133
I0
ag1
(g28
g3
Ntp134
Rp135
(lp136
I0
aI0
abaS'shadowhandnew'
p137
abag1
(g33
g3
Ntp138
Rp139
(lp140
F0.960429138778732
aF-0.1920858277557464
aF0.2016901191435337
abababag1
(g2
g3
Ntp141
Rp142
(lp143
I0
ag1
(g7
g3
Ntp144
Rp145
(lp146
g1
(g11
g3
Ntp147
Rp148
(lp149
F0.15955871945338226
aF0.03033154422187666
aF0.007390200730774097
abag1
(g15
g3
Ntp150
Rp151
(lp152
F0.2959215835819477
aF0.005000186891239227
aF0.9551978930568953
aF-0.0015490645800378387
ababa(F-0.3490658503988659
F1.5475000000000012
F0.4977500000000004
F0.4977500000000004
F-0.3490658503988659
F1.4928623401800447
F0.41975000000000035
F1.2690370417855006
F-0.3490658503988659
F1.5707963267948966
F1.5707963267948966
F0.09475000000000007
F0.0831386297265177
F1.2217304763960306
F0.0
F0.5235987755982988
F1.5707963267948966
tp153
aF-1.0
aF0.0
ag1
(g20
g3
Ntp154
Rp155
(lp156
g1
(g24
g3
Ntp157
Rp158
(lp159
I0
ag1
(g28
g3
Ntp160
Rp161
(lp162
I0
aI0
abaS'shadowhandnew'
p163
abag1
(g33
g3
Ntp164
Rp165
(lp166
F0.960429138778732
aF-0.1920858277557464
aF0.2016901191435337
abababag1
(g2
g3
Ntp167
Rp168
(lp169
I0
ag1
(g7
g3
Ntp170
Rp171
(lp172
g1
(g11
g3
Ntp173
Rp174
(lp175
F0.1130103187870846
aF0.07022741523626924
aF0.08568044735518227
abag1
(g15
g3
Ntp176
Rp177
(lp178
F-0.0637699014013885
aF0.23207253414303736
aF0.9704860623019379
aF0.015249309799636786
ababa(F-0.3490658503988659
F1.545000000000001
F0.6391075516638964
F1.5707963267948966
F-0.3490658503988659
F1.495000000000001
F0.4985000000000004
F0.4985000000000004
F-0.3490658503988659
F1.5707963267948966
F1.5707963267948966
F1.5707963267948966
F1.0471975511965976
F0.19500000000000003
F0.0
F0.5235987755982988
F1.5707963267948966
tp179
aF-1.0
aF0.0
ag1
(g20
g3
Ntp180
Rp181
(lp182
g1
(g24
g3
Ntp183
Rp184
(lp185
I0
ag1
(g28
g3
Ntp186
Rp187
(lp188
I0
aI0
abaS'shadowhandnew'
p189
abag1
(g33
g3
Ntp190
Rp191
(lp192
F0.960429138778732
aF-0.1920858277557464
aF0.2016901191435337
abababag1
(g2
g3
Ntp193
Rp194
(lp195
I0
ag1
(g7
g3
Ntp196
Rp197
(lp198
g1
(g11
g3
Ntp199
Rp200
(lp201
F0.1249757470388565
aF0.02984277396436786
aF-0.01756196695211297
abag1
(g15
g3
Ntp202
Rp203
(lp204
F0.04916302654839323
aF0.12085462673359278
aF0.9914339317313053
aF-0.005992914941113838
ababa(F0.0826671656869152
F0.6727110915973358
F0.0032500000000000003
F1.5707963267948966
F-0.3490658503988659
F0.15
F0.4980000000000004
F1.5707963267948966
F-0.3490658503988659
F0.5600000000000003
F0.4980000000000004
F0.4980000000000004
F-1.0371975511965976
F1.2217304763960306
F0.0
F0.5235987755982988
F1.5707963267948966
tp205
aF-1.0
aF0.0026717246720523737
ag1
(g20
g3
Ntp206
Rp207
(lp208
g1
(g24
g3
Ntp209
Rp210
(lp211
I0
ag1
(g28
g3
Ntp212
Rp213
(lp214
I0
aI0
abaS'shadowhandnew'
p215
abag1
(g33
g3
Ntp216
Rp217
(lp218
F0.960429138778732
aF-0.1920858277557464
aF0.2016901191435337
abababag1
(g2
g3
Ntp219
Rp220
(lp221
I0
ag1
(g7
g3
Ntp222
Rp223
(lp224
g1
(g11
g3
Ntp225
Rp226
(lp227
F0.06830679119120762
aF0.031152534237715745
aF0.09590592337862659
abag1
(g15
g3
Ntp228
Rp229
(lp230
F-0.3212572860318449
aF0.014310222534801926
aF0.9468713748965393
aF0.00485521410396902
ababa(F-0.3490658503988659
F1.545000000000001
F1.5707963267948966
F0.4985000000000004
F-0.3490658503988659
F1.495000000000001
F0.4985000000000004
F1.5707963267948966
F-0.3490658503988659
F1.5707963267948966
F1.5707963267948966
F1.5707963267948966
F1.0471975511965976
F0.19500000000000003
F0.0
F0.5235987755982988
F1.5707963267948966
tp231
aF-1.0
aF0.0
ag1
(g20
g3
Ntp232
Rp233
(lp234
g1
(g24
g3
Ntp235
Rp236
(lp237
I0
ag1
(g28
g3
Ntp238
Rp239
(lp240
I0
aI0
abaS'shadowhandnew'
p241
abag1
(g33
g3
Ntp242
Rp243
(lp244
F0.960429138778732
aF-0.1920858277557464
aF0.2016901191435337
abababag1
(g2
g3
Ntp245
Rp246
(lp247
I0
ag1
(g7
g3
Ntp248
Rp249
(lp250
g1
(g11
g3
Ntp251
Rp252
(lp253
F0.145393397219409
aF0.11670304509787885
aF0.006480569365527565
abag1
(g15
g3
Ntp254
Rp255
(lp256
F0.19905871983090578
aF0.4576134074812042
aF0.8600864031742861
aF-0.1059102187111409
ababa(F0.3490658503988659
F1.5482031600329096
F1.5707963267948966
F1.5707963267948966
F-0.3490658503988659
F1.1000000000000008
F1.5707963267948966
F0.11000000000000008
F-0.3490658503988659
F1.5707963267948966
F1.5707963267948966
F0.4980000000000004
F0.8307520760391098
F0.07
F0.0
F0.5235987755982988
F1.5707963267948966
tp257
aF-1.0
aF0.0
ag1
(g20
g3
Ntp258
Rp259
(lp260
g1
(g24
g3
Ntp261
Rp262
(lp263
I0
ag1
(g28
g3
Ntp264
Rp265
(lp266
I0
aI0
abaS'shadowhandnew'
p267
abag1
(g33
g3
Ntp268
Rp269
(lp270
F0.960429138778732
aF-0.1920858277557464
aF0.2016901191435337
abababag1
(g2
g3
Ntp271
Rp272
(lp273
I0
ag1
(g7
g3
Ntp274
Rp275
(lp276
g1
(g11
g3
Ntp277
Rp278
(lp279
F0.1224184966280506
aF0.032746878247324473
aF-0.04392681724098811
abag1
(g15
g3
Ntp280
Rp281
(lp282
F0.047944952281423654
aF-0.08028408175125734
aF0.9956107675057831
aF0.003866186057996395
ababa(F-0.3490658503988659
F0.6112500000000003
F0.22615257559395424
F1.5707963267948966
F-0.3490658503988659
F0.6812500000000004
F0.4961250000000004
F0.4961250000000004
F-0.3490658503988659
F0.7178035419776998
F0.29412500000000025
F1.5707963267948966
F-0.8284475511965974
F0.21875000000000006
F0.0
F-0.30484877559829865
F1.311250000000001
tp283
aF-1.0
aF0.17309258961696097
ag1
(g20
g3
Ntp284
Rp285
(lp286
g1
(g24
g3
Ntp287
Rp288
(lp289
I0
ag1
(g28
g3
Ntp290
Rp291
(lp292
I0
aI0
abaS'shadowhandnew'
p293
abag1
(g33
g3
Ntp294
Rp295
(lp296
F0.960429138778732
aF-0.1920858277557464
aF0.2016901191435337
abababag1
(g2
g3
Ntp297
Rp298
(lp299
I0
ag1
(g7
g3
Ntp300
Rp301
(lp302
g1
(g11
g3
Ntp303
Rp304
(lp305
F0.08337939872651412
aF0.047664863200735055
aF0.10248115789461587
abag1
(g15
g3
Ntp306
Rp307
(lp308
F-0.20736883305337286
aF0.11188736687973344
aF0.9715498256885895
aF0.023881382189349327
ababa(F-0.3490658503988659
F1.545000000000001
F0.4985000000000004
F1.5707963267948966
F-0.3490658503988659
F1.495000000000001
F0.7586029211549521
F1.1693334448143133
F-0.3490658503988659
F1.5707963267948966
F1.5707963267948966
F1.5707963267948966
F1.0471975511965976
F0.19500000000000003
F0.0
F0.5235987755982988
F1.5707963267948966
tp309
aF-1.0
aF0.0
ag1
(g20
g3
Ntp310
Rp311
(lp312
g1
(g24
g3
Ntp313
Rp314
(lp315
I0
ag1
(g28
g3
Ntp316
Rp317
(lp318
I0
aI0
abaS'shadowhandnew'
p319
abag1
(g33
g3
Ntp320
Rp321
(lp322
F0.960429138778732
aF-0.1920858277557464
aF0.2016901191435337
abababag1
(g2
g3
Ntp323
Rp324
(lp325
I0
ag1
(g7
g3
Ntp326
Rp327
(lp328
g1
(g11
g3
Ntp329
Rp330
(lp331
F0.04891912601891741
aF0.03751647232142099
aF-0.11916004752539448
abag1
(g15
g3
Ntp332
Rp333
(lp334
F0.4447233788093987
aF-0.08278755805968065
aF0.8908756274519476
aF0.0413273878071901
ababa(F-0.3490658503988659
F0.3275000000000001
F0.03275000000000002
F1.5707963267948966
F-0.3490658503988659
F0.045
F1.5707963267948966
F1.5707963267948966
F-0.3490658503988659
F1.5707963267948966
F1.5707963267948966
F1.5707963267948966
F-0.7196975511965973
F0.3275000000000001
F0.0
F0.5235987755982988
F0.3275000000000001
tp335
aF-1.0
aF0.06260509442099925
ag1
(g20
g3
Ntp336
Rp337
(lp338
g1
(g24
g3
Ntp339
Rp340
(lp341
I0
ag1
(g28
g3
Ntp342
Rp343
(lp344
I0
aI0
abaS'shadowhandnew'
p345
abag1
(g33
g3
Ntp346
Rp347
(lp348
F0.960429138778732
aF-0.1920858277557464
aF0.2016901191435337
abababag1
(g2
g3
Ntp349
Rp350
(lp351
I0
ag1
(g7
g3
Ntp352
Rp353
(lp354
g1
(g11
g3
Ntp355
Rp356
(lp357
F0.09321872398508703
aF0.05547752478140119
aF0.09229081063981467
abag1
(g15
g3
Ntp358
Rp359
(lp360
F-0.17263044561958932
aF0.17309143045027048
aF0.969168462549311
aF0.030831431197176427
ababa(F0.20062570784113049
F1.54933963412844
F1.5707963267948966
F1.5707963267948966
F-0.3490658503988659
F1.1425000000000007
F1.5707963267948966
F0.11425000000000009
F-0.3490658503988659
F1.5707963267948966
F0.4992500000000004
F1.5707963267948966
F1.0471975511965976
F0.19500000000000003
F0.0
F0.5235987755982988
F1.5707963267948966
tp361
aF-1.0
aF0.0
ag1
(g20
g3
Ntp362
Rp363
(lp364
g1
(g24
g3
Ntp365
Rp366
(lp367
I0
ag1
(g28
g3
Ntp368
Rp369
(lp370
I0
aI0
abaS'shadowhandnew'
p371
abag1
(g33
g3
Ntp372
Rp373
(lp374
F0.960429138778732
aF-0.1920858277557464
aF0.2016901191435337
abababag1
(g2
g3
Ntp375
Rp376
(lp377
I0
ag1
(g7
g3
Ntp378
Rp379
(lp380
g1
(g11
g3
Ntp381
Rp382
(lp383
F0.06375576815850711
aF0.03737684120226222
aF0.10687566327776991
abag1
(g15
g3
Ntp384
Rp385
(lp386
F-0.3008906198099696
aF0.051396437822255524
aF0.9521341468718202
aF0.01624215041879487
ababa(F-0.3490658503988659
F1.542500000000001
F0.4982500000000004
F1.1245246929107986
F-0.3490658503988659
F1.502500000000001
F0.4982500000000004
F1.215498896468255
F-0.3490658503988659
F1.5707963267948966
F1.5707963267948966
F1.5707963267948966
F1.0471975511965976
F0.26250000000000007
F0.0
F0.5235987755982988
F1.1475553697959775
tp387
aF-1.0
aF0.0
ag1
(g20
g3
Ntp388
Rp389
(lp390
g1
(g24
g3
Ntp391
Rp392
(lp393
I0
ag1
(g28
g3
Ntp394
Rp395
(lp396
I0
aI0
abaS'shadowhandnew'
p397
abag1
(g33
g3
Ntp398
Rp399
(lp400
F0.960429138778732
aF-0.1920858277557464
aF0.2016901191435337
abababag1
(g2
g3
Ntp401
Rp402
(lp403
I0
ag1
(g7
g3
Ntp404
Rp405
(lp406
g1
(g11
g3
Ntp407
Rp408
(lp409
F0.13041171838783622
aF0.09578414566824574
aF0.06268533299113886
abag1
(g15
g3
Ntp410
Rp411
(lp412
F0.032079146376796555
aF0.3571205637919246
aF0.9334265906149858
aF-0.01227319100958697
ababa(F0.3490658503988659
F1.5499045474430322
F1.5707963267948966
F1.5707963267948966
F-0.3490658503988659
F1.1243710024296107
F1.5707963267948966
F0.027500000000000017
F0.040473712152237766
F1.5707963267948966
F1.5707963267948966
F0.87849321349259
F1.0471975511965976
F0.19500000000000003
F0.0
F0.5235987755982988
F1.5707963267948966
tp413
aF-1.0
aF0.0
ag1
(g20
g3
Ntp414
Rp415
(lp416
g1
(g24
g3
Ntp417
Rp418
(lp419
I0
ag1
(g28
g3
Ntp420
Rp421
(lp422
I0
aI0
abaS'shadowhandnew'
p423
abag1
(g33
g3
Ntp424
Rp425
(lp426
F0.960429138778732
aF-0.1920858277557464
aF0.2016901191435337
abababag1
(g2
g3
Ntp427
Rp428
(lp429
I0
ag1
(g7
g3
Ntp430
Rp431
(lp432
g1
(g11
g3
Ntp433
Rp434
(lp435
F0.1063984623060844
aF0.08264338035139282
aF0.08351902254180783
abag1
(g15
g3
Ntp436
Rp437
(lp438
F-0.10235981503000272
aF0.3210866680860893
aF0.9408536230906516
aF0.034932502939115845
ababa(F-0.3490658503988659
F1.5494541500541261
F1.5707963267948966
F1.5707963267948966
F-0.3490658503988659
F1.500000000000001
F1.5707963267948966
F1.5707963267948966
F-0.3490658503988659
F1.5707963267948966
F0.4980000000000004
F0.4980000000000004
F1.0471975511965976
F0.10999999999999999
F0.0
F0.5235987755982988
F1.5707963267948966
tp439
aF-1.0
aF0.0
ag1
(g20
g3
Ntp440
Rp441
(lp442
g1
(g24
g3
Ntp443
Rp444
(lp445
I0
ag1
(g28
g3
Ntp446
Rp447
(lp448
I0
aI0
abaS'shadowhandnew'
p449
abag1
(g33
g3
Ntp450
Rp451
(lp452
F0.960429138778732
aF-0.1920858277557464
aF0.2016901191435337
abababag1
(g2
g3
Ntp453
Rp454
(lp455
I0
ag1
(g7
g3
Ntp456
Rp457
(lp458
g1
(g11
g3
Ntp459
Rp460
(lp461
F0.07650541552015827
aF0.05891335991590202
aF0.09666502831733909
abag1
(g15
g3
Ntp462
Rp463
(lp464
F-0.2601096313640112
aF0.21177876881600016
aF0.9402448347906469
aF0.05858654623688438
ababa(F-0.3490658503988659
F1.5484112296152455
F1.5707963267948966
F1.5707963267948966
F-0.3490658503988659
F1.502500000000001
F0.4982500000000004
F1.5707963267948966
F-0.3490658503988659
F0.5972243378143525
F0.4982500000000004
F1.5707963267948966
F0.6555790791698682
F0.15271679117413334
F0.0
F0.5235987755982988
F0.850747898881801
tp465
aF-1.0
aF0.0
ag1
(g20
g3
Ntp466
Rp467
(lp468
g1
(g24
g3
Ntp469
Rp470
(lp471
I0
ag1
(g28
g3
Ntp472
Rp473
(lp474
I0
aI0
abaS'shadowhandnew'
p475
abag1
(g33
g3
Ntp476
Rp477
(lp478
F0.960429138778732
aF-0.1920858277557464
aF0.2016901191435337
abababag1
(g2
g3
Ntp479
Rp480
(lp481
I0
ag1
(g7
g3
Ntp482
Rp483
(lp484
g1
(g11
g3
Ntp485
Rp486
(lp487
F0.11359433319864574
aF0.01077926114653318
aF-0.06778804539068521
abag1
(g15
g3
Ntp488
Rp489
(lp490
F0.2652738091399099
aF0.38924884543215993
aF0.8741638633156696
aF-0.11812147386126128
ababa(F-0.3490658503988659
F0.27316877782171733
F0.001
F1.5707963267948966
F-0.3490658503988659
F0.43687500000000024
F1.1351936214529743
F0.10768750000000009
F-0.3490658503988659
F1.5707963267948966
F1.5707963267948966
F1.5707963267948966
F0.07720512182962733
F1.2217304763960306
F0.0
F0.2639169201299785
F0.026874999999999996
tp491
aF-1.0
aF0.039953116747372695
ag1
(g20
g3
Ntp492
Rp493
(lp494
g1
(g24
g3
Ntp495
Rp496
(lp497
I0
ag1
(g28
g3
Ntp498
Rp499
(lp500
I0
aI0
abaS'shadowhandnew'
p501
abag1
(g33
g3
Ntp502
Rp503
(lp504
F0.960429138778732
aF-0.1920858277557464
aF0.2016901191435337
abababag1
(g2
g3
Ntp505
Rp506
(lp507
I0
ag1
(g7
g3
Ntp508
Rp509
(lp510
g1
(g11
g3
Ntp511
Rp512
(lp513
F0.12590786290401693
aF0.10105609783511642
aF0.05617528745248359
abag1
(g15
g3
Ntp514
Rp515
(lp516
F-0.031735533601792106
aF0.48473307251207437
aF0.8739089454937237
aF0.017602820968854984
ababa(F0.04346373057865608
F1.555000000000001
F0.4985000000000004
F0.4985000000000004
F-0.3490658503988659
F1.499538241023895
F1.5707963267948966
F1.5707963267948966
F-0.3305073133375258
F1.5707963267948966
F1.5707963267948966
F1.2339231405375397
F1.0471975511965976
F0.19500000000000003
F0.0
F0.5235987755982988
F1.5707963267948966
tp517
aF-1.0
aF0.0
ag1
(g20
g3
Ntp518
Rp519
(lp520
g1
(g24
g3
Ntp521
Rp522
(lp523
I0
ag1
(g28
g3
Ntp524
Rp525
(lp526
I0
aI0
abaS'shadowhandnew'
p527
abag1
(g33
g3
Ntp528
Rp529
(lp530
F0.960429138778732
aF-0.1920858277557464
aF0.2016901191435337
abababag1
(g2
g3
Ntp531
Rp532
(lp533
I0
ag1
(g7
g3
Ntp534
Rp535
(lp536
g1
(g11
g3
Ntp537
Rp538
(lp539
F0.11695226239286771
aF0.08625344945633805
aF0.06724875290042644
abag1
(g15
g3
Ntp540
Rp541
(lp542
F-0.08706512240764783
aF0.434585431153932
aF0.8954158513449784
aF0.04225660479783028
ababa(F0.05112710391734966
F1.5547487524822203
F1.5707963267948966
F1.515736164068951
F-0.3490658503988659
F1.2025000000000008
F1.5707963267948966
F0.12025000000000009
F-0.3490658503988659
F1.5707963267948966
F0.4982500000000004
F0.4982500000000004
F1.0471975511965976
F0.1025
F0.0
F0.5235987755982988
F1.5707963267948966
tp543
aF-1.0
aF0.0
ag1
(g20
g3
Ntp544
Rp545
(lp546
g1
(g24
g3
Ntp547
Rp548
(lp549
I0
ag1
(g28
g3
Ntp550
Rp551
(lp552
I0
aI0
abaS'shadowhandnew'
p553
abag1
(g33
g3
Ntp554
Rp555
(lp556
F0.960429138778732
aF-0.1920858277557464
aF0.2016901191435337
abababag1
(g2
g3
Ntp557
Rp558
(lp559
I0
ag1
(g7
g3
Ntp560
Rp561
(lp562
g1
(g11
g3
Ntp563
Rp564
(lp565
F0.13918211177696943
aF0.11100631918479195
aF0.0452402258788278
abag1
(g15
g3
Ntp566
Rp567
(lp568
F0.058837747140034986
aF0.4691593900982568
aF0.8805935096451775
aF-0.03134735977567791
ababa(F0.19188960737452748
F1.554342855491418
F0.3825000000000003
F0.3825000000000003
F-0.3490658503988659
F1.4985426955819259
F0.3825000000000003
F0.3825000000000003
F-0.3490658503988659
F1.5707963267948966
F1.5707963267948966
F1.3579827086663694
F1.0471975511965976
F0.19500000000000003
F0.0
F0.5235987755982988
F1.5707963267948966
tp569
aF-1.0
aF0.0
ag1
(g20
g3
Ntp570
Rp571
(lp572
g1
(g24
g3
Ntp573
Rp574
(lp575
I0
ag1
(g28
g3
Ntp576
Rp577
(lp578
I0
aI0
abaS'shadowhandnew'
p579
abag1
(g33
g3
Ntp580
Rp581
(lp582
F0.960429138778732
aF-0.1920858277557464
aF0.2016901191435337
abababag1
(g2
g3
Ntp583
Rp584
(lp585
I0
ag1
(g7
g3
Ntp586
Rp587
(lp588
g1
(g11
g3
Ntp589
Rp590
(lp591
F0.14028152059526003
aF0.08685493765826201
aF0.07093639362075993
abag1
(g15
g3
Ntp592
Rp593
(lp594
F0.05170353144728763
aF0.31616441293673264
aF0.947137228367983
aF-0.017259185023225064
ababa(F-0.06881940561831114
F1.555000000000001
F0.4985000000000004
F1.5707963267948966
F-0.3490658503988659
F1.495000000000001
F1.5707963267948966
F1.5707963267948966
F-0.3490658503988659
F1.5707963267948966
F1.5707963267948966
F1.5707963267948966
F1.0471975511965976
F0.19500000000000003
F0.0
F0.5235987755982988
F1.5707963267948966
tp595
aF-1.0
aF0.0
ag1
(g20
g3
Ntp596
Rp597
(lp598
g1
(g24
g3
Ntp599
Rp600
(lp601
I0
ag1
(g28
g3
Ntp602
Rp603
(lp604
I0
aI0
abaS'shadowhandnew'
p605
abag1
(g33
g3
Ntp606
Rp607
(lp608
F0.960429138778732
aF-0.1920858277557464
aF0.2016901191435337
abababag1
(g2
g3
Ntp609
Rp610
(lp611
I0
ag1
(g7
g3
Ntp612
Rp613
(lp614
g1
(g11
g3
Ntp615
Rp616
(lp617
F0.050184352213368685
aF0.03838211508545495
aF0.10966471680286664
abag1
(g15
g3
Ntp618
Rp619
(lp620
F-0.38058663570785994
aF0.1130817578556573
aF0.9166033664823948
aF0.04695313955411061
ababa(F-0.3490658503988659
F1.5475000000000012
F0.4987500000000004
F0.4987500000000004
F-0.3490658503988659
F1.4975000000000012
F0.9293590028583463
F1.5707963267948966
F-0.3490658503988659
F1.5707963267948966
F1.5707963267948966
F1.457043629584891
F1.0471975511965976
F0.23750000000000007
F0.0
F0.5235987755982988
F1.3036296560735523
tp621
aF-1.0
aF0.0
ag1
(g20
g3
Ntp622
Rp623
(lp624
g1
(g24
g3
Ntp625
Rp626
(lp627
I0
ag1
(g28
g3
Ntp628
Rp629
(lp630
I0
aI0
abaS'shadowhandnew'
p631
abag1
(g33
g3
Ntp632
Rp633
(lp634
F0.960429138778732
aF-0.1920858277557464
aF0.2016901191435337
abababag1
(g2
g3
Ntp635
Rp636
(lp637
I0
ag1
(g7
g3
Ntp638
Rp639
(lp640
g1
(g11
g3
Ntp641
Rp642
(lp643
F0.051078248798405126
aF0.05604747394771251
aF0.10873071778001224
abag1
(g15
g3
Ntp644
Rp645
(lp646
F-0.3721791302883846
aF0.22433046642805685
aF0.8958079700034831
aF0.09320202620217503
ababa(F-0.3490658503988659
F1.5475000000000012
F0.4987500000000004
F0.4987500000000004
F-0.3490658503988659
F1.4975000000000012
F1.5707963267948966
F1.4795492832079193
F-0.3490658503988659
F1.5707963267948966
F1.5707963267948966
F1.445005016264793
F1.0471975511965976
F0.22750000000000006
F0.0
F0.5235987755982988
F1.369720714133419
tp647
aF-1.0
aF0.0
ag1
(g20
g3
Ntp648
Rp649
(lp650
g1
(g24
g3
Ntp651
Rp652
(lp653
I0
ag1
(g28
g3
Ntp654
Rp655
(lp656
I0
aI0
abaS'shadowhandnew'
p657
abag1
(g33
g3
Ntp658
Rp659
(lp660
F0.960429138778732
aF-0.1920858277557464
aF0.2016901191435337
abababag1
(g2
g3
Ntp661
Rp662
(lp663
I0
ag1
(g7
g3
Ntp664
Rp665
(lp666
g1
(g11
g3
Ntp667
Rp668
(lp669
F0.06821928625766271
aF0.013745029030643483
aF0.09398558173617906
abag1
(g15
g3
Ntp670
Rp671
(lp672
F-0.3675108189035662
aF-0.06303547297402846
aF0.9275443566412419
aF-0.024975860320628422
ababa(F-0.3490658503988659
F1.545000000000001
F0.4975000000000004
F1.5707963267948966
F-0.3490658503988659
F1.4937950880946491
F1.5707963267948966
F1.5707963267948966
F-0.3490658503988659
F1.5707963267948966
F1.5707963267948966
F1.5707963267948966
F1.0471975511965976
F0.3150000000000001
F0.0
F0.5235987755982988
F0.5250000000000002
tp673
aF-1.0
aF0.0
ag1
(g20
g3
Ntp674
Rp675
(lp676
g1
(g24
g3
Ntp677
Rp678
(lp679
I0
ag1
(g28
g3
Ntp680
Rp681
(lp682
I0
aI0
abaS'shadowhandnew'
p683
abag1
(g33
g3
Ntp684
Rp685
(lp686
F0.960429138778732
aF-0.1920858277557464
aF0.2016901191435337
abababag1
(g2
g3
Ntp687
Rp688
(lp689
I0
ag1
(g7
g3
Ntp690
Rp691
(lp692
g1
(g11
g3
Ntp693
Rp694
(lp695
F0.0700437937561401
aF0.0035661813286808376
aF0.0850294791692864
abag1
(g15
g3
Ntp696
Rp697
(lp698
F-0.41627394468774526
aF-0.2029098988427036
aF0.8811094104235518
aF-0.09586335477547617
ababa(F-0.3490658503988659
F0.7100000000000004
F1.5707963267948966
F0.4987500000000004
F0.040661870761494086
F1.5020452914041442
F1.5707963267948966
F0.10475000000000008
F0.20996526225509396
F1.5707963267948966
F1.5707963267948966
F1.5707963267948966
F0.0003024488034031659
F1.2217304763960306
F0.0
F0.5217993877991496
F1.5707963267948966
tp699
aF-1.0
aF0.0
ag1
(g20
g3
Ntp700
Rp701
(lp702
g1
(g24
g3
Ntp703
Rp704
(lp705
I0
ag1
(g28
g3
Ntp706
Rp707
(lp708
I0
aI0
abaS'shadowhandnew'
p709
abag1
(g33
g3
Ntp710
Rp711
(lp712
F0.960429138778732
aF-0.1920858277557464
aF0.2016901191435337
abababag1
(g2
g3
Ntp713
Rp714
(lp715
I0
ag1
(g7
g3
Ntp716
Rp717
(lp718
g1
(g11
g3
Ntp719
Rp720
(lp721
F0.149824905606967
aF0.11344029931365651
aF0.021323995854242484
abag1
(g15
g3
Ntp722
Rp723
(lp724
F0.15711531099860998
aF0.46213692493378955
aF0.8687687751596247
aF-0.08357665326032548
ababa(F-0.3490658503988659
F1.5417981958864395
F1.5707963267948966
F1.5707963267948966
F-0.3490658503988659
F1.4945977100490377
F1.5707963267948966
F1.103167741654888
F-0.3490658503988659
F1.5707963267948966
F1.5707963267948966
F0.4985000000000004
F1.0471975511965976
F0.19500000000000003
F0.0
F0.5235987755982988
F1.5707963267948966
tp725
aF-1.0
aF0.0
ag1
(g20
g3
Ntp726
Rp727
(lp728
g1
(g24
g3
Ntp729
Rp730
(lp731
I0
ag1
(g28
g3
Ntp732
Rp733
(lp734
I0
aI0
abaS'shadowhandnew'
p735
abag1
(g33
g3
Ntp736
Rp737
(lp738
F0.960429138778732
aF-0.1920858277557464
aF0.2016901191435337
abababag1
(g2
g3
Ntp739
Rp740
(lp741
I0
ag1
(g7
g3
Ntp742
Rp743
(lp744
g1
(g11
g3
Ntp745
Rp746
(lp747
F0.0711907941559992
aF0.025149005379842177
aF0.09766516543263572
abag1
(g15
g3
Ntp748
Rp749
(lp750
F-0.32922915977981804
aF0.03296772151438211
aF0.9436042491834677
aF0.01150263499070434
ababa(F-0.3490658503988659
F1.5499389464171138
F1.069658160773924
F1.5707963267948966
F-0.3490658503988659
F1.499879259498227
F1.5707963267948966
F0.4982500000000004
F-0.3490658503988659
F1.5707963267948966
F1.5707963267948966
F1.5707963267948966
F0.4739774957805093
F0.4425000000000002
F0.0
F-0.0810987755982985
F1.5707963267948966
tp751
aF-1.0
aF0.0
ag1
(g20
g3
Ntp752
Rp753
(lp754
g1
(g24
g3
Ntp755
Rp756
(lp757
I0
ag1
(g28
g3
Ntp758
Rp759
(lp760
I0
aI0
abaS'shadowhandnew'
p761
abag1
(g33
g3
Ntp762
Rp763
(lp764
F0.960429138778732
aF-0.1920858277557464
aF0.2016901191435337
abababag1
(g2
g3
Ntp765
Rp766
(lp767
I0
ag1
(g7
g3
Ntp768
Rp769
(lp770
g1
(g11
g3
Ntp771
Rp772
(lp773
F0.07903145393896384
aF0.06431425221893548
aF0.11057114964637652
abag1
(g15
g3
Ntp774
Rp775
(lp776
F-0.2329538760256889
aF0.2365866885817852
aF0.941452150897826
aF0.058541250416868876
ababa(F-0.12561764832908162
F1.553750000000001
F1.0776496580469168
F0.4973750000000004
F-0.3490658503988659
F1.493750000000001
F1.5707963267948966
F1.5707963267948966
F-0.3490658503988659
F1.5707963267948966
F1.5707963267948966
F1.4476022089831257
F1.0471975511965976
F0.22375000000000006
F0.0
F0.5235987755982988
F1.395774409320258
tp777
aF-1.0
aF0.0
ag1
(g20
g3
Ntp778
Rp779
(lp780
g1
(g24
g3
Ntp781
Rp782
(lp783
I0
ag1
(g28
g3
Ntp784
Rp785
(lp786
I0
aI0
abaS'shadowhandnew'
p787
abag1
(g33
g3
Ntp788
Rp789
(lp790
F0.960429138778732
aF-0.1920858277557464
aF0.2016901191435337
abababag1
(g2
g3
Ntp791
Rp792
(lp793
I0
ag1
(g7
g3
Ntp794
Rp795
(lp796
g1
(g11
g3
Ntp797
Rp798
(lp799
F0.08386963666260303
aF-0.007399732943249198
aF0.07419722165922177
abag1
(g15
g3
Ntp800
Rp801
(lp802
F-0.3784546165521496
aF-0.3719287291907799
aF0.8304908033208964
aF-0.1694879028494634
ababa(F-0.3490658503988659
F1.545000000000001
F0.5122006518853816
F1.5707963267948966
F-0.3490658503988659
F1.4951638478515017
F1.5707963267948966
F1.5707963267948966
F-0.3490658503988659
F1.5707963267948966
F1.5707963267948966
F1.3257519823921604
F0.4600049362421464
F0.44500000000000023
F0.0
F-0.0785987755982985
F1.5707963267948966
tp803
aF-1.0
aF0.0
ag1
(g20
g3
Ntp804
Rp805
(lp806
g1
(g24
g3
Ntp807
Rp808
(lp809
I0
ag1
(g28
g3
Ntp810
Rp811
(lp812
I0
aI0
abaS'shadowhandnew'
p813
abag1
(g33
g3
Ntp814
Rp815
(lp816
F0.960429138778732
aF-0.1920858277557464
aF0.2016901191435337
abababag1
(g2
g3
Ntp817
Rp818
(lp819
I0
ag1
(g7
g3
Ntp820
Rp821
(lp822
g1
(g11
g3
Ntp823
Rp824
(lp825
F0.15849694809530895
aF0.10830983427109502
aF-0.03468773845871051
abag1
(g15
g3
Ntp826
Rp827
(lp828
F0.3811691263986299
aF0.38264138620330473
aF0.8227197320490398
aF-0.1772791841759068
ababa(F-0.3490658503988659
F1.546250000000001
F0.49862500000000043
F1.5707963267948966
F-0.3490658503988659
F1.4940880185349545
F1.5707963267948966
F1.5707963267948966
F-0.3490658503988659
F0.9262500000000006
F1.5707963267948966
F0.09262500000000007
F-0.12094755119659682
F0.9262500000000006
F0.0
F0.40265122440170176
F0.9262500000000006
tp829
aF-1.0
aF0.0
ag1
(g20
g3
Ntp830
Rp831
(lp832
g1
(g24
g3
Ntp833
Rp834
(lp835
I0
ag1
(g28
g3
Ntp836
Rp837
(lp838
I0
aI0
abaS'shadowhandnew'
p839
abag1
(g33
g3
Ntp840
Rp841
(lp842
F0.960429138778732
aF-0.1920858277557464
aF0.2016901191435337
abababag1
(g2
g3
Ntp843
Rp844
(lp845
I0
ag1
(g7
g3
Ntp846
Rp847
(lp848
g1
(g11
g3
Ntp849
Rp850
(lp851
F0.13516167783698974
aF-0.001893927057804092
aF-0.005938633819640689
abag1
(g15
g3
Ntp852
Rp853
(lp854
F-0.17206090625814352
aF0.26964683861771654
aF0.946193050432287
aF0.04903405219580813
ababa(F-0.3490658503988659
F0.30750000000000016
F1.5707963267948966
F0.03075000000000002
F-0.3490658503988659
F0.5700000000000003
F1.5707963267948966
F0.057000000000000044
F-0.3490658503988659
F1.5707963267948966
F1.5707963267948966
F1.5707963267948966
F-0.72822318818438
F1.2217304763960306
F0.0
F0.5235987755982988
F0.3575000000000002
tp855
aF-1.0
aF0.07191192139663063
ag1
(g20
g3
Ntp856
Rp857
(lp858
g1
(g24
g3
Ntp859
Rp860
(lp861
I0
ag1
(g28
g3
Ntp862
Rp863
(lp864
I0
aI0
abaS'shadowhandnew'
p865
abag1
(g33
g3
Ntp866
Rp867
(lp868
F0.960429138778732
aF-0.1920858277557464
aF0.2016901191435337
abababag1
(g2
g3
Ntp869
Rp870
(lp871
I0
ag1
(g7
g3
Ntp872
Rp873
(lp874
g1
(g11
g3
Ntp875
Rp876
(lp877
F0.16639677832709762
aF0.005019177564252082
aF-0.008968320153062195
abag1
(g15
g3
Ntp878
Rp879
(lp880
F0.3514915571093255
aF-0.07880710288980085
aF0.932395051772055
aF0.02970847094626455
ababa(F-0.3490658503988659
F1.5462500000000012
F1.5707963267948966
F0.49862500000000043
F-0.3490658503988659
F1.4985531547056479
F0.5193397863210283
F1.5707963267948966
F-0.3490658503988659
F1.5707963267948966
F1.5635111065925096
F1.5707963267948966
F1.0471975511965976
F0.4062500000000002
F0.0
F-0.11734877559829848
F1.5707963267948966
tp881
aF-1.0
aF0.0
ag1
(g20
g3
Ntp882
Rp883
(lp884
g1
(g24
g3
Ntp885
Rp886
(lp887
I0
ag1
(g28
g3
Ntp888
Rp889
(lp890
I0
aI0
abaS'shadowhandnew'
p891
abag1
(g33
g3
Ntp892
Rp893
(lp894
F0.960429138778732
aF-0.1920858277557464
aF0.2016901191435337
abababag1
(g2
g3
Ntp895
Rp896
(lp897
I0
ag1
(g7
g3
Ntp898
Rp899
(lp900
g1
(g11
g3
Ntp901
Rp902
(lp903
F0.1331989680727492
aF0.11512471595963913
aF0.07280730211511355
abag1
(g15
g3
Ntp904
Rp905
(lp906
F0.013620556805768198
aF0.4240631139193665
aF0.9055077403541605
aF-0.006378714918671588
ababa(F-0.017004994703310017
F1.5500000000000012
F0.4980000000000004
F0.4980000000000004
F-0.3490658503988659
F1.500000000000001
F1.5707963267948966
F0.4980000000000004
F-0.3490658503988659
F1.5707963267948966
F1.5707963267948966
F1.3908653249236316
F1.0000332091565338
F0.24000000000000007
F0.0
F0.5235987755982988
F1.1786847144721033
tp907
aF-1.0
aF0.0
ag1
(g20
g3
Ntp908
Rp909
(lp910
g1
(g24
g3
Ntp911
Rp912
(lp913
I0
ag1
(g28
g3
Ntp914
Rp915
(lp916
I0
aI0
abaS'shadowhandnew'
p917
abag1
(g33
g3
Ntp918
Rp919
(lp920
F0.960429138778732
aF-0.1920858277557464
aF0.2016901191435337
abababag1
(g2
g3
Ntp921
Rp922
(lp923
I0
ag1
(g7
g3
Ntp924
Rp925
(lp926
g1
(g11
g3
Ntp927
Rp928
(lp929
F0.054824737059868255
aF0.06359144219876744
aF0.1168900681081955
abag1
(g15
g3
Ntp930
Rp931
(lp932
F-0.32415467842926726
aF0.2288201710373838
aF0.9143216191780652
aF0.08112367399496849
ababa(F-0.3490658503988659
F1.545000000000001
F0.4985000000000004
F1.0259366950397475
F-0.3490658503988659
F1.495000000000001
F1.31262464007247
F1.5707963267948966
F-0.3490658503988659
F1.5707963267948966
F1.5707963267948966
F1.4481793371013334
F1.0471975511965976
F0.22500000000000006
F0.0
F0.5235987755982988
F1.385141039298777
tp933
aF-1.0
aF0.0
ag1
(g20
g3
Ntp934
Rp935
(lp936
g1
(g24
g3
Ntp937
Rp938
(lp939
I0
ag1
(g28
g3
Ntp940
Rp941
(lp942
I0
aI0
abaS'shadowhandnew'
p943
abag1
(g33
g3
Ntp944
Rp945
(lp946
F0.960429138778732
aF-0.1920858277557464
aF0.2016901191435337
abababag1
(g2
g3
Ntp947
Rp948
(lp949
I0
ag1
(g7
g3
Ntp950
Rp951
(lp952
g1
(g11
g3
Ntp953
Rp954
(lp955
F0.13741320128115875
aF0.04617634062336056
aF-0.018323351479346633
abag1
(g15
g3
Ntp956
Rp957
(lp958
F0.027859471859309017
aF0.15451211430555914
aF0.9875884050960662
aF-0.004358724624758364
ababa(F-0.3490658503988659
F1.5423790583224968
F1.5707963267948966
F1.5707963267948966
F-0.3490658503988659
F0.43355861868282375
F1.5707963267948966
F0.016000000000000007
F-0.3490658503988659
F0.2900000000000001
F1.5626643932639976
F1.5707963267948966
F-0.337197551196597
F0.7100000000000004
F0.0
F0.5235987755982988
F0.7100000000000004
tp959
aF-1.0
aF0.03895259747137996
ag1
(g20
g3
Ntp960
Rp961
(lp962
g1
(g24
g3
Ntp963
Rp964
(lp965
I0
ag1
(g28
g3
Ntp966
Rp967
(lp968
I0
aI0
abaS'shadowhandnew'
p969
abag1
(g33
g3
Ntp970
Rp971
(lp972
F0.960429138778732
aF-0.1920858277557464
aF0.2016901191435337
abababag1
(g2
g3
Ntp973
Rp974
(lp975
I0
ag1
(g7
g3
Ntp976
Rp977
(lp978
g1
(g11
g3
Ntp979
Rp980
(lp981
F0.12739970893829958
aF0.04123041063925473
aF-0.058556642558192463
abag1
(g15
g3
Ntp982
Rp983
(lp984
F0.16112993758902225
aF0.15880613737064103
aF0.9737182157473779
aF-0.026279084225249577
ababa(F-0.3490658503988659
F1.4226110245835693
F0.9897808429913943
F1.5707963267948966
F-0.3490658503988659
F0.3087500000000001
F0.9385893682774248
F1.309404470986299
F-0.3490658503988659
F0.9987500000000007
F0.09987500000000007
F1.5707963267948966
F-0.4009475511965971
F0.6462500000000004
F0.0
F0.1226512244017015
F1.5707963267948966
tp985
aF-1.0
aF0.19674016839030378
ag1
(g20
g3
Ntp986
Rp987
(lp988
g1
(g24
g3
Ntp989
Rp990
(lp991
I0
ag1
(g28
g3
Ntp992
Rp993
(lp994
I0
aI0
abaS'shadowhandnew'
p995
abag1
(g33
g3
Ntp996
Rp997
(lp998
F0.960429138778732
aF-0.1920858277557464
aF0.2016901191435337
abababag1
(g2
g3
Ntp999
Rp1000
(lp1001
I0
ag1
(g7
g3
Ntp1002
Rp1003
(lp1004
g1
(g11
g3
Ntp1005
Rp1006
(lp1007
F0.0696591966298427
aF0.04938686690473647
aF0.10182365594909688
abag1
(g15
g3
Ntp1008
Rp1009
(lp1010
F-0.35847565596475944
aF0.014760365273183217
aF0.933405164480682
aF0.00566874046227041
ababa(F-0.3490658503988659
F1.5436901974771509
F1.5707963267948966
F1.5707963267948966
F-0.3490658503988659
F1.495000000000001
F0.4985000000000004
F0.4985000000000004
F-0.2570875056264659
F1.5707963267948966
F0.4985000000000004
F0.4985000000000004
F1.0471975511965976
F0.19500000000000003
F0.0
F0.5235987755982988
F1.5707963267948966
tp1011
aF-1.0
aF0.0
ag1
(g20
g3
Ntp1012
Rp1013
(lp1014
g1
(g24
g3
Ntp1015
Rp1016
(lp1017
I0
ag1
(g28
g3
Ntp1018
Rp1019
(lp1020
I0
aI0
abaS'shadowhandnew'
p1021
abag1
(g33
g3
Ntp1022
Rp1023
(lp1024
F0.960429138778732
aF-0.1920858277557464
aF0.2016901191435337
abababag1
(g2
g3
Ntp1025
Rp1026
(lp1027
I0
ag1
(g7
g3
Ntp1028
Rp1029
(lp1030
g1
(g11
g3
Ntp1031
Rp1032
(lp1033
F0.10089195698615662
aF0.09197956679015344
aF0.07701679015274021
abag1
(g15
g3
Ntp1034
Rp1035
(lp1036
F-0.2386393174459289
aF0.427475671302478
aF0.863928815466749
aF0.11807975448677445
ababa(F0.3490658503988659
F1.5505139651828226
F0.9671752684293355
F1.5707963267948966
F-0.3490658503988659
F1.502500000000001
F0.40825000000000033
F0.40825000000000033
F-0.3490658503988659
F1.5707963267948966
F1.3583502567196923
F1.015531267725823
F0.11530244880340314
F1.2217304763960306
F0.0
F0.5235987755982988
F1.1625000000000008
tp1037
aF-1.0
aF0.0
ag1
(g20
g3
Ntp1038
Rp1039
(lp1040
g1
(g24
g3
Ntp1041
Rp1042
(lp1043
I0
ag1
(g28
g3
Ntp1044
Rp1045
(lp1046
I0
aI0
abaS'shadowhandnew'
p1047
abag1
(g33
g3
Ntp1048
Rp1049
(lp1050
F0.960429138778732
aF-0.1920858277557464
aF0.2016901191435337
abababag1
(g2
g3
Ntp1051
Rp1052
(lp1053
I0
ag1
(g7
g3
Ntp1054
Rp1055
(lp1056
g1
(g11
g3
Ntp1057
Rp1058
(lp1059
F0.11344026915020511
aF0.07720528096589245
aF0.09016658769043603
abag1
(g15
g3
Ntp1060
Rp1061
(lp1062
F-0.1301139028478165
aF0.18673214257999138
aF0.9734364409515307
aF0.02495945994631957
ababa(F-0.3490658503988659
F1.5461693469384814
F0.4980000000000004
F1.5707963267948966
F-0.3490658503988659
F1.500000000000001
F0.4980000000000004
F0.4980000000000004
F-0.3490658503988659
F1.5707963267948966
F1.5707963267948966
F1.5707963267948966
F1.0471975511965976
F0.19612313816730662
F0.0
F0.5235987755982988
F1.5707963267948966
tp1063
aF-1.0
aF0.0
ag1
(g20
g3
Ntp1064
Rp1065
(lp1066
g1
(g24
g3
Ntp1067
Rp1068
(lp1069
I0
ag1
(g28
g3
Ntp1070
Rp1071
(lp1072
I0
aI0
abaS'shadowhandnew'
p1073
abag1
(g33
g3
Ntp1074
Rp1075
(lp1076
F0.960429138778732
aF-0.1920858277557464
aF0.2016901191435337
abababag1
(g2
g3
Ntp1077
Rp1078
(lp1079
I0
ag1
(g7
g3
Ntp1080
Rp1081
(lp1082
g1
(g11
g3
Ntp1083
Rp1084
(lp1085
F0.12914090622061367
aF0.10763966794813055
aF0.053072517291778455
abag1
(g15
g3
Ntp1086
Rp1087
(lp1088
F-0.06416366290190277
aF0.4691528500048891
aF0.8801186242461047
aF0.0342028500339554
ababa(F-0.3490658503988659
F1.5462100666949734
F1.5707963267948966
F0.9269253904982441
F-0.3490658503988659
F1.4960767272346964
F1.5707963267948966
F0.4985000000000004
F-0.3490658503988659
F1.5707963267948966
F1.5707963267948966
F1.2698344509705413
F1.0471975511965976
F0.19500000000000003
F0.0
F0.5235987755982988
F1.5707963267948966
tp1089
aF-1.0
aF0.0
ag1
(g20
g3
Ntp1090
Rp1091
(lp1092
g1
(g24
g3
Ntp1093
Rp1094
(lp1095
I0
ag1
(g28
g3
Ntp1096
Rp1097
(lp1098
I0
aI0
abaS'shadowhandnew'
p1099
abag1
(g33
g3
Ntp1100
Rp1101
(lp1102
F0.960429138778732
aF-0.1920858277557464
aF0.2016901191435337
abababag1
(g2
g3
Ntp1103
Rp1104
(lp1105
I0
ag1
(g7
g3
Ntp1106
Rp1107
(lp1108
g1
(g11
g3
Ntp1109
Rp1110
(lp1111
F0.12296929848215273
aF0.09040168375020231
aF0.06286583144083029
abag1
(g15
g3
Ntp1112
Rp1113
(lp1114
F-0.10516748304178729
aF0.36543380486904203
aF0.9239414233766895
aF0.0415954437198041
ababa(F-0.3490658503988659
F1.5466849625056316
F1.5707963267948966
F0.49862500000000043
F-0.3490658503988659
F1.4962500000000012
F0.49862500000000043
F1.5707963267948966
F-0.3490658503988659
F1.5707963267948966
F1.5707963267948966
F0.49862500000000043
F0.4054295208746199
F0.31625000000000014
F0.0
F0.08136410954515111
F1.5707963267948966
tp1115
aF-1.0
aF0.0
ag1
(g20
g3
Ntp1116
Rp1117
(lp1118
g1
(g24
g3
Ntp1119
Rp1120
(lp1121
I0
ag1
(g28
g3
Ntp1122
Rp1123
(lp1124
I0
aI0
abaS'shadowhandnew'
p1125
abag1
(g33
g3
Ntp1126
Rp1127
(lp1128
F0.960429138778732
aF-0.1920858277557464
aF0.2016901191435337
abababag1
(g2
g3
Ntp1129
Rp1130
(lp1131
I0
ag1
(g7
g3
Ntp1132
Rp1133
(lp1134
g1
(g11
g3
Ntp1135
Rp1136
(lp1137
F0.09131802477449989
aF0.060791420380667434
aF0.09900601416617985
abag1
(g15
g3
Ntp1138
Rp1139
(lp1140
F-0.24394995060467484
aF0.09114943747948193
aF0.9652199190323126
aF0.02303713416218789
ababa(F-0.34096394426253696
F1.5459661803348212
F1.5707963267948966
F1.5707963267948966
F-0.3490658503988659
F1.5017038128329205
F1.0700671883174318
F0.4985000000000004
F-0.3490658503988659
F1.5707963267948966
F0.4985000000000004
F1.5707963267948966
F1.0281944680690867
F0.18500000000000003
F0.0
F0.5235987755982988
F1.5707963267948966
tp1141
aF-1.0
aF0.0
ag1
(g20
g3
Ntp1142
Rp1143
(lp1144
g1
(g24
g3
Ntp1145
Rp1146
(lp1147
I0
ag1
(g28
g3
Ntp1148
Rp1149
(lp1150
I0
aI0
abaS'shadowhandnew'
p1151
abag1
(g33
g3
Ntp1152
Rp1153
(lp1154
F0.960429138778732
aF-0.1920858277557464
aF0.2016901191435337
abababag1
(g2
g3
Ntp1155
Rp1156
(lp1157
I0
ag1
(g7
g3
Ntp1158
Rp1159
(lp1160
g1
(g11
g3
Ntp1161
Rp1162
(lp1163
F0.1247723035778359
aF0.09176360907933924
aF-0.0787062434792806
abag1
(g15
g3
Ntp1164
Rp1165
(lp1166
F0.10274843123958548
aF-0.42934217917307543
aF0.8959261150808782
aF0.04923869796008368
ababa(F-0.3490658503988659
F0.06000000000000001
F1.5707963267948966
F0.006
F-0.3490658503988659
F0.12374999999999997
F1.5707963267948966
F0.012375000000000004
F-0.3490658503988659
F0.6112500000000003
F0.06112500000000005
F1.5707963267948966
F-0.02737379308413884
F0.13874999999999998
F0.0
F-0.38484877559829866
F1.5707963267948966
tp1167
aF-1.0
aF0.13910030222992276
ag1
(g20
g3
Ntp1168
Rp1169
(lp1170
g1
(g24
g3
Ntp1171
Rp1172
(lp1173
I0
ag1
(g28
g3
Ntp1174
Rp1175
(lp1176
I0
aI0
abaS'shadowhandnew'
p1177
abag1
(g33
g3
Ntp1178
Rp1179
(lp1180
F0.960429138778732
aF-0.1920858277557464
aF0.2016901191435337
abababag1
(g2
g3
Ntp1181
Rp1182
(lp1183
I0
ag1
(g7
g3
Ntp1184
Rp1185
(lp1186
g1
(g11
g3
Ntp1187
Rp1188
(lp1189
F0.13239989162820112
aF0.0928176378811853
aF0.07300959994197115
abag1
(g15
g3
Ntp1190
Rp1191
(lp1192
F-0.030572842490584444
aF0.27424342335230373
aF0.9611346147285114
aF0.008723440876798473
ababa(F-0.3490658503988659
F1.543750000000001
F0.6476041342472398
F1.5707963267948966
F-0.3490658503988659
F1.493750000000001
F1.5707963267948966
F0.4983750000000004
F-0.3490658503988659
F1.5707963267948966
F1.5707963267948966
F1.5707963267948966
F1.0471975511965976
F0.22375000000000006
F0.0
F0.4365139794557139
F1.5707963267948966
tp1193
aF-1.0
aF0.0
ag1
(g20
g3
Ntp1194
Rp1195
(lp1196
g1
(g24
g3
Ntp1197
Rp1198
(lp1199
I0
ag1
(g28
g3
Ntp1200
Rp1201
(lp1202
I0
aI0
abaS'shadowhandnew'
p1203
abag1
(g33
g3
Ntp1204
Rp1205
(lp1206
F0.960429138778732
aF-0.1920858277557464
aF0.2016901191435337
abababag1
(g2
g3
Ntp1207
Rp1208
(lp1209
I0
ag1
(g7
g3
Ntp1210
Rp1211
(lp1212
g1
(g11
g3
Ntp1213
Rp1214
(lp1215
F0.16359194340256722
aF0.03436989420011239
aF0.005982455021447094
abag1
(g15
g3
Ntp1216
Rp1217
(lp1218
F0.25866515974533066
aF-0.0775793644473809
aF0.9626210102913474
aF0.020846292033091497
ababa(F-0.3490658503988659
F1.5474399947220518
F1.5707963267948966
F1.5707963267948966
F-0.3490658503988659
F1.4962500000000012
F1.5707963267948966
F1.5707963267948966
F-0.3490658503988659
F1.5707963267948966
F1.5707963267948966
F0.9248689355890859
F1.0471975511965976
F0.4062500000000002
F0.0
F-0.11734877559829848
F1.5707963267948966
tp1219
aF-1.0
aF0.0
ag1
(g20
g3
Ntp1220
Rp1221
(lp1222
g1
(g24
g3
Ntp1223
Rp1224
(lp1225
I0
ag1
(g28
g3
Ntp1226
Rp1227
(lp1228
I0
aI0
abaS'shadowhandnew'
p1229
abag1
(g33
g3
Ntp1230
Rp1231
(lp1232
F0.960429138778732
aF-0.1920858277557464
aF0.2016901191435337
abababag1
(g2
g3
Ntp1233
Rp1234
(lp1235
I0
ag1
(g7
g3
Ntp1236
Rp1237
(lp1238
g1
(g11
g3
Ntp1239
Rp1240
(lp1241
F0.08165036799526708
aF0.07555732124494352
aF0.1026423053947077
abag1
(g15
g3
Ntp1242
Rp1243
(lp1244
F-0.28255996436297703
aF0.18854455805764314
aF0.9388240682494197
aF0.056746674278324055
ababa(F-0.3490658503988659
F1.54821225928937
F1.5707963267948966
F1.5707963267948966
F-0.3490658503988659
F1.495000000000001
F1.0543464585136442
F0.6788352445645824
F-0.3490658503988659
F1.5707963267948966
F1.2127302899838208
F1.5707963267948966
F1.0471975511965976
F0.19500000000000003
F0.0
F0.5235987755982988
F1.5707963267948966
tp1245
aF-1.0
aF0.0
ag1
(g20
g3
Ntp1246
Rp1247
(lp1248
g1
(g24
g3
Ntp1249
Rp1250
(lp1251
I0
ag1
(g28
g3
Ntp1252
Rp1253
(lp1254
I0
aI0
abaS'shadowhandnew'
p1255
abag1
(g33
g3
Ntp1256
Rp1257
(lp1258
F0.960429138778732
aF-0.1920858277557464
aF0.2016901191435337
abababag1
(g2
g3
Ntp1259
Rp1260
(lp1261
I0
ag1
(g7
g3
Ntp1262
Rp1263
(lp1264
g1
(g11
g3
Ntp1265
Rp1266
(lp1267
F0.05092411384320521
aF0.057667473903399345
aF-0.12112948524175084
abag1
(g15
g3
Ntp1268
Rp1269
(lp1270
F0.48527982298494177
aF-0.1012455675704864
aF0.8666248430084711
aF0.056694002606771966
ababa(F-0.3490658503988659
F0.18750000000000003
F0.01875000000000001
F1.5707963267948966
F-0.3490658503988659
F0.11124999999999999
F0.7886885781764048
F0.6158444120415008
F-0.3490658503988659
F1.5707963267948966
F1.5707963267948966
F1.5707963267948966
F-0.5146975511965971
F0.5325000000000003
F0.0
F0.5235987755982988
F0.5325000000000003
tp1271
aF-1.0
aF0.05980298455794988
ag1
(g20
g3
Ntp1272
Rp1273
(lp1274
g1
(g24
g3
Ntp1275
Rp1276
(lp1277
I0
ag1
(g28
g3
Ntp1278
Rp1279
(lp1280
I0
aI0
abaS'shadowhandnew'
p1281
abag1
(g33
g3
Ntp1282
Rp1283
(lp1284
F0.960429138778732
aF-0.1920858277557464
aF0.2016901191435337
abababag1
(g2
g3
Ntp1285
Rp1286
(lp1287
I0
ag1
(g7
g3
Ntp1288
Rp1289
(lp1290
g1
(g11
g3
Ntp1291
Rp1292
(lp1293
F0.13655313044876424
aF0.021248897039066388
aF0.004293206889231613
abag1
(g15
g3
Ntp1294
Rp1295
(lp1296
F-0.10471781305594867
aF0.46262742139428764
aF0.878618141699899
aF0.05513809643674487
ababa(F-0.3490658503988659
F0.9173030056956707
F0.0015
F1.5707963267948966
F-0.3490658503988659
F0.6481250000000004
F1.2937659927647691
F0.3399661994454348
F-0.3490658503988659
F1.5707963267948966
F0.10681250000000009
F0.10681250000000009
F-0.2038422215947336
F1.2217304763960306
F0.0
F0.5235987755982988
F0.3106250000000001
tp1297
aF-1.0
aF0.06451321267156268
ag1
(g20
g3
Ntp1298
Rp1299
(lp1300
g1
(g24
g3
Ntp1301
Rp1302
(lp1303
I0
ag1
(g28
g3
Ntp1304
Rp1305
(lp1306
I0
aI0
abaS'shadowhandnew'
p1307
abag1
(g33
g3
Ntp1308
Rp1309
(lp1310
F0.960429138778732
aF-0.1920858277557464
aF0.2016901191435337
abababag1
(g2
g3
Ntp1311
Rp1312
(lp1313
I0
ag1
(g7
g3
Ntp1314
Rp1315
(lp1316
g1
(g11
g3
Ntp1317
Rp1318
(lp1319
F0.06744186733024043
aF0.028173898515571102
aF0.09607661160665072
abag1
(g15
g3
Ntp1320
Rp1321
(lp1322
F-0.39835451173882847
aF-0.1552872471970342
aF0.9013821915399318
aF-0.06862724393385235
ababa(F0.05964844661393182
F1.5501750444017819
F1.5707963267948966
F1.5707963267948966
F-0.3490658503988659
F1.5006640960814046
F0.4985000000000004
F0.4985000000000004
F-0.27914993104066077
F1.5707963267948966
F0.4985000000000004
F1.5707963267948966
F1.0471975511965976
F0.19500000000000003
F0.0
F0.5235987755982988
F1.5707963267948966
tp1323
aF-1.0
aF0.0
ag1
(g20
g3
Ntp1324
Rp1325
(lp1326
g1
(g24
g3
Ntp1327
Rp1328
(lp1329
I0
ag1
(g28
g3
Ntp1330
Rp1331
(lp1332
I0
aI0
abaS'shadowhandnew'
p1333
abag1
(g33
g3
Ntp1334
Rp1335
(lp1336
F0.960429138778732
aF-0.1920858277557464
aF0.2016901191435337
abababag1
(g2
g3
Ntp1337
Rp1338
(lp1339
I0
ag1
(g7
g3
Ntp1340
Rp1341
(lp1342
g1
(g11
g3
Ntp1343
Rp1344
(lp1345
F0.08253444663715197
aF0.05023044645971968
aF0.10417299121686951
abag1
(g15
g3
Ntp1346
Rp1347
(lp1348
F-0.27778229306744767
aF0.018390070524529987
aF0.9604532854779106
aF0.005318776079186528
ababa(F-0.10528466615759477
F1.5478943425646525
F1.5707963267948966
F1.5707963267948966
F-0.3490658503988659
F1.4987500000000011
F0.4988750000000004
F1.5707963267948966
F-0.3490658503988659
F1.5707963267948966
F1.5707963267948966
F1.1242887156970114
F1.0471975511965976
F0.19875000000000004
F0.0
F0.5151027637705995
F1.5707963267948966
tp1349
aF-1.0
aF0.0
ag1
(g20
g3
Ntp1350
Rp1351
(lp1352
g1
(g24
g3
Ntp1353
Rp1354
(lp1355
I0
ag1
(g28
g3
Ntp1356
Rp1357
(lp1358
I0
aI0
abaS'shadowhandnew'
p1359
abag1
(g33
g3
Ntp1360
Rp1361
(lp1362
F0.960429138778732
aF-0.1920858277557464
aF0.2016901191435337
abababag1
(g2
g3
Ntp1363
Rp1364
(lp1365
I0
ag1
(g7
g3
Ntp1366
Rp1367
(lp1368
g1
(g11
g3
Ntp1369
Rp1370
(lp1371
F0.15877310663954636
aF0.011058554635838526
aF0.009875304439640758
abag1
(g15
g3
Ntp1372
Rp1373
(lp1374
F0.2148876164694694
aF-0.21491193884934162
aF0.9514621638946065
aF0.04853783580960447
ababa(F-0.3490658503988659
F0.7252751060568183
F1.5707963267948966
F0.4995000000000004
F-0.3490658503988659
F0.6050000000000003
F1.5707963267948966
F1.5707963267948966
F-0.3490658503988659
F1.5707963267948966
F0.6871281357042529
F0.4995000000000004
F1.0471975511965976
F1.2217304763960306
F0.0
F0.02007900334185989
F1.5707963267948966
tp1375
aF-1.0
aF0.0
ag1
(g20
g3
Ntp1376
Rp1377
(lp1378
g1
(g24
g3
Ntp1379
Rp1380
(lp1381
I0
ag1
(g28
g3
Ntp1382
Rp1383
(lp1384
I0
aI0
abaS'shadowhandnew'
p1385
abag1
(g33
g3
Ntp1386
Rp1387
(lp1388
F0.960429138778732
aF-0.1920858277557464
aF0.2016901191435337
abababag1
(g2
g3
Ntp1389
Rp1390
(lp1391
I0
ag1
(g7
g3
Ntp1392
Rp1393
(lp1394
g1
(g11
g3
Ntp1395
Rp1396
(lp1397
F0.06823066392374973
aF0.0639469220071824
aF0.10161012941795793
abag1
(g15
g3
Ntp1398
Rp1399
(lp1400
F-0.3640326147913419
aF0.12621393352945232
aF0.9214466838857339
aF0.049862883061310995
ababa(F-0.3490658503988659
F1.5463316728169607
F0.6228344259022631
F1.5707963267948966
F-0.3490658503988659
F1.495000000000001
F0.4985000000000004
F1.5707963267948966
F-0.3490658503988659
F1.5707963267948966
F1.5707963267948966
F1.509046637213611
F1.0471975511965976
F0.23500000000000007
F0.0
F0.5235987755982988
F1.3247558873106122
tp1401
aF-1.0
aF0.0
ag1
(g20
g3
Ntp1402
Rp1403
(lp1404
g1
(g24
g3
Ntp1405
Rp1406
(lp1407
I0
ag1
(g28
g3
Ntp1408
Rp1409
(lp1410
I0
aI0
abaS'shadowhandnew'
p1411
abag1
(g33
g3
Ntp1412
Rp1413
(lp1414
F0.960429138778732
aF-0.1920858277557464
aF0.2016901191435337
abababag1
(g2
g3
Ntp1415
Rp1416
(lp1417
I0
ag1
(g7
g3
Ntp1418
Rp1419
(lp1420
g1
(g11
g3
Ntp1421
Rp1422
(lp1423
F0.12726528784456762
aF0.08913012340047809
aF0.08858616111750839
abag1
(g15
g3
Ntp1424
Rp1425
(lp1426
F-0.052733403850646
aF0.22431184070757063
aF0.9730136682453838
aF0.012156794164921244
ababa(F-0.3490658503988659
F1.54569748903017
F0.4985000000000004
F1.5707963267948966
F-0.3490658503988659
F1.495000000000001
F0.4985000000000004
F0.8038871027978589
F-0.03724520573107408
F1.5707963267948966
F1.5707963267948966
F1.5707963267948966
F1.0471975511965976
F0.19500000000000003
F0.0
F0.5235987755982988
F1.5707963267948966
tp1427
aF-1.0
aF0.0
ag1
(g20
g3
Ntp1428
Rp1429
(lp1430
g1
(g24
g3
Ntp1431
Rp1432
(lp1433
I0
ag1
(g28
g3
Ntp1434
Rp1435
(lp1436
I0
aI0
abaS'shadowhandnew'
p1437
abag1
(g33
g3
Ntp1438
Rp1439
(lp1440
F0.960429138778732
aF-0.1920858277557464
aF0.2016901191435337
abababag1
(g2
g3
Ntp1441
Rp1442
(lp1443
I0
ag1
(g7
g3
Ntp1444
Rp1445
(lp1446
g1
(g11
g3
Ntp1447
Rp1448
(lp1449
F0.1137300075250624
aF0.03412920360769557
aF-0.04488277006963839
abag1
(g15
g3
Ntp1450
Rp1451
(lp1452
F0.1434554858168487
aF0.03496724622582652
aF0.9890258293280787
aF-0.005071903226643971
ababa(F-0.3490658503988659
F1.546951517186838
F1.5707963267948966
F0.46315092474759656
F-0.3490658503988659
F0.3150000000000001
F0.4975000000000004
F1.3873639829690727
F-0.3490658503988659
F0.20500000000000004
F1.5707963267948966
F1.5707963267948966
F1.0471975511965976
F0.19500000000000003
F0.0
F0.5235987755982988
F1.5707963267948966
tp1453
aF-1.0
aF0.02782103955794813
ag1
(g20
g3
Ntp1454
Rp1455
(lp1456
g1
(g24
g3
Ntp1457
Rp1458
(lp1459
I0
ag1
(g28
g3
Ntp1460
Rp1461
(lp1462
I0
aI0
abaS'shadowhandnew'
p1463
abag1
(g33
g3
Ntp1464
Rp1465
(lp1466
F0.960429138778732
aF-0.1920858277557464
aF0.2016901191435337
abababag1
(g2
g3
Ntp1467
Rp1468
(lp1469
I0
ag1
(g7
g3
Ntp1470
Rp1471
(lp1472
g1
(g11
g3
Ntp1473
Rp1474
(lp1475
F0.07712643068602688
aF0.006984711364468872
aF-0.09420009857472231
abag1
(g15
g3
Ntp1476
Rp1477
(lp1478
F0.368869682230439
aF0.40681531053150743
aF0.8152000363851372
aF-0.184079768921083
ababa(F-0.3490658503988659
F0.5326928639418812
F0.6802166448083898
F0.09162500000000007
F-0.3490658503988659
F0.13624999999999998
F1.5707963267948966
F0.8562270645595371
F-0.3490658503988659
F1.5707963267948966
F0.4536250000000004
F0.4536250000000004
F1.0471975511965976
F1.2217304763960306
F0.0
F-0.49109877559829873
F0.0325
tp1479
aF-1.0
aF0.02059502535885717
ag1
(g20
g3
Ntp1480
Rp1481
(lp1482
g1
(g24
g3
Ntp1483
Rp1484
(lp1485
I0
ag1
(g28
g3
Ntp1486
Rp1487
(lp1488
I0
aI0
abaS'shadowhandnew'
p1489
abag1
(g33
g3
Ntp1490
Rp1491
(lp1492
F0.960429138778732
aF-0.1920858277557464
aF0.2016901191435337
abababag1
(g2
g3
Ntp1493
Rp1494
(lp1495
I0
ag1
(g7
g3
Ntp1496
Rp1497
(lp1498
g1
(g11
g3
Ntp1499
Rp1500
(lp1501
F0.12216037196611378
aF0.08452307870898716
aF0.04009480750546808
abag1
(g15
g3
Ntp1502
Rp1503
(lp1504
F0.025081816994038452
aF0.3861343499988851
aF0.9220416672627368
aF-0.010503810668920983
ababa(F-0.3490658503988659
F1.545000000000001
F1.5707963267948966
F1.5707963267948966
F-0.3490658503988659
F1.4999521758047647
F1.5707963267948966
F0.9415682090809271
F-0.3490658503988659
F1.5707963267948966
F0.3895000000000003
F0.3895000000000003
F0.16780244880340317
F1.2150000000000007
F0.0
F0.5235987755982988
F1.2150000000000007
tp1505
aF-1.0
aF0.0
ag1
(g20
g3
Ntp1506
Rp1507
(lp1508
g1
(g24
g3
Ntp1509
Rp1510
(lp1511
I0
ag1
(g28
g3
Ntp1512
Rp1513
(lp1514
I0
aI0
abaS'shadowhandnew'
p1515
abag1
(g33
g3
Ntp1516
Rp1517
(lp1518
F0.960429138778732
aF-0.1920858277557464
aF0.2016901191435337
abababag1
(g2
g3
Ntp1519
Rp1520
(lp1521
I0
ag1
(g7
g3
Ntp1522
Rp1523
(lp1524
g1
(g11
g3
Ntp1525
Rp1526
(lp1527
F0.13047206167761827
aF0.09724801198335654
aF0.003854910792175048
abag1
(g15
g3
Ntp1528
Rp1529
(lp1530
F0.14551960972782574
aF0.4719192881566151
aF0.8659253474342519
aF-0.07930650238968576
ababa(F-0.3490658503988659
F1.541576520273891
F1.1607437949613886
F1.5707963267948966
F-0.3490658503988659
F1.502687384502876
F0.4875000000000004
F0.4965000000000004
F-0.3490658503988659
F1.5707963267948966
F0.4965000000000004
F0.4965000000000004
F0.5978024488034035
F1.2217304763960306
F0.0
F0.5235987755982988
F1.5707963267948966
tp1531
aF-1.0
aF0.0
ag1
(g20
g3
Ntp1532
Rp1533
(lp1534
g1
(g24
g3
Ntp1535
Rp1536
(lp1537
I0
ag1
(g28
g3
Ntp1538
Rp1539
(lp1540
I0
aI0
abaS'shadowhandnew'
p1541
abag1
(g33
g3
Ntp1542
Rp1543
(lp1544
F0.960429138778732
aF-0.1920858277557464
aF0.2016901191435337
abababag1
(g2
g3
Ntp1545
Rp1546
(lp1547
I0
ag1
(g7
g3
Ntp1548
Rp1549
(lp1550
g1
(g11
g3
Ntp1551
Rp1552
(lp1553
F0.1362107272035397
aF0.08647548009190328
aF0.05004024664451909
abag1
(g15
g3
Ntp1554
Rp1555
(lp1556
F0.10906521645330106
aF0.27952151448950097
aF0.9533886941859434
aF-0.03197654290119589
ababa(F-0.3490658503988659
F1.545000000000001
F1.5707963267948966
F1.5707963267948966
F-0.3490658503988659
F1.5011611198585877
F1.5707963267948966
F0.4985000000000004
F-0.3490658503988659
F1.5707963267948966
F1.5707963267948966
F1.3377429203553692
F1.0471975511965976
F0.19500000000000003
F0.0
F0.5235987755982988
F1.5707963267948966
tp1557
aF-1.0
aF0.0
ag1
(g20
g3
Ntp1558
Rp1559
(lp1560
g1
(g24
g3
Ntp1561
Rp1562
(lp1563
I0
ag1
(g28
g3
Ntp1564
Rp1565
(lp1566
I0
aI0
abaS'shadowhandnew'
p1567
abag1
(g33
g3
Ntp1568
Rp1569
(lp1570
F0.960429138778732
aF-0.1920858277557464
aF0.2016901191435337
abababag1
(g2
g3
Ntp1571
Rp1572
(lp1573
I0
ag1
(g7
g3
Ntp1574
Rp1575
(lp1576
g1
(g11
g3
Ntp1577
Rp1578
(lp1579
F0.1572688236458618
aF0.03563928633705539
aF0.0015500636945997286
abag1
(g15
g3
Ntp1580
Rp1581
(lp1582
F0.32790896327775537
aF0.005554649894310121
aF0.9446910289917053
aF-0.0019280584152028797
ababa(F-0.29599127766948125
F1.5452133077883594
F1.5707963267948966
F1.5707963267948966
F-0.3490658503988659
F1.5010791702228976
F1.5707963267948966
F0.4977500000000004
F-0.15430911276235734
F1.5707963267948966
F1.5707963267948966
F0.9280477770684006
F1.0471975511965976
F0.4075000000000002
F0.0
F-0.11609877559829848
F1.5707963267948966
tp1583
aF-1.0
aF0.0
ag1
(g20
g3
Ntp1584
Rp1585
(lp1586
g1
(g24
g3
Ntp1587
Rp1588
(lp1589
I0
ag1
(g28
g3
Ntp1590
Rp1591
(lp1592
I0
aI0
abaS'shadowhandnew'
p1593
abag1
(g33
g3
Ntp1594
Rp1595
(lp1596
F0.960429138778732
aF-0.1920858277557464
aF0.2016901191435337
abababag1
(g2
g3
Ntp1597
Rp1598
(lp1599
I0
ag1
(g7
g3
Ntp1600
Rp1601
(lp1602
g1
(g11
g3
Ntp1603
Rp1604
(lp1605
F0.10973493047924726
aF0.09729465123071611
aF0.055386455671041175
abag1
(g15
g3
Ntp1606
Rp1607
(lp1608
F-0.06924887273885205
aF0.4715165834347793
aF0.8783477523923718
aF0.037174333049294565
ababa(F-0.3490658503988659
F1.5500000000000012
F0.4980000000000004
F1.5707963267948966
F-0.3490658503988659
F1.500000000000001
F0.4980000000000004
F1.5707963267948966
F-0.3490658503988659
F1.5707963267948966
F1.5707963267948966
F0.3145336843912965
F0.22401201094192913
F1.2217304763960306
F0.0
F-0.20359877559829853
F1.5707963267948966
tp1609
aF-1.0
aF0.0
ag1
(g20
g3
Ntp1610
Rp1611
(lp1612
g1
(g24
g3
Ntp1613
Rp1614
(lp1615
I0
ag1
(g28
g3
Ntp1616
Rp1617
(lp1618
I0
aI0
abaS'shadowhandnew'
p1619
abag1
(g33
g3
Ntp1620
Rp1621
(lp1622
F0.960429138778732
aF-0.1920858277557464
aF0.2016901191435337
abababag1
(g2
g3
Ntp1623
Rp1624
(lp1625
I0
ag1
(g7
g3
Ntp1626
Rp1627
(lp1628
g1
(g11
g3
Ntp1629
Rp1630
(lp1631
F0.06896009760710953
aF0.015563165219210542
aF0.0764500031846277
abag1
(g15
g3
Ntp1632
Rp1633
(lp1634
F-0.4053597067849429
aF-0.29405830026412627
aF0.8542497706521005
aF-0.13953692522709468
ababa(F-0.3490658503988659
F0.16
F0.4982500000000004
F1.5707963267948966
F-0.11932624399567762
F1.2071892584170167
F0.43025000000000035
F1.5707963267948966
F-0.3490658503988659
F1.5707963267948966
F1.5707963267948966
F0.9871653538235239
F0.22530244880340322
F1.2217304763960306
F0.0
F0.5235987755982988
F1.2725000000000009
tp1635
aF-1.0
aF0.0
ag1
(g20
g3
Ntp1636
Rp1637
(lp1638
g1
(g24
g3
Ntp1639
Rp1640
(lp1641
I0
ag1
(g28
g3
Ntp1642
Rp1643
(lp1644
I0
aI0
abaS'shadowhandnew'
p1645
abag1
(g33
g3
Ntp1646
Rp1647
(lp1648
F0.960429138778732
aF-0.1920858277557464
aF0.2016901191435337
abababag1
(g2
g3
Ntp1649
Rp1650
(lp1651
I0
ag1
(g7
g3
Ntp1652
Rp1653
(lp1654
g1
(g11
g3
Ntp1655
Rp1656
(lp1657
F0.1369755628730435
aF0.07463918999629812
aF0.0534675149069794
abag1
(g15
g3
Ntp1658
Rp1659
(lp1660
F0.11079843512274394
aF0.21536887358912607
aF0.9699147702786785
aF-0.02460271242283173
ababa(F-0.3490658503988659
F1.545000000000001
F1.5707963267948966
F1.5707963267948966
F-0.3490658503988659
F1.501134591039662
F1.5707963267948966
F0.4985000000000004
F-0.3490658503988659
F1.5707963267948966
F1.5707963267948966
F1.3338044936617985
F1.0471975511965976
F0.19500000000000003
F0.0
F0.5235987755982988
F1.5707963267948966
tp1661
aF-1.0
aF0.0
ag1
(g20
g3
Ntp1662
Rp1663
(lp1664
g1
(g24
g3
Ntp1665
Rp1666
(lp1667
I0
ag1
(g28
g3
Ntp1668
Rp1669
(lp1670
I0
aI0
abaS'shadowhandnew'
p1671
abag1
(g33
g3
Ntp1672
Rp1673
(lp1674
F0.960429138778732
aF-0.1920858277557464
aF0.2016901191435337
abababag1
(g2
g3
Ntp1675
Rp1676
(lp1677
I0
ag1
(g7
g3
Ntp1678
Rp1679
(lp1680
g1
(g11
g3
Ntp1681
Rp1682
(lp1683
F0.1546139300134958
aF0.021317457497469956
aF0.0022499229527691116
abag1
(g15
g3
Ntp1684
Rp1685
(lp1686
F0.3144366428916692
aF-0.06621412877104707
aF0.9467109563802408
aF0.021992085569993592
ababa(F0.3490658503988659
F1.5463622835419628
F1.5707963267948966
F1.5707963267948966
F-0.3490658503988659
F0.9350000000000006
F1.5707963267948966
F0.4820125332488782
F-0.3490658503988659
F1.5707963267948966
F1.5707963267948966
F0.4975000000000004
F1.0471975511965976
F0.18000000000000002
F0.0
F0.1464012244017015
F1.5707963267948966
tp1687
aF-1.0
aF1.2192378722886825e-05
ag1
(g20
g3
Ntp1688
Rp1689
(lp1690
g1
(g24
g3
Ntp1691
Rp1692
(lp1693
I0
ag1
(g28
g3
Ntp1694
Rp1695
(lp1696
I0
aI0
abaS'shadowhandnew'
p1697
abag1
(g33
g3
Ntp1698
Rp1699
(lp1700
F0.960429138778732
aF-0.1920858277557464
aF0.2016901191435337
abababag1
(g2
g3
Ntp1701
Rp1702
(lp1703
I0
ag1
(g7
g3
Ntp1704
Rp1705
(lp1706
g1
(g11
g3
Ntp1707
Rp1708
(lp1709
F0.06175002326634152
aF0.025719729354656284
aF-0.10343612696340147
abag1
(g15
g3
Ntp1710
Rp1711
(lp1712
F0.4686967277579215
aF0.199071593185516
aF0.8536672683702116
aF-0.10929809279643608
ababa(F-0.3490658503988659
F0.042499999999999996
F1.047261997003969
F0.00425
F-0.3490658503988659
F0.5209209291346399
F0.09625000000000007
F1.5707963267948966
F-0.3490658503988659
F0.4125000000000002
F1.5707963267948966
F0.04125000000000003
F0.6263581386391801
F1.0615247286852174
F0.0
F-0.43359877559829874
F0.09
tp1713
aF-1.0
aF0.16295010833705278
ag1
(g20
g3
Ntp1714
Rp1715
(lp1716
g1
(g24
g3
Ntp1717
Rp1718
(lp1719
I0
ag1
(g28
g3
Ntp1720
Rp1721
(lp1722
I0
aI0
abaS'shadowhandnew'
p1723
abag1
(g33
g3
Ntp1724
Rp1725
(lp1726
F0.960429138778732
aF-0.1920858277557464
aF0.2016901191435337
abababag1
(g2
g3
Ntp1727
Rp1728
(lp1729
I0
ag1
(g7
g3
Ntp1730
Rp1731
(lp1732
g1
(g11
g3
Ntp1733
Rp1734
(lp1735
F0.11970073993925189
aF0.02730659641071023
aF-0.0007294943343502141
abag1
(g15
g3
Ntp1736
Rp1737
(lp1738
F-0.1289029513962992
aF0.17933037747752884
aF0.9750192579022077
aF0.023708470109196956
ababa(F-0.3490658503988659
F0.9625000000000006
F0.09625000000000007
F1.5707963267948966
F-0.3490658503988659
F1.231477952919898
F0.0035
F1.5707963267948966
F-0.10050432546539975
F0.4950000000000003
F1.5707963267948966
F0.4982500000000004
F1.0471975511965976
F0.3150000000000001
F0.0
F0.5235987755982988
F0.4950000000000003
tp1739
aF-1.0
aF0.0
ag1
(g20
g3
Ntp1740
Rp1741
(lp1742
g1
(g24
g3
Ntp1743
Rp1744
(lp1745
I0
ag1
(g28
g3
Ntp1746
Rp1747
(lp1748
I0
aI0
abaS'shadowhandnew'
p1749
abag1
(g33
g3
Ntp1750
Rp1751
(lp1752
F0.960429138778732
aF-0.1920858277557464
aF0.2016901191435337
abababag1
(g2
g3
Ntp1753
Rp1754
(lp1755
I0
ag1
(g7
g3
Ntp1756
Rp1757
(lp1758
g1
(g11
g3
Ntp1759
Rp1760
(lp1761
F0.12112287798004925
aF0.016199357863963416
aF0.004340435997364665
abag1
(g15
g3
Ntp1762
Rp1763
(lp1764
F-0.19662357307676484
aF0.2571523354487729
aF0.9446411424218111
aF0.05352531109469186
ababa(F-0.3490658503988659
F0.5137500000000002
F1.2455888350113529
F1.5707963267948966
F-0.3490658503988659
F0.7051204232199145
F1.4698069240620433
F0.03212500000000002
F-0.3490658503988659
F1.2980116838586433
F0.006
F1.5707963267948966
F-0.8871975511965975
F1.2217304763960306
F0.0
F0.5235987755982988
F1.1165755432437012
tp1765
aF-1.0
aF0.36942008963734035
ag1
(g20
g3
Ntp1766
Rp1767
(lp1768
g1
(g24
g3
Ntp1769
Rp1770
(lp1771
I0
ag1
(g28
g3
Ntp1772
Rp1773
(lp1774
I0
aI0
abaS'shadowhandnew'
p1775
abag1
(g33
g3
Ntp1776
Rp1777
(lp1778
F0.960429138778732
aF-0.1920858277557464
aF0.2016901191435337
abababag1
(g2
g3
Ntp1779
Rp1780
(lp1781
I0
ag1
(g7
g3
Ntp1782
Rp1783
(lp1784
g1
(g11
g3
Ntp1785
Rp1786
(lp1787
F0.08691282164621236
aF0.007562330407771235
aF0.06382775929167059
abag1
(g15
g3
Ntp1788
Rp1789
(lp1790
F-0.2990475141994682
aF-0.363877669321656
aF0.8732909808833546
aF-0.12460533186002518
ababa(F-0.3490658503988659
F1.542500000000001
F0.7482786509638236
F0.4982500000000004
F-0.3490658503988659
F1.502500000000001
F0.4982500000000004
F1.5707963267948966
F-0.3166266480468255
F1.5707963267948966
F1.5707963267948966
F0.4982500000000004
F-0.26469755119659694
F0.7825000000000005
F0.0
F0.5235987755982988
F1.465573672213321
tp1791
aF-1.0
aF0.0
ag1
(g20
g3
Ntp1792
Rp1793
(lp1794
g1
(g24
g3
Ntp1795
Rp1796
(lp1797
I0
ag1
(g28
g3
Ntp1798
Rp1799
(lp1800
I0
aI0
abaS'shadowhandnew'
p1801
abag1
(g33
g3
Ntp1802
Rp1803
(lp1804
F0.960429138778732
aF-0.1920858277557464
aF0.2016901191435337
abababag1
(g2
g3
Ntp1805
Rp1806
(lp1807
I0
ag1
(g7
g3
Ntp1808
Rp1809
(lp1810
g1
(g11
g3
Ntp1811
Rp1812
(lp1813
F0.157937028660453
aF0.04807765495303157
aF0.006767235489782039
abag1
(g15
g3
Ntp1814
Rp1815
(lp1816
F0.3142458580264348
aF0.0661550252279109
aF0.946779234985344
aF-0.02195753972765057
ababa(F0.3490658503988659
F1.5449447640322034
F1.5707963267948966
F1.5707963267948966
F-0.3490658503988659
F1.0987500000000008
F1.5707963267948966
F0.10987500000000008
F-0.3490658503988659
F1.5707963267948966
F1.5707963267948966
F0.4988750000000004
F1.0471975511965976
F0.4062500000000002
F0.0
F-0.11734877559829848
F1.5707963267948966
tp1817
aF-1.0
aF0.0
ag1
(g20
g3
Ntp1818
Rp1819
(lp1820
g1
(g24
g3
Ntp1821
Rp1822
(lp1823
I0
ag1
(g28
g3
Ntp1824
Rp1825
(lp1826
I0
aI0
abaS'shadowhandnew'
p1827
abag1
(g33
g3
Ntp1828
Rp1829
(lp1830
F0.960429138778732
aF-0.1920858277557464
aF0.2016901191435337
abababag1
(g2
g3
Ntp1831
Rp1832
(lp1833
I0
ag1
(g7
g3
Ntp1834
Rp1835
(lp1836
g1
(g11
g3
Ntp1837
Rp1838
(lp1839
F0.10901178818551582
aF0.0749426512550331
aF0.08174647188101043
abag1
(g15
g3
Ntp1840
Rp1841
(lp1842
F-0.05583365225702368
aF0.23661016929666195
aF0.9699034520515882
aF0.013620747389898612
ababa(F-0.3490658503988659
F1.545000000000001
F1.5707963267948966
F1.5707963267948966
F-0.3490658503988659
F1.4975464846546274
F1.5707963267948966
F0.4985000000000004
F-0.3490658503988659
F1.5707963267948966
F1.5707963267948966
F1.406980964281677
F1.0471975511965976
F0.19500000000000003
F0.0
F0.5235987755982988
F1.5707963267948966
tp1843
aF-1.0
aF0.0
ag1
(g20
g3
Ntp1844
Rp1845
(lp1846
g1
(g24
g3
Ntp1847
Rp1848
(lp1849
I0
ag1
(g28
g3
Ntp1850
Rp1851
(lp1852
I0
aI0
abaS'shadowhandnew'
p1853
abag1
(g33
g3
Ntp1854
Rp1855
(lp1856
F0.960429138778732
aF-0.1920858277557464
aF0.2016901191435337
abababag1
(g2
g3
Ntp1857
Rp1858
(lp1859
I0
ag1
(g7
g3
Ntp1860
Rp1861
(lp1862
g1
(g11
g3
Ntp1863
Rp1864
(lp1865
F0.11399372235295549
aF0.0845770066202606
aF0.07102633792165951
abag1
(g15
g3
Ntp1866
Rp1867
(lp1868
F-0.030886574899324632
aF0.30431801032839195
aF0.952018429781573
aF0.009873066240301534
ababa(F-0.3490658503988659
F1.545000000000001
F0.4985000000000004
F0.4985000000000004
F-0.3490658503988659
F1.4975076231912972
F1.023903600463134
F0.5889400398596603
F-0.3043925129716812
F1.5707963267948966
F1.5707963267948966
F0.9815900494225108
F1.0471975511965976
F0.19500000000000003
F0.0
F0.5235987755982988
F1.5707963267948966
tp1869
aF-1.0
aF0.0
ag1
(g20
g3
Ntp1870
Rp1871
(lp1872
g1
(g24
g3
Ntp1873
Rp1874
(lp1875
I0
ag1
(g28
g3
Ntp1876
Rp1877
(lp1878
I0
aI0
abaS'shadowhandnew'
p1879
abag1
(g33
g3
Ntp1880
Rp1881
(lp1882
F0.960429138778732
aF-0.1920858277557464
aF0.2016901191435337
abababag1
(g2
g3
Ntp1883
Rp1884
(lp1885
I0
ag1
(g7
g3
Ntp1886
Rp1887
(lp1888
g1
(g11
g3
Ntp1889
Rp1890
(lp1891
F0.12416227635364373
aF0.015224862472298617
aF-0.05845534878094625
abag1
(g15
g3
Ntp1892
Rp1893
(lp1894
F0.20541642007461194
aF0.11587019175264993
aF0.9714823347576839
aF-0.0245003322568135
ababa(F0.3048411395501522
F1.1107993491665187
F1.5707963267948966
F0.9671993932692913
F0.05913682677756954
F0.0125
F0.4975000000000004
F1.5707963267948966
F-0.3490658503988659
F0.3750000000000002
F0.4315000000000003
F1.5707963267948966
F1.0471975511965976
F0.32755385402230414
F0.0
F-0.22109877559829844
F0.3025000000000001
tp1895
aF-1.0
aF0.21937766250380913
ag1
(g20
g3
Ntp1896
Rp1897
(lp1898
g1
(g24
g3
Ntp1899
Rp1900
(lp1901
I0
ag1
(g28
g3
Ntp1902
Rp1903
(lp1904
I0
aI0
abaS'shadowhandnew'
p1905
abag1
(g33
g3
Ntp1906
Rp1907
(lp1908
F0.960429138778732
aF-0.1920858277557464
aF0.2016901191435337
abababag1
(g2
g3
Ntp1909
Rp1910
(lp1911
I0
ag1
(g7
g3
Ntp1912
Rp1913
(lp1914
g1
(g11
g3
Ntp1915
Rp1916
(lp1917
F0.1200847605240131
aF-0.008388629774559796
aF-0.06953029953477088
abag1
(g15
g3
Ntp1918
Rp1919
(lp1920
F0.1765660789939853
aF0.34460572409479245
aF0.9196160121979844
aF-0.0661642258238552
ababa(F-0.3490658503988659
F0.09374999999999999
F0.9416106134016861
F1.0398977930706343
F-0.3490658503988659
F0.3521012079366353
F0.7654791541063182
F1.5575140330431048
F-0.2932453756152839
F1.388750000000001
F0.7554988788063951
F1.5313674475899124
F0.5672002819114118
F1.2217304763960306
F0.0
F-0.49609877559829874
F0.027500000000000004
tp1921
aF-1.0
aF0.04024440795944949
ag1
(g20
g3
Ntp1922
Rp1923
(lp1924
g1
(g24
g3
Ntp1925
Rp1926
(lp1927
I0
ag1
(g28
g3
Ntp1928
Rp1929
(lp1930
I0
aI0
abaS'shadowhandnew'
p1931
abag1
(g33
g3
Ntp1932
Rp1933
(lp1934
F0.960429138778732
aF-0.1920858277557464
aF0.2016901191435337
abababag1
(g2
g3
Ntp1935
Rp1936
(lp1937
I0
ag1
(g7
g3
Ntp1938
Rp1939
(lp1940
g1
(g11
g3
Ntp1941
Rp1942
(lp1943
F0.08552129636545297
aF0.007431120555140005
aF-0.10023781559740653
abag1
(g15
g3
Ntp1944
Rp1945
(lp1946
F0.41705625417526593
aF0.19275868863019383
aF0.8835322710083163
aF-0.0909884327689581
ababa(F-0.3490658503988659
F0.19375000000000003
F0.01937500000000001
F0.8744567149113521
F-0.3490658503988659
F0.15158447447076748
F0.2603750000000002
F1.5707963267948966
F-0.3490658503988659
F0.0075
F1.5707963267948966
F0.00075
F0.5868069764442815
F1.2217304763960306
F0.0
F-0.49984877559829877
F0.02375
tp1947
aF-1.0
aF0.14273184817958
ag1
(g20
g3
Ntp1948
Rp1949
(lp1950
g1
(g24
g3
Ntp1951
Rp1952
(lp1953
I0
ag1
(g28
g3
Ntp1954
Rp1955
(lp1956
I0
aI0
abaS'shadowhandnew'
p1957
abag1
(g33
g3
Ntp1958
Rp1959
(lp1960
F0.960429138778732
aF-0.1920858277557464
aF0.2016901191435337
abababag1
(g2
g3
Ntp1961
Rp1962
(lp1963
I0
ag1
(g7
g3
Ntp1964
Rp1965
(lp1966
g1
(g11
g3
Ntp1967
Rp1968
(lp1969
F0.13624280127808736
aF0.025502352143628507
aF-0.002627979816060588
abag1
(g15
g3
Ntp1970
Rp1971
(lp1972
F0.0312843180733475
aF0.4023076013509907
aF0.914866453230393
aF-0.013757110581056949
ababa(F-0.3490658503988659
F0.04
F0.004
F1.5707963267948966
F-0.3490658503988659
F0.36500000000000016
F1.2968135511892744
F0.4970000000000004
F-0.3490658503988659
F0.45500000000000024
F1.5707963267948966
F1.5707963267948966
F-0.25852049328275417
F1.2217304763960306
F0.0
F0.5235987755982988
F0.6400000000000003
tp1973
aF-1.0
aF0.07845065286097909
ag1
(g20
g3
Ntp1974
Rp1975
(lp1976
g1
(g24
g3
Ntp1977
Rp1978
(lp1979
I0
ag1
(g28
g3
Ntp1980
Rp1981
(lp1982
I0
aI0
abaS'shadowhandnew'
p1983
abag1
(g33
g3
Ntp1984
Rp1985
(lp1986
F0.960429138778732
aF-0.1920858277557464
aF0.2016901191435337
abababag1
(g2
g3
Ntp1987
Rp1988
(lp1989
I0
ag1
(g7
g3
Ntp1990
Rp1991
(lp1992
g1
(g11
g3
Ntp1993
Rp1994
(lp1995
F0.1314965262503571
aF-0.014072138702627676
aF0.019151775477028492
abag1
(g15
g3
Ntp1996
Rp1997
(lp1998
F-0.20369147537130705
aF0.4289162550714471
aF0.8743896023216025
aF0.09991722748563207
ababa(F-0.3490658503988659
F0.4500000000000003
F1.1795418328174037
F0.38990607398230387
F-0.3490658503988659
F0.7132683496238639
F1.5707963267948966
F0.026500000000000017
F0.1932114980031864
F1.5707963267948966
F1.5707963267948966
F0.5000000000000003
F-0.9584475511965975
F1.2217304763960306
F0.0
F0.5235987755982988
F1.377003939345288
tp1999
aF-1.0
aF0.0010751921983471215
ag1
(g20
g3
Ntp2000
Rp2001
(lp2002
g1
(g24
g3
Ntp2003
Rp2004
(lp2005
I0
ag1
(g28
g3
Ntp2006
Rp2007
(lp2008
I0
aI0
abaS'shadowhandnew'
p2009
abag1
(g33
g3
Ntp2010
Rp2011
(lp2012
F0.960429138778732
aF-0.1920858277557464
aF0.2016901191435337
abababag1
(g2
g3
Ntp2013
Rp2014
(lp2015
I0
ag1
(g7
g3
Ntp2016
Rp2017
(lp2018
g1
(g11
g3
Ntp2019
Rp2020
(lp2021
F0.14027948878419408
aF0.002147655001703738
aF-0.020334677636049178
abag1
(g15
g3
Ntp2022
Rp2023
(lp2024
F-0.11629314550092178
aF0.19371555013122552
aF0.9738660509873045
aF0.02313232978433026
ababa(F-0.3490658503988659
F0.5137500000000003
F0.3584592608743214
F1.5707963267948966
F-0.3490658503988659
F1.0770182861170383
F0.07050000000000005
F0.1245000000000001
F-0.3490658503988659
F1.5707963267948966
F1.5707963267948966
F1.102704246404728
F-0.9884475511965976
F1.2217304763960306
F0.0
F0.5235987755982988
F1.3631869930617688
tp2025
aF-1.0
aF0.1760412178634773
ag1
(g20
g3
Ntp2026
Rp2027
(lp2028
g1
(g24
g3
Ntp2029
Rp2030
(lp2031
I0
ag1
(g28
g3
Ntp2032
Rp2033
(lp2034
I0
aI0
abaS'shadowhandnew'
p2035
abag1
(g33
g3
Ntp2036
Rp2037
(lp2038
F0.960429138778732
aF-0.1920858277557464
aF0.2016901191435337
abababag1
(g2
g3
Ntp2039
Rp2040
(lp2041
I0
ag1
(g7
g3
Ntp2042
Rp2043
(lp2044
g1
(g11
g3
Ntp2045
Rp2046
(lp2047
F0.12806340841237351
aF-0.00010201278074299936
aF0.02552788451496126
abag1
(g15
g3
Ntp2048
Rp2049
(lp2050
F-0.1619293746040748
aF0.485868900830295
aF0.8539448523013592
aF0.09213293696775374
ababa(F-0.3490658503988659
F0.19250000000000003
F1.5707963267948966
F0.01925000000000001
F-0.3490658503988659
F0.9529540959200018
F1.5707963267948966
F1.5707963267948966
F-0.3490658503988659
F0.3025000000000001
F1.5707963267948966
F0.4985000000000004
F1.0471975511965976
F0.3025000000000001
F0.0
F0.5235987755982988
F0.3025000000000001
tp2051
aF-1.0
aF0.001126935593836436
ag1
(g20
g3
Ntp2052
Rp2053
(lp2054
g1
(g24
g3
Ntp2055
Rp2056
(lp2057
I0
ag1
(g28
g3
Ntp2058
Rp2059
(lp2060
I0
aI0
abaS'shadowhandnew'
p2061
abag1
(g33
g3
Ntp2062
Rp2063
(lp2064
F0.960429138778732
aF-0.1920858277557464
aF0.2016901191435337
abababag1
(g2
g3
Ntp2065
Rp2066
(lp2067
I0
ag1
(g7
g3
Ntp2068
Rp2069
(lp2070
g1
(g11
g3
Ntp2071
Rp2072
(lp2073
F0.0678624316954618
aF0.009943862624149716
aF0.08008368524596858
abag1
(g15
g3
Ntp2074
Rp2075
(lp2076
F-0.38245455142103996
aF-0.22840551989552477
aF0.8899008903711719
aF-0.09816231402723649
ababa(F-0.3490658503988659
F1.545000000000001
F0.4985000000000004
F1.5707963267948966
F-0.3490658503988659
F1.495000000000001
F0.4985000000000004
F0.4985000000000004
F-0.3490658503988659
F1.5707963267948966
F1.5707963267948966
F1.1392852390059427
F1.0471975511965976
F0.19500000000000003
F0.0
F0.5235987755982988
F1.5707963267948966
tp2077
aF-1.0
aF0.0
ag1
(g20
g3
Ntp2078
Rp2079
(lp2080
g1
(g24
g3
Ntp2081
Rp2082
(lp2083
I0
ag1
(g28
g3
Ntp2084
Rp2085
(lp2086
I0
aI0
abaS'shadowhandnew'
p2087
abag1
(g33
g3
Ntp2088
Rp2089
(lp2090
F0.960429138778732
aF-0.1920858277557464
aF0.2016901191435337
abababag1
(g2
g3
Ntp2091
Rp2092
(lp2093
I0
ag1
(g7
g3
Ntp2094
Rp2095
(lp2096
g1
(g11
g3
Ntp2097
Rp2098
(lp2099
F0.09295251175057372
aF0.0022192582312844673
aF0.05799849812052278
abag1
(g15
g3
Ntp2100
Rp2101
(lp2102
F-0.27090712558318264
aF-0.3745347289562149
aF0.8792127877564025
aF-0.11540337932472902
ababa(F-0.3490658503988659
F1.5475000000000012
F1.1802776683466134
F1.5707963267948966
F-0.3490658503988659
F1.4975000000000012
F1.5707963267948966
F1.5707963267948966
F-0.3490658503988659
F1.5707963267948966
F1.5707963267948966
F0.8907634698227272
F0.5279925841150412
F0.3489098837869608
F0.0
F0.5235987755982988
F0.3075000000000001
tp2103
aF-1.0
aF0.0
ag1
(g20
g3
Ntp2104
Rp2105
(lp2106
g1
(g24
g3
Ntp2107
Rp2108
(lp2109
I0
ag1
(g28
g3
Ntp2110
Rp2111
(lp2112
I0
aI0
abaS'shadowhandnew'
p2113
abag1
(g33
g3
Ntp2114
Rp2115
(lp2116
F0.960429138778732
aF-0.1920858277557464
aF0.2016901191435337
abababag1
(g2
g3
Ntp2117
Rp2118
(lp2119
I0
ag1
(g7
g3
Ntp2120
Rp2121
(lp2122
g1
(g11
g3
Ntp2123
Rp2124
(lp2125
F0.06536141706139509
aF0.012168513240895433
aF-0.10305409450881292
abag1
(g15
g3
Ntp2126
Rp2127
(lp2128
F0.42290471025818366
aF0.2515026739412389
aF0.8617803100567638
aF-0.12342085820604583
ababa(F0.24648272431292892
F0.2500000000000001
F0.025000000000000015
F1.5707963267948966
F-0.3490658503988659
F0.15625
F1.132625305151138
F1.5707963267948966
F-0.3490658503988659
F0.9282277143251156
F0.1255148798090211
F1.5707963267948966
F0.8007614156737584
F1.2217304763960306
F0.0
F-0.49484877559829876
F0.028749999999999998
tp2129
aF-1.0
aF0.22249890861259267
ag1
(g20
g3
Ntp2130
Rp2131
(lp2132
g1
(g24
g3
Ntp2133
Rp2134
(lp2135
I0
ag1
(g28
g3
Ntp2136
Rp2137
(lp2138
I0
aI0
abaS'shadowhandnew'
p2139
abag1
(g33
g3
Ntp2140
Rp2141
(lp2142
F0.960429138778732
aF-0.1920858277557464
aF0.2016901191435337
abababag1
(g2
g3
Ntp2143
Rp2144
(lp2145
I0
ag1
(g7
g3
Ntp2146
Rp2147
(lp2148
g1
(g11
g3
Ntp2149
Rp2150
(lp2151
F0.04802577698483564
aF0.024223538511391404
aF0.08891938927185217
abag1
(g15
g3
Ntp2152
Rp2153
(lp2154
F-0.4747965802682364
aF-0.05524231760354713
aF0.8778517933463239
aF-0.029878464318302468
ababa(F-0.3490658503988659
F1.5481186732762664
F0.4980000000000004
F0.4980000000000004
F-0.3490658503988659
F1.500000000000001
F0.4980000000000004
F0.4980000000000004
F-0.3490658503988659
F1.5707963267948966
F1.5707963267948966
F0.7091095042210981
F0.10280244880340315
F1.2217304763960306
F0.0
F0.5235987755982988
F1.5707963267948966
tp2155
aF-1.0
aF0.0
ag1
(g20
g3
Ntp2156
Rp2157
(lp2158
g1
(g24
g3
Ntp2159
Rp2160
(lp2161
I0
ag1
(g28
g3
Ntp2162
Rp2163
(lp2164
I0
aI0
abaS'shadowhandnew'
p2165
abag1
(g33
g3
Ntp2166
Rp2167
(lp2168
F0.960429138778732
aF-0.1920858277557464
aF0.2016901191435337
abababag1
(g2
g3
Ntp2169
Rp2170
(lp2171
I0
ag1
(g7
g3
Ntp2172
Rp2173
(lp2174
g1
(g11
g3
Ntp2175
Rp2176
(lp2177
F0.07373899801434888
aF0.03007743429872285
aF0.08889130512069512
abag1
(g15
g3
Ntp2178
Rp2179
(lp2180
F-0.28116507645630706
aF0.014862925090723749
aF0.9595344317606642
aF0.004355169894038837
ababa(F-0.3490658503988659
F1.545000000000001
F0.4985000000000004
F0.4985000000000004
F-0.3490658503988659
F1.502193240395788
F0.4985000000000004
F1.5707963267948966
F-0.3490658503988659
F1.5707963267948966
F1.5707963267948966
F1.5707963267948966
F1.0471975511965976
F0.19500000000000003
F0.0
F0.5235987755982988
F1.5707963267948966
tp2181
aF-1.0
aF0.0
ag1
(g20
g3
Ntp2182
Rp2183
(lp2184
g1
(g24
g3
Ntp2185
Rp2186
(lp2187
I0
ag1
(g28
g3
Ntp2188
Rp2189
(lp2190
I0
aI0
abaS'shadowhandnew'
p2191
abag1
(g33
g3
Ntp2192
Rp2193
(lp2194
F0.960429138778732
aF-0.1920858277557464
aF0.2016901191435337
abababag1
(g2
g3
Ntp2195
Rp2196
(lp2197
I0
ag1
(g7
g3
Ntp2198
Rp2199
(lp2200
g1
(g11
g3
Ntp2201
Rp2202
(lp2203
F0.07568428759410295
aF0.009967692701176045
aF0.07181532448878422
abag1
(g15
g3
Ntp2204
Rp2205
(lp2206
F-0.3864272757770034
aF-0.3249797544891914
aF0.8504452676858056
aF-0.14766504792443993
ababa(F-0.3490658503988659
F1.5500000000000012
F1.5707963267948966
F1.5707963267948966
F-0.3490658503988659
F1.480000000000001
F0.1480000000000001
F1.5707963267948966
F-0.3490658503988659
F1.5707963267948966
F1.5707963267948966
F0.11100000000000008
F0.14263620059493626
F1.2217304763960306
F0.0
F0.5235987755982988
F1.470000000000001
tp2207
aF-1.0
aF8.629450984790555e-09
ag1
(g20
g3
Ntp2208
Rp2209
(lp2210
g1
(g24
g3
Ntp2211
Rp2212
(lp2213
I0
ag1
(g28
g3
Ntp2214
Rp2215
(lp2216
I0
aI0
abaS'shadowhandnew'
p2217
abag1
(g33
g3
Ntp2218
Rp2219
(lp2220
F0.960429138778732
aF-0.1920858277557464
aF0.2016901191435337
abababag1
(g2
g3
Ntp2221
Rp2222
(lp2223
I0
ag1
(g7
g3
Ntp2224
Rp2225
(lp2226
g1
(g11
g3
Ntp2227
Rp2228
(lp2229
F0.04163771156741727
aF0.037487602421816146
aF0.09122182392608807
abag1
(g15
g3
Ntp2230
Rp2231
(lp2232
F-0.48972832219139645
aF0.12455333418756395
aF0.8600128697799408
aF0.07092602624729083
ababa(F0.3490658503988659
F1.5445920290452166
F0.11450000000000009
F1.5707963267948966
F-0.3490658503988659
F1.4950000000000012
F1.5707963267948966
F1.5707963267948966
F-0.3490658503988659
F1.5707963267948966
F1.5707963267948966
F0.4985000000000004
F0.09780244880340316
F1.2217304763960306
F0.0
F0.5235987755982988
F1.145000000000001
tp2233
aF-1.0
aF0.0
ag1
(g20
g3
Ntp2234
Rp2235
(lp2236
g1
(g24
g3
Ntp2237
Rp2238
(lp2239
I0
ag1
(g28
g3
Ntp2240
Rp2241
(lp2242
I0
aI0
abaS'shadowhandnew'
p2243
abag1
(g33
g3
Ntp2244
Rp2245
(lp2246
F0.960429138778732
aF-0.1920858277557464
aF0.2016901191435337
abababag1
(g2
g3
Ntp2247
Rp2248
(lp2249
I0
ag1
(g7
g3
Ntp2250
Rp2251
(lp2252
g1
(g11
g3
Ntp2253
Rp2254
(lp2255
F0.10698801654415098
aF0.03356550045775805
aF-0.06450823394287994
abag1
(g15
g3
Ntp2256
Rp2257
(lp2258
F0.17054337008558892
aF-0.14876831518726255
aF0.9737063224204997
aF0.026056572962287982
ababa(F-0.26913834985901935
F0.0375
F1.5707963267948966
F0.3263997973075107
F-0.3490658503988659
F0.3662500000000002
F0.49862500000000043
F0.49862500000000043
F-0.3490658503988659
F0.4112500000000002
F0.49862500000000043
F0.49862500000000043
F-0.6486762903784422
F0.07125000000000001
F0.0
F-0.4523487755982988
F1.216250000000001
tp2259
aF-1.0
aF0.07509737948817996
ag1
(g20
g3
Ntp2260
Rp2261
(lp2262
g1
(g24
g3
Ntp2263
Rp2264
(lp2265
I0
ag1
(g28
g3
Ntp2266
Rp2267
(lp2268
I0
aI0
abaS'shadowhandnew'
p2269
abag1
(g33
g3
Ntp2270
Rp2271
(lp2272
F0.960429138778732
aF-0.1920858277557464
aF0.2016901191435337
abababag1
(g2
g3
Ntp2273
Rp2274
(lp2275
I0
ag1
(g7
g3
Ntp2276
Rp2277
(lp2278
g1
(g11
g3
Ntp2279
Rp2280
(lp2281
F0.07460992814778403
aF0.00769677139389595
aF0.08806894630826469
abag1
(g15
g3
Ntp2282
Rp2283
(lp2284
F-0.27466326821856574
aF-0.16219088744399368
aF0.9465936001024615
aF-0.047061251223138284
ababa(F0.0019787398555705274
F1.3350000000000009
F1.5707963267948966
F0.4995000000000004
F-0.3490658503988659
F1.3350000000000009
F1.5707963267948966
F1.5707963267948966
F-0.3490658503988659
F1.5707963267948966
F1.5707963267948966
F1.5707963267948966
F1.0471975511965976
F0.22500000000000006
F0.0
F0.5235987755982988
F1.3842366634065986
tp2285
aF-1.0
aF0.0
ag1
(g20
g3
Ntp2286
Rp2287
(lp2288
g1
(g24
g3
Ntp2289
Rp2290
(lp2291
I0
ag1
(g28
g3
Ntp2292
Rp2293
(lp2294
I0
aI0
abaS'shadowhandnew'
p2295
abag1
(g33
g3
Ntp2296
Rp2297
(lp2298
F0.960429138778732
aF-0.1920858277557464
aF0.2016901191435337
abababag1
(g2
g3
Ntp2299
Rp2300
(lp2301
I0
ag1
(g7
g3
Ntp2302
Rp2303
(lp2304
g1
(g11
g3
Ntp2305
Rp2306
(lp2307
F0.08033254514565037
aF-0.004223749797217586
aF0.07894551851939985
abag1
(g15
g3
Ntp2308
Rp2309
(lp2310
F-0.2676952346628893
aF-0.27283667642029097
aF0.9206551477239342
aF-0.07933163497704498
ababa(F0.002192098720501286
F1.3350000000000009
F1.5707963267948966
F0.4995000000000004
F-0.3490658503988659
F1.3350000000000009
F1.5707963267948966
F1.5707963267948966
F-0.3490658503988659
F1.5707963267948966
F1.5707963267948966
F1.5707963267948966
F1.0471975511965976
F0.22500000000000006
F0.0
F0.5235987755982988
F1.3843219349282987
tp2311
aF-1.0
aF0.0
ag1
(g20
g3
Ntp2312
Rp2313
(lp2314
g1
(g24
g3
Ntp2315
Rp2316
(lp2317
I0
ag1
(g28
g3
Ntp2318
Rp2319
(lp2320
I0
aI0
abaS'shadowhandnew'
p2321
abag1
(g33
g3
Ntp2322
Rp2323
(lp2324
F0.960429138778732
aF-0.1920858277557464
aF0.2016901191435337
abababag1
(g2
g3
Ntp2325
Rp2326
(lp2327
I0
ag1
(g7
g3
Ntp2328
Rp2329
(lp2330
g1
(g11
g3
Ntp2331
Rp2332
(lp2333
F0.13685467358384165
aF0.12183454316917527
aF0.01633830181799938
abag1
(g15
g3
Ntp2334
Rp2335
(lp2336
F0.15404047549194408
aF0.4849228582533909
aF0.8564545975622607
aF-0.08721740518981184
ababa(F-0.3490658503988659
F1.548380225166082
F1.5707963267948966
F1.5707963267948966
F-0.12563256784547697
F1.505000000000001
F0.4985000000000004
F0.8382215714749527
F-0.3490658503988659
F1.5707963267948966
F1.5707963267948966
F0.6648011660873849
F1.0471975511965976
F0.19500000000000003
F0.0
F0.5235987755982988
F1.5707963267948966
tp2337
aF-1.0
aF0.0
ag1
(g20
g3
Ntp2338
Rp2339
(lp2340
g1
(g24
g3
Ntp2341
Rp2342
(lp2343
I0
ag1
(g28
g3
Ntp2344
Rp2345
(lp2346
I0
aI0
abaS'shadowhandnew'
p2347
abag1
(g33
g3
Ntp2348
Rp2349
(lp2350
F0.960429138778732
aF-0.1920858277557464
aF0.2016901191435337
abababag1
(g2
g3
Ntp2351
Rp2352
(lp2353
I0
ag1
(g7
g3
Ntp2354
Rp2355
(lp2356
g1
(g11
g3
Ntp2357
Rp2358
(lp2359
F0.05385485666567587
aF0.013151681123836415
aF0.09316745055073003
abag1
(g15
g3
Ntp2360
Rp2361
(lp2362
F-0.39199744395743463
aF-0.13455641571468482
aF0.9082178919392615
aF-0.05807611972453621
ababa(F-0.3490658503988659
F1.545000000000001
F1.0843141962785579
F1.5707963267948966
F-0.3490658503988659
F1.495000000000001
F0.4985000000000004
F0.4985000000000004
F-0.3490658503988659
F1.5707963267948966
F1.5707963267948966
F1.1461255338978031
F1.0471975511965976
F0.19500000000000003
F0.0
F0.5235987755982988
F1.5707963267948966
tp2363
aF-1.0
aF0.0
ag1
(g20
g3
Ntp2364
Rp2365
(lp2366
g1
(g24
g3
Ntp2367
Rp2368
(lp2369
I0
ag1
(g28
g3
Ntp2370
Rp2371
(lp2372
I0
aI0
abaS'shadowhandnew'
p2373
abag1
(g33
g3
Ntp2374
Rp2375
(lp2376
F0.960429138778732
aF-0.1920858277557464
aF0.2016901191435337
abababag1
(g2
g3
Ntp2377
Rp2378
(lp2379
I0
ag1
(g7
g3
Ntp2380
Rp2381
(lp2382
g1
(g11
g3
Ntp2383
Rp2384
(lp2385
F0.0498259743525979
aF0.021816046934728953
aF0.10183470447227742
abag1
(g15
g3
Ntp2386
Rp2387
(lp2388
F-0.3681261325560318
aF-0.04790333936433469
aF0.9283466965928697
aF-0.018995566119244047
ababa(F-0.3490658503988659
F1.5483107558277143
F0.4985000000000004
F0.4985000000000004
F-0.3490658503988659
F1.5024911232321922
F1.5707963267948966
F1.5707963267948966
F-0.3490658503988659
F1.5707963267948966
F1.5707963267948966
F1.4233598065584219
F0.8076800281562942
F0.05500000000000001
F0.0
F0.5235987755982988
F1.5707963267948966
tp2389
aF-1.0
aF0.0
ag1
(g20
g3
Ntp2390
Rp2391
(lp2392
g1
(g24
g3
Ntp2393
Rp2394
(lp2395
I0
ag1
(g28
g3
Ntp2396
Rp2397
(lp2398
I0
aI0
abaS'shadowhandnew'
p2399
abag1
(g33
g3
Ntp2400
Rp2401
(lp2402
F0.960429138778732
aF-0.1920858277557464
aF0.2016901191435337
abababag1
(g2
g3
Ntp2403
Rp2404
(lp2405
I0
ag1
(g7
g3
Ntp2406
Rp2407
(lp2408
g1
(g11
g3
Ntp2409
Rp2410
(lp2411
F0.07204787721121632
aF0.018155037590329562
aF0.08993705975757911
abag1
(g15
g3
Ntp2412
Rp2413
(lp2414
F-0.28735122934108215
aF-0.08359383188041082
aF0.9538381119036436
aF-0.025183298985849666
ababa(F-0.3490658503988659
F1.5413131835174108
F1.5707963267948966
F0.8449438230067888
F-0.3490658503988659
F1.5022439977008708
F1.5707963267948966
F1.5707963267948966
F-0.3490658503988659
F1.5707963267948966
F1.5593899334739532
F1.5707963267948966
F1.0471975511965976
F0.19500000000000003
F0.0
F0.5235987755982988
F1.5707963267948966
tp2415
aF-1.0
aF0.0
ag1
(g20
g3
Ntp2416
Rp2417
(lp2418
g1
(g24
g3
Ntp2419
Rp2420
(lp2421
I0
ag1
(g28
g3
Ntp2422
Rp2423
(lp2424
I0
aI0
abaS'shadowhandnew'
p2425
abag1
(g33
g3
Ntp2426
Rp2427
(lp2428
F0.960429138778732
aF-0.1920858277557464
aF0.2016901191435337
abababag1
(g2
g3
Ntp2429
Rp2430
(lp2431
I0
ag1
(g7
g3
Ntp2432
Rp2433
(lp2434
g1
(g11
g3
Ntp2435
Rp2436
(lp2437
F0.06412764938061767
aF0.0029223808730640677
aF0.08894183565946769
abag1
(g15
g3
Ntp2438
Rp2439
(lp2440
F-0.34287395737323534
aF-0.213659100419214
aF0.9112210431094514
aF-0.08039557673026872
ababa(F-0.3490658503988659
F1.542500000000001
F0.9771923337113414
F1.5707963267948966
F-0.3490658503988659
F1.498013014442204
F0.4982500000000004
F0.4982500000000004
F-0.3490658503988659
F1.5707963267948966
F1.5707963267948966
F1.1927371505164843
F1.0414108833387454
F0.19250000000000003
F0.0
F0.5235987755982988
F1.5707963267948966
tp2441
aF-1.0
aF0.0
ag1
(g20
g3
Ntp2442
Rp2443
(lp2444
g1
(g24
g3
Ntp2445
Rp2446
(lp2447
I0
ag1
(g28
g3
Ntp2448
Rp2449
(lp2450
I0
aI0
abaS'shadowhandnew'
p2451
abag1
(g33
g3
Ntp2452
Rp2453
(lp2454
F0.960429138778732
aF-0.1920858277557464
aF0.2016901191435337
abababag1
(g2
g3
Ntp2455
Rp2456
(lp2457
I0
ag1
(g7
g3
Ntp2458
Rp2459
(lp2460
g1
(g11
g3
Ntp2461
Rp2462
(lp2463
F0.15964687622037513
aF0.03739758589114419
aF0.003451675371604992
abag1
(g15
g3
Ntp2464
Rp2465
(lp2466
F0.32913652951869105
aF0.04326973930033447
aF0.9431695877665373
aF-0.015099778461067002
ababa(F-0.3490658503988659
F1.212663717232513
F1.5707963267948966
F0.4988750000000004
F-0.3490658503988659
F1.4987500000000011
F0.4988750000000004
F0.4988750000000004
F-0.3490658503988659
F1.5707963267948966
F0.4988750000000004
F0.4988750000000004
F0.8097861405551431
F1.2217304763960306
F0.0
F0.5235987755982988
F1.5707963267948966
tp2467
aF-1.0
aF0.0
ag1
(g20
g3
Ntp2468
Rp2469
(lp2470
g1
(g24
g3
Ntp2471
Rp2472
(lp2473
I0
ag1
(g28
g3
Ntp2474
Rp2475
(lp2476
I0
aI0
abaS'shadowhandnew'
p2477
abag1
(g33
g3
Ntp2478
Rp2479
(lp2480
F0.960429138778732
aF-0.1920858277557464
aF0.2016901191435337
abababag1
(g2
g3
Ntp2481
Rp2482
(lp2483
I0
ag1
(g7
g3
Ntp2484
Rp2485
(lp2486
g1
(g11
g3
Ntp2487
Rp2488
(lp2489
F0.054046599371401625
aF0.00017147900490374824
aF0.0878397994326576
abag1
(g15
g3
Ntp2490
Rp2491
(lp2492
F-0.4198168568998118
aF-0.2700360535519294
aF0.8563343925776561
aF-0.13238483498316314
ababa(F-0.3490658503988659
F1.545000000000001
F0.8991002029874228
F1.5707963267948966
F-0.3490658503988659
F1.495000000000001
F0.9675326501321334
F0.4985000000000004
F-0.3490658503988659
F1.5707963267948966
F1.5707963267948966
F1.0754045299218151
F1.0471975511965976
F0.19500000000000003
F0.0
F0.5235987755982988
F1.5707963267948966
tp2493
aF-1.0
aF0.0
ag1
(g20
g3
Ntp2494
Rp2495
(lp2496
g1
(g24
g3
Ntp2497
Rp2498
(lp2499
I0
ag1
(g28
g3
Ntp2500
Rp2501
(lp2502
I0
aI0
abaS'shadowhandnew'
p2503
abag1
(g33
g3
Ntp2504
Rp2505
(lp2506
F0.960429138778732
aF-0.1920858277557464
aF0.2016901191435337
abababag1
(g2
g3
Ntp2507
Rp2508
(lp2509
I0
ag1
(g7
g3
Ntp2510
Rp2511
(lp2512
g1
(g11
g3
Ntp2513
Rp2514
(lp2515
F0.05429373490070726
aF0.015587594069941762
aF0.0840739417858644
abag1
(g15
g3
Ntp2516
Rp2517
(lp2518
F-0.47497567346155284
aF-0.2008202042092514
aF0.8493871032985206
aF-0.11229828115891748
ababa(F-0.3490658503988659
F0.8709059398598649
F1.5707963267948966
F0.4982500000000004
F-0.3490658503988659
F1.300748551897722
F0.4982500000000004
F0.6075691203744231
F-0.3490658503988659
F1.352500000000001
F1.5707963267948966
F1.5707963267948966
F1.0471975511965976
F1.2217304763960306
F0.0
F-0.11116126935056828
F1.5707963267948966
tp2519
aF-1.0
aF0.0
ag1
(g20
g3
Ntp2520
Rp2521
(lp2522
g1
(g24
g3
Ntp2523
Rp2524
(lp2525
I0
ag1
(g28
g3
Ntp2526
Rp2527
(lp2528
I0
aI0
abaS'shadowhandnew'
p2529
abag1
(g33
g3
Ntp2530
Rp2531
(lp2532
F0.960429138778732
aF-0.1920858277557464
aF0.2016901191435337
abababag1
(g2
g3
Ntp2533
Rp2534
(lp2535
I0
ag1
(g7
g3
Ntp2536
Rp2537
(lp2538
g1
(g11
g3
Ntp2539
Rp2540
(lp2541
F0.149952854930344
aF0.015480252257581881
aF-0.002518064468208138
abag1
(g15
g3
Ntp2542
Rp2543
(lp2544
F0.3073490296529721
aF-0.0709733899991524
aF0.948667819108559
aF0.022993931182275343
ababa(F-0.3490658503988659
F1.475000000000001
F0.4975000000000004
F1.5707963267948966
F-0.3490658503988659
F1.360000000000001
F1.0037301854965814
F0.2835000000000002
F-0.3490658503988659
F1.5707963267948966
F0.4975000000000004
F0.4975000000000004
F0.6474266361354761
F1.2217304763960306
F0.0
F0.5235987755982988
F1.5707963267948966
tp2545
aF-1.0
aF0.0
ag1
(g20
g3
Ntp2546
Rp2547
(lp2548
g1
(g24
g3
Ntp2549
Rp2550
(lp2551
I0
ag1
(g28
g3
Ntp2552
Rp2553
(lp2554
I0
aI0
abaS'shadowhandnew'
p2555
abag1
(g33
g3
Ntp2556
Rp2557
(lp2558
F0.960429138778732
aF-0.1920858277557464
aF0.2016901191435337
abababag1
(g2
g3
Ntp2559
Rp2560
(lp2561
I0
ag1
(g7
g3
Ntp2562
Rp2563
(lp2564
g1
(g11
g3
Ntp2565
Rp2566
(lp2567
F0.1100556499444632
aF0.026131206524384547
aF-0.05755527754555311
abag1
(g15
g3
Ntp2568
Rp2569
(lp2570
F0.20615537997505184
aF0.13367909479251763
aF0.9689276994325805
aF-0.02844243651803044
ababa(F-0.3490658503988659
F1.1719152963326687
F1.5707963267948966
F1.1247437508479607
F-0.3490658503988659
F0.36000000000000015
F0.4975000000000004
F0.4975000000000004
F-0.3490658503988659
F0.7382257446377004
F1.0085476220880774
F0.048500000000000036
F-0.6521975511965973
F0.3950000000000002
F0.0
F0.5235987755982988
F0.3950000000000002
tp2571
aF-1.0
aF0.25915507642394836
ag1
(g20
g3
Ntp2572
Rp2573
(lp2574
g1
(g24
g3
Ntp2575
Rp2576
(lp2577
I0
ag1
(g28
g3
Ntp2578
Rp2579
(lp2580
I0
aI0
abaS'shadowhandnew'
p2581
abag1
(g33
g3
Ntp2582
Rp2583
(lp2584
F0.960429138778732
aF-0.1920858277557464
aF0.2016901191435337
abababag1
(g2
g3
Ntp2585
Rp2586
(lp2587
I0
ag1
(g7
g3
Ntp2588
Rp2589
(lp2590
g1
(g11
g3
Ntp2591
Rp2592
(lp2593
F0.12713240451237015
aF0.09588018572075652
aF0.027535195777860993
abag1
(g15
g3
Ntp2594
Rp2595
(lp2596
F0.058761011869504526
aF0.482835123348251
aF0.873133154449117
aF-0.03249433407666307
ababa(F-0.12419932005676913
F1.2317515660488167
F1.5707963267948966
F0.6735829654939225
F-0.3490658503988659
F1.3369838659782762
F1.5707963267948966
F0.013500000000000005
F-0.3490658503988659
F1.5707963267948966
F0.3663750000000003
F0.3663750000000003
F0.11655244880340314
F1.2217304763960306
F0.0
F0.5235987755982988
F1.1637500000000007
tp2597
aF-1.0
aF0.0
ag1
(g20
g3
Ntp2598
Rp2599
(lp2600
g1
(g24
g3
Ntp2601
Rp2602
(lp2603
I0
ag1
(g28
g3
Ntp2604
Rp2605
(lp2606
I0
aI0
abaS'shadowhandnew'
p2607
abag1
(g33
g3
Ntp2608
Rp2609
(lp2610
F0.960429138778732
aF-0.1920858277557464
aF0.2016901191435337
abababag1
(g2
g3
Ntp2611
Rp2612
(lp2613
I0
ag1
(g7
g3
Ntp2614
Rp2615
(lp2616
g1
(g11
g3
Ntp2617
Rp2618
(lp2619
F0.05523284280705562
aF0.023891626094134734
aF-0.10896874410023406
abag1
(g15
g3
Ntp2620
Rp2621
(lp2622
F0.4747234802568073
aF0.07571392304854993
aF0.8759116019257998
aF-0.041035164934998244
ababa(F-0.3490658503988659
F0.19750000000000006
F0.01975000000000001
F1.5707963267948966
F-0.3490658503988659
F0.3087500000000002
F0.16642356156838992
F1.5707963267948966
F-0.3490658503988659
F0.8500000000000006
F0.08500000000000006
F0.08500000000000006
F0.47992510951550704
F0.9236664102170415
F0.0
F-0.4473487755982987
F0.07625000000000001
tp2623
aF-1.0
aF0.14298777560317846
ag1
(g20
g3
Ntp2624
Rp2625
(lp2626
g1
(g24
g3
Ntp2627
Rp2628
(lp2629
I0
ag1
(g28
g3
Ntp2630
Rp2631
(lp2632
I0
aI0
abaS'shadowhandnew'
p2633
abag1
(g33
g3
Ntp2634
Rp2635
(lp2636
F0.960429138778732
aF-0.1920858277557464
aF0.2016901191435337
abababag1
(g2
g3
Ntp2637
Rp2638
(lp2639
I0
ag1
(g7
g3
Ntp2640
Rp2641
(lp2642
g1
(g11
g3
Ntp2643
Rp2644
(lp2645
F0.039699873659565
aF0.013606580855631902
aF-0.11846019514436822
abag1
(g15
g3
Ntp2646
Rp2647
(lp2648
F0.475803667390341
aF0.14047137464692985
aF0.8648154573764116
aF-0.07728445953444728
ababa(F-0.3490658503988659
F0.06000000000000001
F1.3421659025211476
F1.489475378799423
F-0.3490658503988659
F0.2937500000000001
F0.8576592424348072
F1.1799415984523385
F-0.3490658503988659
F0.3912500000000002
F1.5707963267948966
F0.03912500000000003
F0.9072132932221542
F0.8895136776844269
F0.0
F-0.4073487755982987
F0.11624999999999998
tp2649
aF-1.0
aF0.04873024431117242
ag1
(g20
g3
Ntp2650
Rp2651
(lp2652
g1
(g24
g3
Ntp2653
Rp2654
(lp2655
I0
ag1
(g28
g3
Ntp2656
Rp2657
(lp2658
I0
aI0
abaS'shadowhandnew'
p2659
abag1
(g33
g3
Ntp2660
Rp2661
(lp2662
F0.960429138778732
aF-0.1920858277557464
aF0.2016901191435337
abababag1
(g2
g3
Ntp2663
Rp2664
(lp2665
I0
ag1
(g7
g3
Ntp2666
Rp2667
(lp2668
g1
(g11
g3
Ntp2669
Rp2670
(lp2671
F0.12366545058568372
aF0.009558785029208842
aF0.0032352142761004573
abag1
(g15
g3
Ntp2672
Rp2673
(lp2674
F-0.2027860228225821
aF0.24784292442538544
aF0.9458478853501036
aF0.053136536759648634
ababa(F-0.3490658503988659
F0.8797517932111325
F0.2539811846724888
F1.5707963267948966
F0.013427344047000495
F0.5712500000000004
F0.09312500000000007
F1.5707963267948966
F-0.3490658503988659
F1.1838587694655953
F0.01775000000000001
F1.5707963267948966
F-0.8059475511965972
F0.780471353374529
F0.0
F0.5235987755982988
F0.24125000000000008
tp2675
aF-1.0
aF0.05933415771043426
ag1
(g20
g3
Ntp2676
Rp2677
(lp2678
g1
(g24
g3
Ntp2679
Rp2680
(lp2681
I0
ag1
(g28
g3
Ntp2682
Rp2683
(lp2684
I0
aI0
abaS'shadowhandnew'
p2685
abag1
(g33
g3
Ntp2686
Rp2687
(lp2688
F0.960429138778732
aF-0.1920858277557464
aF0.2016901191435337
abababag1
(g2
g3
Ntp2689
Rp2690
(lp2691
I0
ag1
(g7
g3
Ntp2692
Rp2693
(lp2694
g1
(g11
g3
Ntp2695
Rp2696
(lp2697
F0.05956767211763918
aF0.05181926761346625
aF-0.117179632011797
abag1
(g15
g3
Ntp2698
Rp2699
(lp2700
F0.3560437411019679
aF-0.2179832147933586
aF0.9046300980400525
aF0.08579369563384237
ababa(F-0.3490658503988659
F1.5484350021236049
F1.5707963267948966
F1.5707963267948966
F-0.3490658503988659
F0.065
F1.5707963267948966
F0.006500000000000001
F-0.3490658503988659
F0.2912500000000001
F1.5707963267948966
F1.5707963267948966
F-0.08959020360038225
F1.142755482918377
F0.0
F-0.38484877559829866
F0.13874999999999998
tp2701
aF-1.0
aF0.13638267573507562
ag1
(g20
g3
Ntp2702
Rp2703
(lp2704
g1
(g24
g3
Ntp2705
Rp2706
(lp2707
I0
ag1
(g28
g3
Ntp2708
Rp2709
(lp2710
I0
aI0
abaS'shadowhandnew'
p2711
abag1
(g33
g3
Ntp2712
Rp2713
(lp2714
F0.960429138778732
aF-0.1920858277557464
aF0.2016901191435337
abababag1
(g2
g3
Ntp2715
Rp2716
(lp2717
I0
ag1
(g7
g3
Ntp2718
Rp2719
(lp2720
g1
(g11
g3
Ntp2721
Rp2722
(lp2723
F0.1215867152641457
aF0.03463724082089547
aF-0.003564575055658814
abag1
(g15
g3
Ntp2724
Rp2725
(lp2726
F0.028758297245381967
aF0.3561906184481667
aF0.9339062578121059
aF-0.0109683767462341
ababa(F-0.3490658503988659
F0.8737500000000006
F0.08737500000000006
F1.5707963267948966
F-0.3490658503988659
F0.4000000000000002
F1.3765497525053054
F1.5707963267948966
F-0.3490658503988659
F0.5425000000000002
F1.5707963267948966
F1.5707963267948966
F-0.30844755119659706
F0.7387500000000005
F0.0
F0.21515122440170154
F1.5707963267948966
tp2727
aF-1.0
aF0.03496406906257279
ag1
(g20
g3
Ntp2728
Rp2729
(lp2730
g1
(g24
g3
Ntp2731
Rp2732
(lp2733
I0
ag1
(g28
g3
Ntp2734
Rp2735
(lp2736
I0
aI0
abaS'shadowhandnew'
p2737
abag1
(g33
g3
Ntp2738
Rp2739
(lp2740
F0.960429138778732
aF-0.1920858277557464
aF0.2016901191435337
abababag1
(g2
g3
Ntp2741
Rp2742
(lp2743
I0
ag1
(g7
g3
Ntp2744
Rp2745
(lp2746
g1
(g11
g3
Ntp2747
Rp2748
(lp2749
F0.16186454282225282
aF0.030558970216315283
aF0.004622501580554953
abag1
(g15
g3
Ntp2750
Rp2751
(lp2752
F0.3296264140477801
aF0.010136589843539979
aF0.9440503958938924
aF-0.003539310798800596
ababa(F-0.3490658503988659
F1.543750000000001
F1.5707963267948966
F1.5707963267948966
F-0.3490658503988659
F1.5023748759056559
F1.5707963267948966
F0.4983750000000004
F-0.3490658503988659
F1.1191589781886666
F0.5066931204851698
F1.5707963267948966
F1.0471975511965976
F0.3137500000000001
F0.0
F0.22175798228162727
F1.3798735121424133
tp2753
aF-1.0
aF0.0
ag1
(g20
g3
Ntp2754
Rp2755
(lp2756
g1
(g24
g3
Ntp2757
Rp2758
(lp2759
I0
ag1
(g28
g3
Ntp2760
Rp2761
(lp2762
I0
aI0
abaS'shadowhandnew'
p2763
abag1
(g33
g3
Ntp2764
Rp2765
(lp2766
F0.960429138778732
aF-0.1920858277557464
aF0.2016901191435337
abababag1
(g2
g3
Ntp2767
Rp2768
(lp2769
I0
ag1
(g7
g3
Ntp2770
Rp2771
(lp2772
g1
(g11
g3
Ntp2773
Rp2774
(lp2775
F0.09557686611360819
aF-0.0006529792305411774
aF-0.0788593294932364
abag1
(g15
g3
Ntp2776
Rp2777
(lp2778
F0.2831532736199638
aF0.4585395278763413
aF0.8276197166860064
aF-0.1568799845927281
ababa(F-0.3490658503988659
F0.48750000000000027
F0.4158702138326196
F1.2096997136133005
F-0.3490658503988659
F0.8912500000000005
F0.08912500000000007
F1.5707963267948966
F-0.3490658503988659
F1.463750000000001
F1.5707963267948966
F0.14637500000000012
F1.0226380221618054
F1.2217304763960306
F0.0
F0.18640122440170154
F1.5353168657372511
tp2779
aF-1.0
aF0.0
ag1
(g20
g3
Ntp2780
Rp2781
(lp2782
g1
(g24
g3
Ntp2783
Rp2784
(lp2785
I0
ag1
(g28
g3
Ntp2786
Rp2787
(lp2788
I0
aI0
abaS'shadowhandnew'
p2789
abag1
(g33
g3
Ntp2790
Rp2791
(lp2792
F0.960429138778732
aF-0.1920858277557464
aF0.2016901191435337
abababag1
(g2
g3
Ntp2793
Rp2794
(lp2795
I0
ag1
(g7
g3
Ntp2796
Rp2797
(lp2798
g1
(g11
g3
Ntp2799
Rp2800
(lp2801
F0.11521418092858568
aF0.09172159622897356
aF0.05921133081690721
abag1
(g15
g3
Ntp2802
Rp2803
(lp2804
F-0.038252735925243024
aF0.4196413735100803
aF0.9067107660710747
aF0.01770402563294265
ababa(F-0.3490658503988659
F1.5420812763003424
F1.5707963267948966
F1.5707963267948966
F-0.3490658503988659
F1.095234140535749
F0.3424814944144281
F1.5707963267948966
F-0.3490658503988659
F1.5707963267948966
F0.4982500000000004
F0.4982500000000004
F0.5576206232807306
F1.2217304763960306
F0.0
F0.5235987755982988
F0.3025000000000001
tp2805
aF-1.0
aF0.0
ag1
(g20
g3
Ntp2806
Rp2807
(lp2808
g1
(g24
g3
Ntp2809
Rp2810
(lp2811
I0
ag1
(g28
g3
Ntp2812
Rp2813
(lp2814
I0
aI0
abaS'shadowhandnew'
p2815
abag1
(g33
g3
Ntp2816
Rp2817
(lp2818
F0.960429138778732
aF-0.1920858277557464
aF0.2016901191435337
abababag1
(g2
g3
Ntp2819
Rp2820
(lp2821
I0
ag1
(g7
g3
Ntp2822
Rp2823
(lp2824
g1
(g11
g3
Ntp2825
Rp2826
(lp2827
F0.13986531232962515
aF0.0730121524011995
aF0.05529675037235461
abag1
(g15
g3
Ntp2828
Rp2829
(lp2830
F0.11429705327455499
aF0.22986176248489895
aF0.9661057014667336
aF-0.027194252215500724
ababa(F-0.3490658503988659
F1.5494230199177565
F1.5707963267948966
F1.5707963267948966
F-0.3490658503988659
F1.4956761538761143
F0.49862500000000043
F1.5707963267948966
F-0.3490658503988659
F0.9955029424807393
F1.5707963267948966
F1.5707963267948966
F0.4042436211320926
F0.5062500000000002
F0.0
F-0.017348775598298498
F1.5707963267948966
tp2831
aF-1.0
aF0.0
ag1
(g20
g3
Ntp2832
Rp2833
(lp2834
g1
(g24
g3
Ntp2835
Rp2836
(lp2837
I0
ag1
(g28
g3
Ntp2838
Rp2839
(lp2840
I0
aI0
abaS'shadowhandnew'
p2841
abag1
(g33
g3
Ntp2842
Rp2843
(lp2844
F0.960429138778732
aF-0.1920858277557464
aF0.2016901191435337
abababag1
(g2
g3
Ntp2845
Rp2846
(lp2847
I0
ag1
(g7
g3
Ntp2848
Rp2849
(lp2850
g1
(g11
g3
Ntp2851
Rp2852
(lp2853
F0.120290880419325
aF0.014686718098274761
aF0.0024678827937217136
abag1
(g15
g3
Ntp2854
Rp2855
(lp2856
F-0.11291992261798535
aF0.333811736554065
aF0.9349831567989684
aF0.04031515988984276
ababa(F-0.3490658503988659
F0.9412500000000008
F0.09412500000000007
F1.5707963267948966
F-0.3490658503988659
F0.6100000000000004
F1.5707963267948966
F0.06100000000000004
F-0.3490658503988659
F0.7037500000000005
F1.5707963267948966
F0.07037500000000005
F-0.5546975511965972
F1.2217304763960306
F0.0
F-0.0310987755982985
F1.5707963267948966
tp2857
aF-1.0
aF0.06936568180468934
ag1
(g20
g3
Ntp2858
Rp2859
(lp2860
g1
(g24
g3
Ntp2861
Rp2862
(lp2863
I0
ag1
(g28
g3
Ntp2864
Rp2865
(lp2866
I0
aI0
abaS'shadowhandnew'
p2867
abag1
(g33
g3
Ntp2868
Rp2869
(lp2870
F0.960429138778732
aF-0.1920858277557464
aF0.2016901191435337
abababag1
(g2
g3
Ntp2871
Rp2872
(lp2873
I0
ag1
(g7
g3
Ntp2874
Rp2875
(lp2876
g1
(g11
g3
Ntp2877
Rp2878
(lp2879
F0.1474079769876932
aF0.05439765942691243
aF0.0381628383605794
abag1
(g15
g3
Ntp2880
Rp2881
(lp2882
F0.1812100707154535
aF0.1385123380315572
aF0.9732996462761054
aF-0.025788389696528222
ababa(F-0.3490658503988659
F1.5412500000000011
F1.5707963267948966
F0.49812500000000043
F-0.3490658503988659
F1.501250000000001
F1.5707963267948966
F1.5707963267948966
F-0.3490658503988659
F0.45125000000000026
F1.5707963267948966
F1.5707963267948966
F0.4729465132164411
F0.45125000000000026
F0.0
F-0.0723487755982985
F1.5707963267948966
tp2883
aF-1.0
aF0.0
ag1
(g20
g3
Ntp2884
Rp2885
(lp2886
g1
(g24
g3
Ntp2887
Rp2888
(lp2889
I0
ag1
(g28
g3
Ntp2890
Rp2891
(lp2892
I0
aI0
abaS'shadowhandnew'
p2893
abag1
(g33
g3
Ntp2894
Rp2895
(lp2896
F0.960429138778732
aF-0.1920858277557464
aF0.2016901191435337
abababag1
(g2
g3
Ntp2897
Rp2898
(lp2899
I0
ag1
(g7
g3
Ntp2900
Rp2901
(lp2902
g1
(g11
g3
Ntp2903
Rp2904
(lp2905
F0.15862263099502033
aF0.11678425230735899
aF-0.0042678632845258874
abag1
(g15
g3
Ntp2906
Rp2907
(lp2908
F0.3178404857813689
aF0.36353048008776273
aF0.8654469601745969
aF-0.13350870671972614
ababa(F-0.1956144388229132
F1.5529380637221972
F1.5056645142360199
F1.4885261867704496
F-0.3490658503988659
F1.277930311149676
F1.5707963267948966
F1.5707963267948966
F-0.3490658503988659
F1.5707963267948966
F1.5707963267948966
F1.5707963267948966
F0.16030244880340316
F1.2217304763960306
F0.0
F0.5235987755982988
F1.207500000000001
tp2909
aF-1.0
aF0.0
ag1
(g20
g3
Ntp2910
Rp2911
(lp2912
g1
(g24
g3
Ntp2913
Rp2914
(lp2915
I0
ag1
(g28
g3
Ntp2916
Rp2917
(lp2918
I0
aI0
abaS'shadowhandnew'
p2919
abag1
(g33
g3
Ntp2920
Rp2921
(lp2922
F0.960429138778732
aF-0.1920858277557464
aF0.2016901191435337
abababag1
(g2
g3
Ntp2923
Rp2924
(lp2925
I0
ag1
(g7
g3
Ntp2926
Rp2927
(lp2928
g1
(g11
g3
Ntp2929
Rp2930
(lp2931
F0.17139132195298823
aF0.09378301975060196
aF-0.0036401127199457476
abag1
(g15
g3
Ntp2932
Rp2933
(lp2934
F0.370468114535649
aF0.2496365436947126
aF0.8885960599973073
aF-0.10407696345407674
ababa(F-0.24583899419997984
F1.54690714257346
F1.5707963267948966
F0.4982500000000004
F-0.3490658503988659
F1.497765069091463
F1.5707963267948966
F1.5707963267948966
F-0.3490658503988659
F0.34250000000000014
F1.5707963267948966
F1.5707963267948966
F0.3443207163506661
F0.34250000000000014
F0.0
F0.5235987755982988
F0.34250000000000014
tp2935
aF-1.0
aF0.0
ag1
(g20
g3
Ntp2936
Rp2937
(lp2938
g1
(g24
g3
Ntp2939
Rp2940
(lp2941
I0
ag1
(g28
g3
Ntp2942
Rp2943
(lp2944
I0
aI0
abaS'shadowhandnew'
p2945
abag1
(g33
g3
Ntp2946
Rp2947
(lp2948
F0.960429138778732
aF-0.1920858277557464
aF0.2016901191435337
abababag1
(g2
g3
Ntp2949
Rp2950
(lp2951
I0
ag1
(g7
g3
Ntp2952
Rp2953
(lp2954
g1
(g11
g3
Ntp2955
Rp2956
(lp2957
F0.15341129739435877
aF0.11415596478947927
aF-0.03256604544162528
abag1
(g15
g3
Ntp2958
Rp2959
(lp2960
F0.3923913392804903
aF0.3585075916597664
aF0.8299214592333566
aF-0.16950432172647792
ababa(F-0.3490658503988659
F1.5500000000000012
F1.5707963267948966
F1.5707963267948966
F-0.3490658503988659
F1.320000000000001
F1.1284659549246925
F1.5707963267948966
F-0.3490658503988659
F1.5707963267948966
F1.5707963267948966
F1.5707963267948966
F0.10202600591479803
F1.2217304763960306
F0.0
F0.5235987755982988
F1.5707963267948966
tp2961
aF-1.0
aF0.0
ag1
(g20
g3
Ntp2962
Rp2963
(lp2964
g1
(g24
g3
Ntp2965
Rp2966
(lp2967
I0
ag1
(g28
g3
Ntp2968
Rp2969
(lp2970
I0
aI0
abaS'shadowhandnew'
p2971
abag1
(g33
g3
Ntp2972
Rp2973
(lp2974
F0.960429138778732
aF-0.1920858277557464
aF0.2016901191435337
abababag1
(g2
g3
Ntp2975
Rp2976
(lp2977
I0
ag1
(g7
g3
Ntp2978
Rp2979
(lp2980
g1
(g11
g3
Ntp2981
Rp2982
(lp2983
F0.1564664483530919
aF0.09496340476757022
aF0.02447885523457642
abag1
(g15
g3
Ntp2984
Rp2985
(lp2986
F0.24246235814108993
aF0.29767885247381337
aF0.9200244033814443
aF-0.07845000227630929
ababa(F-0.3490658503988659
F1.542500000000001
F1.475775967813223
F0.4982500000000004
F-0.3490658503988659
F1.502500000000001
F1.5707963267948966
F1.5707963267948966
F-0.3490658503988659
F0.5525000000000002
F1.1980882214525945
F1.5707963267948966
F0.32317083159816656
F0.5525000000000002
F0.0
F0.02890122440170151
F1.5707963267948966
tp2987
aF-1.0
aF0.0
ag1
(g20
g3
Ntp2988
Rp2989
(lp2990
g1
(g24
g3
Ntp2991
Rp2992
(lp2993
I0
ag1
(g28
g3
Ntp2994
Rp2995
(lp2996
I0
aI0
abaS'shadowhandnew'
p2997
abag1
(g33
g3
Ntp2998
Rp2999
(lp3000
F0.960429138778732
aF-0.1920858277557464
aF0.2016901191435337
abababag1
(g2
g3
Ntp3001
Rp3002
(lp3003
I0
ag1
(g7
g3
Ntp3004
Rp3005
(lp3006
g1
(g11
g3
Ntp3007
Rp3008
(lp3009
F0.18275277817383467
aF0.07108542942585368
aF-0.01933968739173545
abag1
(g15
g3
Ntp3010
Rp3011
(lp3012
F0.4515341489978519
aF0.14652545603221248
aF0.8769005963598301
aF-0.0754489703515704
ababa(F0.2596265117357744
F1.552500000000001
F1.5707963267948966
F1.5707963267948966
F-0.3490658503988659
F1.4978466931964698
F0.5072385085934182
F1.5707963267948966
F-0.3490658503988659
F0.3025000000000001
F0.4972500000000004
F1.5707963267948966
F1.0471975511965976
F0.3025000000000001
F0.0
F0.5235987755982988
F0.3025000000000001
tp3013
aF-1.0
aF0.0
ag1
(g20
g3
Ntp3014
Rp3015
(lp3016
g1
(g24
g3
Ntp3017
Rp3018
(lp3019
I0
ag1
(g28
g3
Ntp3020
Rp3021
(lp3022
I0
aI0
abaS'shadowhandnew'
p3023
abag1
(g33
g3
Ntp3024
Rp3025
(lp3026
F0.960429138778732
aF-0.1920858277557464
aF0.2016901191435337
abababag1
(g2
g3
Ntp3027
Rp3028
(lp3029
I0
ag1
(g7
g3
Ntp3030
Rp3031
(lp3032
g1
(g11
g3
Ntp3033
Rp3034
(lp3035
F0.13599183143783136
aF0.015112273782995459
aF0.0026322094530026236
abag1
(g15
g3
Ntp3036
Rp3037
(lp3038
F-0.11216364267001437
aF0.2405149032683688
aF0.9637366549238529
aF0.027992115407437637
ababa(F-0.2338766440574413
F1.5535771674858807
F1.5707963267948966
F1.5707963267948966
F-0.3490658503988659
F0.26750000000000007
F1.5707963267948966
F0.026750000000000017
F-0.3490658503988659
F0.48125000000000023
F1.5707963267948966
F1.5707963267948966
F1.0471975511965976
F0.48125000000000023
F0.0
F-0.042348775598298485
F0.48125000000000023
tp3039
aF-1.0
aF0.0
ag1
(g20
g3
Ntp3040
Rp3041
(lp3042
g1
(g24
g3
Ntp3043
Rp3044
(lp3045
I0
ag1
(g28
g3
Ntp3046
Rp3047
(lp3048
I0
aI0
abaS'shadowhandnew'
p3049
abag1
(g33
g3
Ntp3050
Rp3051
(lp3052
F0.960429138778732
aF-0.1920858277557464
aF0.2016901191435337
abababag1
(g2
g3
Ntp3053
Rp3054
(lp3055
I0
ag1
(g7
g3
Ntp3056
Rp3057
(lp3058
g1
(g11
g3
Ntp3059
Rp3060
(lp3061
F0.09666845122597241
aF-0.005875267805552941
aF-0.09405969375917939
abag1
(g15
g3
Ntp3062
Rp3063
(lp3064
F0.3407715903532897
aF0.36657711054517184
aF0.8532658803963012
aF-0.1464011017170556
ababa(F-0.06181912046904068
F0.26250000000000007
F0.04763678738095581
F1.5707963267948966
F-0.3490658503988659
F0.5425000000000003
F0.05425000000000004
F1.5707963267948966
F-0.3490658503988659
F1.5707963267948966
F1.5707963267948966
F1.5707963267948966
F0.29881781513290223
F1.2217304763960306
F0.0
F0.5235987755982988
F0.37250000000000016
tp3065
aF-1.0
aF0.06258140995123021
ag1
(g20
g3
Ntp3066
Rp3067
(lp3068
g1
(g24
g3
Ntp3069
Rp3070
(lp3071
I0
ag1
(g28
g3
Ntp3072
Rp3073
(lp3074
I0
aI0
abaS'shadowhandnew'
p3075
abag1
(g33
g3
Ntp3076
Rp3077
(lp3078
F0.960429138778732
aF-0.1920858277557464
aF0.2016901191435337
abababag1
(g2
g3
Ntp3079
Rp3080
(lp3081
I0
ag1
(g7
g3
Ntp3082
Rp3083
(lp3084
g1
(g11
g3
Ntp3085
Rp3086
(lp3087
F0.13723601525094734
aF0.02533018157737375
aF-0.007589067728951303
abag1
(g15
g3
Ntp3088
Rp3089
(lp3090
F0.03164512629394509
aF0.38203578722472287
aF0.9235127897399377
aF-0.013090853607926238
ababa(F0.2610543856447404
F0.035
F1.4113733211351411
F0.0035
F-0.3490658503988659
F0.5150000000000002
F0.4986875000000004
F0.4986875000000004
F-0.3490658503988659
F1.087716382278964
F0.007000000000000001
F1.5707963267948966
F-0.28032255119659705
F0.7668750000000004
F0.0
F0.2432762244017016
F0.7668750000000004
tp3091
aF-1.0
aF0.06612235004710526
ag1
(g20
g3
Ntp3092
Rp3093
(lp3094
g1
(g24
g3
Ntp3095
Rp3096
(lp3097
I0
ag1
(g28
g3
Ntp3098
Rp3099
(lp3100
I0
aI0
abaS'shadowhandnew'
p3101
abag1
(g33
g3
Ntp3102
Rp3103
(lp3104
F0.960429138778732
aF-0.1920858277557464
aF0.2016901191435337
abababag1
(g2
g3
Ntp3105
Rp3106
(lp3107
I0
ag1
(g7
g3
Ntp3108
Rp3109
(lp3110
g1
(g11
g3
Ntp3111
Rp3112
(lp3113
F0.058503377799762876
aF0.045465120609866516
aF-0.12258985560492637
abag1
(g15
g3
Ntp3114
Rp3115
(lp3116
F0.4222550250257471
aF-0.20290043729150178
aF0.8780727296541382
aF0.09757247473111334
ababa(F0.22313535238975027
F0.5900000000000003
F0.059000000000000045
F1.5707963267948966
F-0.3490658503988659
F0.23500000000000007
F0.023500000000000014
F1.5707963267948966
F-0.3490658503988659
F1.5707963267948966
F1.5707963267948966
F1.5707963267948966
F0.10280244880340315
F1.2217304763960306
F0.0
F0.5235987755982988
F1.5707963267948966
tp3117
aF-1.0
aF0.0
ag1
(g20
g3
Ntp3118
Rp3119
(lp3120
g1
(g24
g3
Ntp3121
Rp3122
(lp3123
I0
ag1
(g28
g3
Ntp3124
Rp3125
(lp3126
I0
aI0
abaS'shadowhandnew'
p3127
abag1
(g33
g3
Ntp3128
Rp3129
(lp3130
F0.960429138778732
aF-0.1920858277557464
aF0.2016901191435337
abababag1
(g2
g3
Ntp3131
Rp3132
(lp3133
I0
ag1
(g7
g3
Ntp3134
Rp3135
(lp3136
g1
(g11
g3
Ntp3137
Rp3138
(lp3139
F0.13276783772032028
aF0.0676859048034479
aF-0.06470801998315658
abag1
(g15
g3
Ntp3140
Rp3141
(lp3142
F0.036140931651141635
aF-0.44090369207219643
aF0.8966504041194472
aF0.01777132997064318
ababa(F-0.3490658503988659
F0.6450000000000004
F0.06450000000000004
F1.5707963267948966
F-0.3490658503988659
F0.6925000000000004
F0.06925000000000005
F0.4982500000000004
F-0.3490658503988659
F0.0325
F1.5707963267948966
F0.0032500000000000003
F-1.0371975511965976
F1.2217304763960306
F0.0
F0.056401224401701575
F1.5707963267948966
tp3143
aF-1.0
aF0.4472823756701786
ag1
(g20
g3
Ntp3144
Rp3145
(lp3146
g1
(g24
g3
Ntp3147
Rp3148
(lp3149
I0
ag1
(g28
g3
Ntp3150
Rp3151
(lp3152
I0
aI0
abaS'shadowhandnew'
p3153
abag1
(g33
g3
Ntp3154
Rp3155
(lp3156
F0.960429138778732
aF-0.1920858277557464
aF0.2016901191435337
abababag1
(g2
g3
Ntp3157
Rp3158
(lp3159
I0
ag1
(g7
g3
Ntp3160
Rp3161
(lp3162
g1
(g11
g3
Ntp3163
Rp3164
(lp3165
F0.13698129801848524
aF-0.008986395000998303
aF-0.01029831822141507
abag1
(g15
g3
Ntp3166
Rp3167
(lp3168
F-0.040939018533313026
aF0.4901705715371776
aF0.8703592494859704
aF0.023056114040836215
ababa(F-0.27660201615393015
F0.035
F1.3898707834004267
F0.866815677520161
F-0.3490658503988659
F0.7652760127244447
F1.0318523656252279
F0.04050000000000003
F-0.3490658503988659
F1.5707963267948966
F0.1557500000000001
F0.1557500000000001
F-0.21284682800640847
F1.2217304763960306
F0.0
F0.5235987755982988
F0.46750000000000025
tp3169
aF-1.0
aF0.043583675090206477
ag1
(g20
g3
Ntp3170
Rp3171
(lp3172
g1
(g24
g3
Ntp3173
Rp3174
(lp3175
I0
ag1
(g28
g3
Ntp3176
Rp3177
(lp3178
I0
aI0
abaS'shadowhandnew'
p3179
abag1
(g33
g3
Ntp3180
Rp3181
(lp3182
F0.960429138778732
aF-0.1920858277557464
aF0.2016901191435337
abababag1
(g2
g3
Ntp3183
Rp3184
(lp3185
I0
ag1
(g7
g3
Ntp3186
Rp3187
(lp3188
g1
(g11
g3
Ntp3189
Rp3190
(lp3191
F0.07515569034615786
aF0.008459120512721125
aF-0.10534242453324581
abag1
(g15
g3
Ntp3192
Rp3193
(lp3194
F0.47535180205210786
aF0.2580784327888796
aF0.8279377631246773
aF-0.14817303130851867
ababa(F0.22682760860066503
F0.15125
F0.015125000000000006
F0.49862500000000043
F-0.3490658503988659
F0.005
F0.4536250000000004
F1.5707963267948966
F-0.3490658503988659
F1.5707963267948966
F1.5707963267948966
F0.49862500000000043
F-0.05245783286721205
F0.6362500000000004
F0.0
F0.5235987755982988
F0.6362500000000004
tp3195
aF-1.0
aF0.0010941160041615383
ag1
(g20
g3
Ntp3196
Rp3197
(lp3198
g1
(g24
g3
Ntp3199
Rp3200
(lp3201
I0
ag1
(g28
g3
Ntp3202
Rp3203
(lp3204
I0
aI0
abaS'shadowhandnew'
p3205
abag1
(g33
g3
Ntp3206
Rp3207
(lp3208
F0.960429138778732
aF-0.1920858277557464
aF0.2016901191435337
abababag1
(g2
g3
Ntp3209
Rp3210
(lp3211
I0
ag1
(g7
g3
Ntp3212
Rp3213
(lp3214
g1
(g11
g3
Ntp3215
Rp3216
(lp3217
F0.13302338288331786
aF0.008914241928406062
aF-0.03856090533771673
abag1
(g15
g3
Ntp3218
Rp3219
(lp3220
F0.03410835739059692
aF-0.09339548907608752
aF0.9950395234917756
aF0.0032014474248199185
ababa(F-0.3490658503988659
F0.5450000000000003
F0.05450000000000004
F0.4975000000000004
F-0.3490658503988659
F0.4025000000000002
F0.04025000000000003
F0.4975000000000004
F-0.3490658503988659
F0.11499999999999998
F0.7620271753822883
F1.5707963267948966
F-0.9921975511965976
F0.05500000000000001
F0.0
F-0.3110987755982986
F0.21250000000000005
tp3221
aF-1.0
aF0.08424830214147325
ag1
(g20
g3
Ntp3222
Rp3223
(lp3224
g1
(g24
g3
Ntp3225
Rp3226
(lp3227
I0
ag1
(g28
g3
Ntp3228
Rp3229
(lp3230
I0
aI0
abaS'shadowhandnew'
p3231
abag1
(g33
g3
Ntp3232
Rp3233
(lp3234
F0.960429138778732
aF-0.1920858277557464
aF0.2016901191435337
abababag1
(g2
g3
Ntp3235
Rp3236
(lp3237
I0
ag1
(g7
g3
Ntp3238
Rp3239
(lp3240
g1
(g11
g3
Ntp3241
Rp3242
(lp3243
F0.13406519487604396
aF0.008450435558646358
aF-0.02674414539260058
abag1
(g15
g3
Ntp3244
Rp3245
(lp3246
F0.12019591062158182
aF0.276459389046695
aF0.9528415194794837
aF-0.03487388756370114
ababa(F-0.3490658503988659
F1.5436567142618043
F1.5707963267948966
F1.2913213978317362
F-0.3490658503988659
F0.060000000000000005
F0.4965000000000004
F0.4965000000000004
F-0.3490658503988659
F0.02
F1.05847406953849
F1.5707963267948966
F1.0471975511965976
F0.19500000000000003
F0.0
F0.5235987755982988
F1.5707963267948966
tp3247
aF-1.0
aF0.02738407879089502
ag1
(g20
g3
Ntp3248
Rp3249
(lp3250
g1
(g24
g3
Ntp3251
Rp3252
(lp3253
I0
ag1
(g28
g3
Ntp3254
Rp3255
(lp3256
I0
aI0
abaS'shadowhandnew'
p3257
abag1
(g33
g3
Ntp3258
Rp3259
(lp3260
F0.960429138778732
aF-0.1920858277557464
aF0.2016901191435337
abababag1
(g2
g3
Ntp3261
Rp3262
(lp3263
I0
ag1
(g7
g3
Ntp3264
Rp3265
(lp3266
g1
(g11
g3
Ntp3267
Rp3268
(lp3269
F0.1301781652369902
aF-0.014651085165310843
aF-0.05322734643850859
abag1
(g15
g3
Ntp3270
Rp3271
(lp3272
F0.06090825258071673
aF0.2622176111372686
aF0.9629418562432515
aF-0.016585857584973832
ababa(F0.07405729533444266
F0.24707350124641783
F1.5707963267948966
F0.002125
F-0.3490658503988659
F0.6443750000000004
F0.06443750000000005
F1.5707963267948966
F-0.3490658503988659
F1.5707963267948966
F1.5707963267948966
F1.5707963267948966
F0.024833721286742123
F1.2217304763960306
F0.0
F-0.43797377559829875
F0.085625
tp3273
aF-1.0
aF0.23974581824902252
ag1
(g20
g3
Ntp3274
Rp3275
(lp3276
g1
(g24
g3
Ntp3277
Rp3278
(lp3279
I0
ag1
(g28
g3
Ntp3280
Rp3281
(lp3282
I0
aI0
abaS'shadowhandnew'
p3283
abag1
(g33
g3
Ntp3284
Rp3285
(lp3286
F0.960429138778732
aF-0.1920858277557464
aF0.2016901191435337
abababag1
(g2
g3
Ntp3287
Rp3288
(lp3289
I0
ag1
(g7
g3
Ntp3290
Rp3291
(lp3292
g1
(g11
g3
Ntp3293
Rp3294
(lp3295
F0.07398119998559793
aF-0.008308832580178527
aF-0.10665140345041747
abag1
(g15
g3
Ntp3296
Rp3297
(lp3298
F0.44689351414301876
aF0.20621397392839744
aF0.863934926419067
aF-0.10666970932201511
ababa(F-0.3490658503988659
F0.17644061849292253
F0.0032500000000000003
F1.5707963267948966
F-0.3490658503988659
F0.26750000000000007
F0.026750000000000017
F1.5707963267948966
F-0.3490658503988659
F0.44272926712963645
F0.03960194271984485
F1.5707963267948966
F0.6838805017131421
F0.8822292662342551
F0.0
F-0.37609877559829863
F0.2212825649052852
tp3299
aF-1.0
aF0.07485475935670215
ag1
(g20
g3
Ntp3300
Rp3301
(lp3302
g1
(g24
g3
Ntp3303
Rp3304
(lp3305
I0
ag1
(g28
g3
Ntp3306
Rp3307
(lp3308
I0
aI0
abaS'shadowhandnew'
p3309
abag1
(g33
g3
Ntp3310
Rp3311
(lp3312
F0.960429138778732
aF-0.1920858277557464
aF0.2016901191435337
abababag1
(g2
g3
Ntp3313
Rp3314
(lp3315
I0
ag1
(g7
g3
Ntp3316
Rp3317
(lp3318
g1
(g11
g3
Ntp3319
Rp3320
(lp3321
F0.06581263543124782
aF0.0402292403197941
aF-0.11960501012986793
abag1
(g15
g3
Ntp3322
Rp3323
(lp3324
F0.3765791805656296
aF-0.3028107626194309
aF0.8655264102862719
aF0.1317489882440013
ababa(F-0.3490658503988659
F0.5675000000000003
F0.05675000000000004
F0.6335055677960106
F-0.3490658503988659
F0.2900000000000001
F0.05600000000000004
F0.9418468700879615
F-0.3490658503988659
F0.060000000000000005
F0.10575000000000008
F1.5707963267948966
F-0.7996975511965974
F0.24750000000000008
F0.0
F-0.2584403894942156
F0.24750000000000008
tp3325
aF-1.0
aF0.3036508718536782
ag1
(g20
g3
Ntp3326
Rp3327
(lp3328
g1
(g24
g3
Ntp3329
Rp3330
(lp3331
I0
ag1
(g28
g3
Ntp3332
Rp3333
(lp3334
I0
aI0
abaS'shadowhandnew'
p3335
abag1
(g33
g3
Ntp3336
Rp3337
(lp3338
F0.960429138778732
aF-0.1920858277557464
aF0.2016901191435337
abababag1
(g2
g3
Ntp3339
Rp3340
(lp3341
I0
ag1
(g7
g3
Ntp3342
Rp3343
(lp3344
g1
(g11
g3
Ntp3345
Rp3346
(lp3347
F0.10985557702815522
aF-0.024162957982165827
aF-0.07817083362221529
abag1
(g15
g3
Ntp3348
Rp3349
(lp3350
F0.28091696372010816
aF0.46737343978243495
aF0.8229172573556475
aF-0.1595459646198212
ababa(F-0.3490658503988659
F0.6742288046576508
F0.059750000000000046
F0.4707500000000004
F-0.3490658503988659
F0.1425
F1.509556445761413
F0.014250000000000006
F-0.3490658503988659
F1.5707963267948966
F1.5707963267948966
F0.014250000000000006
F0.11870454764432825
F1.2217304763960306
F0.0
F0.5235987755982988
F1.4875000000000012
tp3351
aF-1.0
aF0.0006975019808742242
ag1
(g20
g3
Ntp3352
Rp3353
(lp3354
g1
(g24
g3
Ntp3355
Rp3356
(lp3357
I0
ag1
(g28
g3
Ntp3358
Rp3359
(lp3360
I0
aI0
abaS'shadowhandnew'
p3361
abag1
(g33
g3
Ntp3362
Rp3363
(lp3364
F0.960429138778732
aF-0.1920858277557464
aF0.2016901191435337
abababag1
(g2
g3
Ntp3365
Rp3366
(lp3367
I0
ag1
(g7
g3
Ntp3368
Rp3369
(lp3370
g1
(g11
g3
Ntp3371
Rp3372
(lp3373
F0.13074035306547654
aF-0.023511684789149386
aF0.019704374567192928
abag1
(g15
g3
Ntp3374
Rp3375
(lp3376
F-0.2133666570470323
aF0.40622613119664885
aF0.8830749041498761
aF0.09815148319951301
ababa(F-0.3490658503988659
F0.33875000000000016
F1.5707963267948966
F0.03387500000000002
F-0.3490658503988659
F0.6712500000000005
F1.5707963267948966
F0.06712500000000005
F0.1883723010738847
F1.5707963267948966
F1.0492834979564953
F1.5707963267948966
F-0.7946975511965975
F1.2217304763960306
F0.0
F0.5235987755982988
F0.25250000000000006
tp3377
aF-1.0
aF0.014535699460233122
ag1
(g20
g3
Ntp3378
Rp3379
(lp3380
g1
(g24
g3
Ntp3381
Rp3382
(lp3383
I0
ag1
(g28
g3
Ntp3384
Rp3385
(lp3386
I0
aI0
abaS'shadowhandnew'
p3387
abag1
(g33
g3
Ntp3388
Rp3389
(lp3390
F0.960429138778732
aF-0.1920858277557464
aF0.2016901191435337
abababag1
(g2
g3
Ntp3391
Rp3392
(lp3393
I0
ag1
(g7
g3
Ntp3394
Rp3395
(lp3396
g1
(g11
g3
Ntp3397
Rp3398
(lp3399
F0.04257809125636425
aF0.01580447491481888
aF-0.12487717726927722
abag1
(g15
g3
Ntp3400
Rp3401
(lp3402
F0.48284627162570076
aF-0.08685124484708455
aF0.870053553429311
aF0.04819910176238682
ababa(F-0.3490658503988659
F0.2712500000000001
F0.027125000000000017
F1.5707963267948966
F-0.3490658503988659
F0.4862500000000003
F0.048625000000000036
F0.1256250000000001
F-0.3490658503988659
F0.24125000000000008
F0.024125000000000014
F1.5707963267948966
F0.8090524488034037
F1.2217304763960306
F0.0
F0.5235987755982988
F1.5707963267948966
tp3403
aF-1.0
aF0.014256746835722046
ag1
(g20
g3
Ntp3404
Rp3405
(lp3406
g1
(g24
g3
Ntp3407
Rp3408
(lp3409
I0
ag1
(g28
g3
Ntp3410
Rp3411
(lp3412
I0
aI0
abaS'shadowhandnew'
p3413
abag1
(g33
g3
Ntp3414
Rp3415
(lp3416
F0.960429138778732
aF-0.1920858277557464
aF0.2016901191435337
abababag1
(g2
g3
Ntp3417
Rp3418
(lp3419
I0
ag1
(g7
g3
Ntp3420
Rp3421
(lp3422
g1
(g11
g3
Ntp3423
Rp3424
(lp3425
F0.09221527054319645
aF-0.0006333970488781269
aF-0.10597648751323872
abag1
(g15
g3
Ntp3426
Rp3427
(lp3428
F0.2885844368410072
aF0.061496704540608516
aF0.955296841828675
aF-0.018577463119690812
ababa(F-0.3490658503988659
F0.5800000000000004
F0.05800000000000005
F1.000765048140221
F-0.3490658503988659
F0.01
F1.5707963267948966
F0.001
F-0.3490658503988659
F1.5707963267948966
F1.3411128142385156
F1.5707963267948966
F1.0471975511965976
F0.4062500000000002
F0.0
F-0.11734877559829848
F1.5707963267948966
tp3429
aF-1.0
aF0.0
ag1
(g20
g3
Ntp3430
Rp3431
(lp3432
g1
(g24
g3
Ntp3433
Rp3434
(lp3435
I0
ag1
(g28
g3
Ntp3436
Rp3437
(lp3438
I0
aI0
abaS'shadowhandnew'
p3439
abag1
(g33
g3
Ntp3440
Rp3441
(lp3442
F0.960429138778732
aF-0.1920858277557464
aF0.2016901191435337
abababag1
(g2
g3
Ntp3443
Rp3444
(lp3445
I0
ag1
(g7
g3
Ntp3446
Rp3447
(lp3448
g1
(g11
g3
Ntp3449
Rp3450
(lp3451
F0.12909361710441344
aF0.0024321437370398193
aF0.02214962393677446
abag1
(g15
g3
Ntp3452
Rp3453
(lp3454
F-0.1084351692437055
aF0.49337840103287545
aF0.8607884283075324
aF0.06215182344211875
ababa(F-0.3490658503988659
F0.6400000000000003
F0.06400000000000004
F0.8891238697223398
F-0.3490658503988659
F0.34750000000000014
F1.5707963267948966
F0.034750000000000024
F-0.3490658503988659
F0.3025000000000001
F0.4990000000000004
F0.4990000000000004
F1.0471975511965976
F0.3025000000000001
F0.0
F0.5235987755982988
F0.3025000000000001
tp3455
aF-1.0
aF0.0
ag1
(g20
g3
Ntp3456
Rp3457
(lp3458
g1
(g24
g3
Ntp3459
Rp3460
(lp3461
I0
ag1
(g28
g3
Ntp3462
Rp3463
(lp3464
I0
aI0
abaS'shadowhandnew'
p3465
abag1
(g33
g3
Ntp3466
Rp3467
(lp3468
F0.960429138778732
aF-0.1920858277557464
aF0.2016901191435337
abababag1
(g2
g3
Ntp3469
Rp3470
(lp3471
I0
ag1
(g7
g3
Ntp3472
Rp3473
(lp3474
g1
(g11
g3
Ntp3475
Rp3476
(lp3477
F0.15117773746668003
aF0.030512209822372252
aF-0.0053722547128104235
abag1
(g15
g3
Ntp3478
Rp3479
(lp3480
F-0.12348206985764516
aF0.17197785856287454
aF0.9770892601584232
aF0.021734126871465052
ababa(F0.3490658503988659
F1.544496054956804
F1.5707963267948966
F0.5913368675208011
F-0.3490658503988659
F0.4325000000000002
F1.2076388765442458
F0.04325000000000003
F-0.3490658503988659
F1.0103832278954146
F0.03050000000000002
F1.5707963267948966
F1.0471975511965976
F0.3825000000000002
F0.0
F-0.14109877559829848
F1.5707963267948966
tp3481
aF-1.0
aF0.06453796924766453
ag1
(g20
g3
Ntp3482
Rp3483
(lp3484
g1
(g24
g3
Ntp3485
Rp3486
(lp3487
I0
ag1
(g28
g3
Ntp3488
Rp3489
(lp3490
I0
aI0
abaS'shadowhandnew'
p3491
abag1
(g33
g3
Ntp3492
Rp3493
(lp3494
F0.960429138778732
aF-0.1920858277557464
aF0.2016901191435337
abababag1
(g2
g3
Ntp3495
Rp3496
(lp3497
I0
ag1
(g7
g3
Ntp3498
Rp3499
(lp3500
g1
(g11
g3
Ntp3501
Rp3502
(lp3503
F0.15725360964243243
aF0.03469663944113827
aF-0.03726494558353517
abag1
(g15
g3
Ntp3504
Rp3505
(lp3506
F-0.10459844481331636
aF0.04075877416311525
aF0.9936697034666175
aF0.004290464301251851
ababa(F0.06807929635123436
F0.2618750000000001
F1.5707963267948966
F0.026187500000000016
F-0.3490658503988659
F1.5018750000000012
F1.5707963267948966
F1.5707963267948966
F-0.3490658503988659
F0.4300423226661291
F1.400317501970052
F0.011187500000000003
F0.213315772233804
F0.6752633744338047
F0.0
F-0.41797377559829874
F0.41889139716160784
tp3507
aF-1.0
aF0.12618342315161823
ag1
(g20
g3
Ntp3508
Rp3509
(lp3510
g1
(g24
g3
Ntp3511
Rp3512
(lp3513
I0
ag1
(g28
g3
Ntp3514
Rp3515
(lp3516
I0
aI0
abaS'shadowhandnew'
p3517
abag1
(g33
g3
Ntp3518
Rp3519
(lp3520
F0.960429138778732
aF-0.1920858277557464
aF0.2016901191435337
abababag1
(g2
g3
Ntp3521
Rp3522
(lp3523
I0
ag1
(g7
g3
Ntp3524
Rp3525
(lp3526
g1
(g11
g3
Ntp3527
Rp3528
(lp3529
F0.15914747725310058
aF0.08188930095878658
aF-0.02467781978145863
abag1
(g15
g3
Ntp3530
Rp3531
(lp3532
F-0.14448699696120434
aF-0.4115655209816059
aF0.8974109636256828
aF-0.06626380620441077
ababa(F-0.3490658503988659
F0.9637500000000008
F0.14975217858232512
F0.09637500000000007
F-0.3490658503988659
F0.22625000000000006
F1.3002686177593283
F0.10206572766236767
F-0.3490658503988659
F0.6845227233737711
F0.00775
F1.5707963267948966
F-0.7327425243259829
F0.2662500000000001
F0.0
F-0.2573487755982986
F0.7862500000000006
tp3533
aF-1.0
aF0.23063047694314703
ag1
(g20
g3
Ntp3534
Rp3535
(lp3536
g1
(g24
g3
Ntp3537
Rp3538
(lp3539
I0
ag1
(g28
g3
Ntp3540
Rp3541
(lp3542
I0
aI0
abaS'shadowhandnew'
p3543
abag1
(g33
g3
Ntp3544
Rp3545
(lp3546
F0.960429138778732
aF-0.1920858277557464
aF0.2016901191435337
abababag1
(g2
g3
Ntp3547
Rp3548
(lp3549
I0
ag1
(g7
g3
Ntp3550
Rp3551
(lp3552
g1
(g11
g3
Ntp3553
Rp3554
(lp3555
F0.10061463392080168
aF0.09945447625140141
aF0.08723917689038072
abag1
(g15
g3
Ntp3556
Rp3557
(lp3558
F-0.27421092513920253
aF0.45822912184726095
aF0.83187718540166
aF0.1510456514885581
ababa(F-0.3490658503988659
F1.54980704147718
F0.4962500000000004
F0.4962500000000004
F-0.3490658503988659
F1.502500000000001
F0.2552500000000002
F1.3706925958577632
F-0.3490658503988659
F1.5707963267948966
F1.5707963267948966
F0.11925000000000009
F0.14530244880340315
F1.2217304763960306
F0.0
F0.5235987755982988
F1.472500000000001
tp3559
aF-1.0
aF0.0
ag1
(g20
g3
Ntp3560
Rp3561
(lp3562
g1
(g24
g3
Ntp3563
Rp3564
(lp3565
I0
ag1
(g28
g3
Ntp3566
Rp3567
(lp3568
I0
aI0
abaS'shadowhandnew'
p3569
abag1
(g33
g3
Ntp3570
Rp3571
(lp3572
F0.960429138778732
aF-0.1920858277557464
aF0.2016901191435337
abababag1
(g2
g3
Ntp3573
Rp3574
(lp3575
I0
ag1
(g7
g3
Ntp3576
Rp3577
(lp3578
g1
(g11
g3
Ntp3579
Rp3580
(lp3581
F0.06014810365475178
aF0.024402884444459556
aF0.1071556661065656
abag1
(g15
g3
Ntp3582
Rp3583
(lp3584
F-0.4334957433998856
aF-0.09306064899707797
aF0.8952041109749831
aF-0.045063907463882835
ababa(F-0.3490658503988659
F1.545000000000001
F1.4963828576289095
F1.5707963267948966
F-0.3490658503988659
F1.4975925588818122
F1.5707963267948966
F1.3608001914808174
F-0.3490658503988659
F1.5707963267948966
F0.4985000000000004
F0.4985000000000004
F1.0471975511965976
F0.19500000000000003
F0.0
F0.5235987755982988
F1.5707963267948966
tp3585
aF-1.0
aF0.0
ag1
(g20
g3
Ntp3586
Rp3587
(lp3588
g1
(g24
g3
Ntp3589
Rp3590
(lp3591
I0
ag1
(g28
g3
Ntp3592
Rp3593
(lp3594
I0
aI0
abaS'shadowhandnew'
p3595
abag1
(g33
g3
Ntp3596
Rp3597
(lp3598
F0.960429138778732
aF-0.1920858277557464
aF0.2016901191435337
abababag1
(g2
g3
Ntp3599
Rp3600
(lp3601
I0
ag1
(g7
g3
Ntp3602
Rp3603
(lp3604
g1
(g11
g3
Ntp3605
Rp3606
(lp3607
F0.13417502662238825
aF0.013827391742431508
aF-0.0666931882932081
abag1
(g15
g3
Ntp3608
Rp3609
(lp3610
F0.2055663272459529
aF0.40937551403323585
aF0.8837915477155607
aF-0.09521908316701891
ababa(F-0.3490658503988659
F0.20625000000000004
F0.02062500000000001
F1.5707963267948966
F-0.3490658503988659
F0.33625000000000016
F1.5707963267948966
F1.5707963267948966
F-0.3490658503988659
F1.2412500000000009
F0.1241250000000001
F0.1241250000000001
F0.5587662569611804
F1.2217304763960306
F0.0
F-0.40609877559829877
F0.3387999057448751
tp3611
aF-1.0
aF0.05025430512347254
ag1
(g20
g3
Ntp3612
Rp3613
(lp3614
g1
(g24
g3
Ntp3615
Rp3616
(lp3617
I0
ag1
(g28
g3
Ntp3618
Rp3619
(lp3620
I0
aI0
abaS'shadowhandnew'
p3621
abag1
(g33
g3
Ntp3622
Rp3623
(lp3624
F0.960429138778732
aF-0.1920858277557464
aF0.2016901191435337
abababag1
(g2
g3
Ntp3625
Rp3626
(lp3627
I0
ag1
(g7
g3
Ntp3628
Rp3629
(lp3630
g1
(g11
g3
Ntp3631
Rp3632
(lp3633
F0.15831898520617402
aF-0.019550964704985782
aF0.0009840095265041668
abag1
(g15
g3
Ntp3634
Rp3635
(lp3636
F0.13671558491732688
aF-0.3982664653349583
aF0.9050265570166511
aF0.060163132605426224
ababa(F-0.3490658503988659
F1.5492117723936893
F1.5707963267948966
F1.5707963267948966
F-0.3490658503988659
F1.4928628042311685
F1.5707963267948966
F1.5707963267948966
F-0.3490658503988659
F1.5707963267948966
F1.5707963267948966
F1.5195820647980756
F0.3877459142364332
F0.18750000000000003
F0.0
F0.5235987755982988
F0.8475853360513971
tp3637
aF-1.0
aF0.0
ag1
(g20
g3
Ntp3638
Rp3639
(lp3640
g1
(g24
g3
Ntp3641
Rp3642
(lp3643
I0
ag1
(g28
g3
Ntp3644
Rp3645
(lp3646
I0
aI0
abaS'shadowhandnew'
p3647
abag1
(g33
g3
Ntp3648
Rp3649
(lp3650
F0.960429138778732
aF-0.1920858277557464
aF0.2016901191435337
abababag1
(g2
g3
Ntp3651
Rp3652
(lp3653
I0
ag1
(g7
g3
Ntp3654
Rp3655
(lp3656
g1
(g11
g3
Ntp3657
Rp3658
(lp3659
F0.15089835726744788
aF0.04697866222496516
aF-0.008069076681421077
abag1
(g15
g3
Ntp3660
Rp3661
(lp3662
F0.056671864433874196
aF0.4041037175572262
aF0.9126109590402701
aF-0.02509427579382943
ababa(F-0.3490658503988659
F1.543349833107623
F1.5707963267948966
F1.2083795342142727
F-0.3490658503988659
F0.2903362580569511
F0.4978750000000004
F1.5707963267948966
F-0.3490658503988659
F1.149450170798255
F0.10987500000000008
F1.2052630574757963
F0.36736395444328984
F1.2217304763960306
F0.0
F-0.2698487755982986
F1.5707963267948966
tp3663
aF-1.0
aF0.0019162719978519519
ag1
(g20
g3
Ntp3664
Rp3665
(lp3666
g1
(g24
g3
Ntp3667
Rp3668
(lp3669
I0
ag1
(g28
g3
Ntp3670
Rp3671
(lp3672
I0
aI0
abaS'shadowhandnew'
p3673
abag1
(g33
g3
Ntp3674
Rp3675
(lp3676
F0.960429138778732
aF-0.1920858277557464
aF0.2016901191435337
abababag1
(g2
g3
Ntp3677
Rp3678
(lp3679
I0
ag1
(g7
g3
Ntp3680
Rp3681
(lp3682
g1
(g11
g3
Ntp3683
Rp3684
(lp3685
F0.1106696624534317
aF0.08942080753786738
aF0.0944423501143418
abag1
(g15
g3
Ntp3686
Rp3687
(lp3688
F-0.20245699542198542
aF0.32098547643425185
aF0.922505835550589
aF0.07044481739694036
ababa(F-0.3490658503988659
F1.5478659628952687
F1.5707963267948966
F1.5707963267948966
F-0.3490658503988659
F1.4962500000000012
F0.6740487735090931
F1.47471320432863
F-0.3490658503988659
F1.5707963267948966
F0.49862500000000043
F0.49862500000000043
F1.0471975511965976
F0.23625000000000007
F0.0
F0.5235987755982988
F1.3087509709834895
tp3689
aF-1.0
aF0.0
ag1
(g20
g3
Ntp3690
Rp3691
(lp3692
g1
(g24
g3
Ntp3693
Rp3694
(lp3695
I0
ag1
(g28
g3
Ntp3696
Rp3697
(lp3698
I0
aI0
abaS'shadowhandnew'
p3699
abag1
(g33
g3
Ntp3700
Rp3701
(lp3702
F0.960429138778732
aF-0.1920858277557464
aF0.2016901191435337
abababag1
(g2
g3
Ntp3703
Rp3704
(lp3705
I0
ag1
(g7
g3
Ntp3706
Rp3707
(lp3708
g1
(g11
g3
Ntp3709
Rp3710
(lp3711
F0.1119067088524195
aF0.08061281698445495
aF-0.10296412814817478
abag1
(g15
g3
Ntp3712
Rp3713
(lp3714
F0.24169761285503918
aF-0.3943334494671995
aF0.8799729778916356
aF0.10830952290543204
ababa(F-0.3490658503988659
F0.0
F1.5707963267948966
F1.5707963267948966
F-0.3490658503988659
F0.47250000000000025
F0.047250000000000035
F0.4986875000000004
F-0.3490658503988659
F0.2775000000000001
F0.027750000000000018
F1.5707963267948966
F-0.44032255119659713
F0.6068750000000003
F0.0
F0.08327622440170152
F0.6068750000000003
tp3715
aF-1.0
aF0.061498291569020584
ag1
(g20
g3
Ntp3716
Rp3717
(lp3718
g1
(g24
g3
Ntp3719
Rp3720
(lp3721
I0
ag1
(g28
g3
Ntp3722
Rp3723
(lp3724
I0
aI0
abaS'shadowhandnew'
p3725
abag1
(g33
g3
Ntp3726
Rp3727
(lp3728
F0.960429138778732
aF-0.1920858277557464
aF0.2016901191435337
abababag1
(g2
g3
Ntp3729
Rp3730
(lp3731
I0
ag1
(g7
g3
Ntp3732
Rp3733
(lp3734
g1
(g11
g3
Ntp3735
Rp3736
(lp3737
F0.16315257903339006
aF0.058049333233621374
aF-0.01013300637772862
abag1
(g15
g3
Ntp3738
Rp3739
(lp3740
F-0.24779461059527003
aF-0.17812993423315426
aF0.9511645761703929
aF-0.046405888943406456
ababa(F-0.3490658503988659
F1.0025000000000006
F0.10025000000000008
F0.10025000000000008
F-0.3490658503988659
F1.0168750000000006
F0.10168750000000007
F0.10168750000000007
F-0.3490658503988659
F0.3000000000000001
F1.5707963267948966
F0.03000000000000002
F-0.7121975511965973
F0.33500000000000013
F0.0
F-0.18859877559829852
F1.5707963267948966
tp3741
aF-1.0
aF0.05669578344049119
ag1
(g20
g3
Ntp3742
Rp3743
(lp3744
g1
(g24
g3
Ntp3745
Rp3746
(lp3747
I0
ag1
(g28
g3
Ntp3748
Rp3749
(lp3750
I0
aI0
abaS'shadowhandnew'
p3751
abag1
(g33
g3
Ntp3752
Rp3753
(lp3754
F0.960429138778732
aF-0.1920858277557464
aF0.2016901191435337
abababag1
(g2
g3
Ntp3755
Rp3756
(lp3757
I0
ag1
(g7
g3
Ntp3758
Rp3759
(lp3760
g1
(g11
g3
Ntp3761
Rp3762
(lp3763
F0.10657701102733441
aF0.07941352057625806
aF0.10046159180354801
abag1
(g15
g3
Ntp3764
Rp3765
(lp3766
F-0.21447124116996713
aF0.25004058221548625
aF0.942467064298256
aF0.05690014647943786
ababa(F-0.3490658503988659
F1.5493572835439906
F1.5707963267948966
F1.5707963267948966
F-0.3490658503988659
F1.493750000000001
F0.6390098103878038
F0.4983750000000004
F-0.3490658503988659
F0.12374999999999997
F0.4983750000000004
F0.4983750000000004
F1.0471975511965976
F0.25890370447303257
F0.0
F0.5235987755982988
F1.1803452812149868
tp3767
aF-1.0
aF0.0
ag1
(g20
g3
Ntp3768
Rp3769
(lp3770
g1
(g24
g3
Ntp3771
Rp3772
(lp3773
I0
ag1
(g28
g3
Ntp3774
Rp3775
(lp3776
I0
aI0
abaS'shadowhandnew'
p3777
abag1
(g33
g3
Ntp3778
Rp3779
(lp3780
F0.960429138778732
aF-0.1920858277557464
aF0.2016901191435337
abababag1
(g2
g3
Ntp3781
Rp3782
(lp3783
I0
ag1
(g7
g3
Ntp3784
Rp3785
(lp3786
g1
(g11
g3
Ntp3787
Rp3788
(lp3789
F0.16924928017081278
aF-0.007169212378605806
aF-0.052022129757303505
abag1
(g15
g3
Ntp3790
Rp3791
(lp3792
F0.45472538409737545
aF-0.22225050954020203
aF0.8543037959902988
aF0.11829860617598546
ababa(F-0.3490658503988659
F1.5412500000000011
F0.49812500000000043
F1.5707963267948966
F-0.3490658503988659
F1.4927654396039864
F1.5707963267948966
F1.5707963267948966
F-0.3490658503988659
F1.5707963267948966
F0.49812500000000043
F0.49812500000000043
F0.9544347456457904
F0.3212500000000001
F0.0
F0.5235987755982988
F0.3212500000000001
tp3793
aF-1.0
aF0.0
ag1
(g20
g3
Ntp3794
Rp3795
(lp3796
g1
(g24
g3
Ntp3797
Rp3798
(lp3799
I0
ag1
(g28
g3
Ntp3800
Rp3801
(lp3802
I0
aI0
abaS'shadowhandnew'
p3803
abag1
(g33
g3
Ntp3804
Rp3805
(lp3806
F0.960429138778732
aF-0.1920858277557464
aF0.2016901191435337
abababag1
(g2
g3
Ntp3807
Rp3808
(lp3809
I0
ag1
(g7
g3
Ntp3810
Rp3811
(lp3812
g1
(g11
g3
Ntp3813
Rp3814
(lp3815
F0.18003512529982363
aF-0.004827648523720356
aF0.00402914229850893
abag1
(g15
g3
Ntp3816
Rp3817
(lp3818
F0.28031906111925825
aF-0.21404197158835017
aF0.9335289663963913
aF0.06427229006869863
ababa(F-0.3490658503988659
F1.549566430118372
F1.5707963267948966
F1.5707963267948966
F-0.3490658503988659
F1.4972793935710227
F1.5707963267948966
F0.49812500000000043
F-0.3490658503988659
F1.5707963267948966
F1.5707963267948966
F1.341544592137467
F1.0471975511965976
F0.2812500000000001
F0.0
F0.5235987755982988
F0.8817627815138376
tp3819
aF-1.0
aF0.0
ag1
(g20
g3
Ntp3820
Rp3821
(lp3822
g1
(g24
g3
Ntp3823
Rp3824
(lp3825
I0
ag1
(g28
g3
Ntp3826
Rp3827
(lp3828
I0
aI0
abaS'shadowhandnew'
p3829
abag1
(g33
g3
Ntp3830
Rp3831
(lp3832
F0.960429138778732
aF-0.1920858277557464
aF0.2016901191435337
abababag1
(g2
g3
Ntp3833
Rp3834
(lp3835
I0
ag1
(g7
g3
Ntp3836
Rp3837
(lp3838
g1
(g11
g3
Ntp3839
Rp3840
(lp3841
F0.08661513915578657
aF0.03358232197328266
aF0.11496465932131991
abag1
(g15
g3
Ntp3842
Rp3843
(lp3844
F-0.28298187457419616
aF-0.027786272167883444
aF0.9586875984420122
aF-0.008201849484936335
ababa(F0.3490658503988659
F1.545107924977246
F1.5707963267948966
F1.5707963267948966
F0.1917270572208149
F1.2150000000000007
F1.5707963267948966
F1.5707963267948966
F-0.3490658503988659
F1.5707963267948966
F1.4659148393976025
F1.1677195387740458
F-0.347197551196597
F0.7000000000000004
F0.0
F0.5235987755982988
F1.5707963267948966
tp3845
aF-1.0
aF0.0
ag1
(g20
g3
Ntp3846
Rp3847
(lp3848
g1
(g24
g3
Ntp3849
Rp3850
(lp3851
I0
ag1
(g28
g3
Ntp3852
Rp3853
(lp3854
I0
aI0
abaS'shadowhandnew'
p3855
abag1
(g33
g3
Ntp3856
Rp3857
(lp3858
F0.960429138778732
aF-0.1920858277557464
aF0.2016901191435337
abababag1
(g2
g3
Ntp3859
Rp3860
(lp3861
I0
ag1
(g7
g3
Ntp3862
Rp3863
(lp3864
g1
(g11
g3
Ntp3865
Rp3866
(lp3867
F0.1250311164020095
aF0.04674483457443617
aF0.09276331164813471
abag1
(g15
g3
Ntp3868
Rp3869
(lp3870
F-0.13070945349198645
aF0.04967778892738176
aF0.9901535990073017
aF0.006557928636424056
ababa(F-0.3490658503988659
F1.5487500000000012
F0.4978750000000004
F1.5707963267948966
F-0.3490658503988659
F1.4987500000000011
F1.5707963267948966
F1.5707963267948966
F-0.15964803646921943
F1.5707963267948966
F0.4978750000000004
F0.4978750000000004
F1.0471975511965976
F0.4687500000000003
F0.0
F-0.0548487755982985
F0.7787500000000005
tp3871
aF-1.0
aF0.0
ag1
(g20
g3
Ntp3872
Rp3873
(lp3874
g1
(g24
g3
Ntp3875
Rp3876
(lp3877
I0
ag1
(g28
g3
Ntp3878
Rp3879
(lp3880
I0
aI0
abaS'shadowhandnew'
p3881
abag1
(g33
g3
Ntp3882
Rp3883
(lp3884
F0.960429138778732
aF-0.1920858277557464
aF0.2016901191435337
abababag1
(g2
g3
Ntp3885
Rp3886
(lp3887
I0
ag1
(g7
g3
Ntp3888
Rp3889
(lp3890
g1
(g11
g3
Ntp3891
Rp3892
(lp3893
F0.14814694637135312
aF-0.02542492779640427
aF0.030084546459212717
abag1
(g15
g3
Ntp3894
Rp3895
(lp3896
F-0.016533117335315862
aF-0.44566372063206977
aF0.895009904594922
aF-0.008232546419291597
ababa(F-0.3490658503988659
F1.542500000000001
F1.5707963267948966
F1.5707963267948966
F-0.3490658503988659
F0.9925000000000007
F0.859273252032259
F1.5707963267948966
F-0.3490658503988659
F1.5707963267948966
F1.5707963267948966
F1.5707963267948966
F0.44828273075731423
F1.2217304763960306
F0.0
F0.1439012244017015
F0.9925000000000007
tp3897
aF-1.0
aF0.0
ag1
(g20
g3
Ntp3898
Rp3899
(lp3900
g1
(g24
g3
Ntp3901
Rp3902
(lp3903
I0
ag1
(g28
g3
Ntp3904
Rp3905
(lp3906
I0
aI0
abaS'shadowhandnew'
p3907
abag1
(g33
g3
Ntp3908
Rp3909
(lp3910
F0.960429138778732
aF-0.1920858277557464
aF0.2016901191435337
abababag1
(g2
g3
Ntp3911
Rp3912
(lp3913
I0
ag1
(g7
g3
Ntp3914
Rp3915
(lp3916
g1
(g11
g3
Ntp3917
Rp3918
(lp3919
F0.06561827970990347
aF0.005298544585146992
aF0.10032522636935301
abag1
(g15
g3
Ntp3920
Rp3921
(lp3922
F-0.4368366339135105
aF-0.2273260310935797
aF0.8626972332831733
aF-0.11510914187810031
ababa(F-0.3490658503988659
F1.5504377364762538
F1.5707963267948966
F1.5707963267948966
F-0.3490658503988659
F1.4982510891309102
F1.5707963267948966
F1.5707963267948966
F-0.3490658503988659
F1.5707963267948966
F0.4985000000000004
F1.5707963267948966
F1.0471975511965976
F0.21500000000000005
F0.0
F0.4509607742494241
F1.5707963267948966
tp3923
aF-1.0
aF0.0
ag1
(g20
g3
Ntp3924
Rp3925
(lp3926
g1
(g24
g3
Ntp3927
Rp3928
(lp3929
I0
ag1
(g28
g3
Ntp3930
Rp3931
(lp3932
I0
aI0
abaS'shadowhandnew'
p3933
abag1
(g33
g3
Ntp3934
Rp3935
(lp3936
F0.960429138778732
aF-0.1920858277557464
aF0.2016901191435337
abababa.