(lp0
ccopy_reg
_reconstructor
p1
(cgraspit_interface.msg._Grasp
Grasp
p2
c__builtin__
object
p3
Ntp4
Rp5
(lp6
I0
ag1
(cgeometry_msgs.msg._Pose
Pose
p7
g3
Ntp8
Rp9
(lp10
g1
(cgeometry_msgs.msg._Point
Point
p11
g3
Ntp12
Rp13
(lp14
F0.07257757996044086
aF0.04651701046821589
aF0.10801855749384051
abag1
(cgeometry_msgs.msg._Quaternion
Quaternion
p15
g3
Ntp16
Rp17
(lp18
F-0.42587258988209126
aF0.4167410810340323
aF0.7692384158670422
aF0.2307198910368795
ababa(F0.13677682261076135
F1.5552301052731112
F0.2548750000000002
F0.4968750000000004
F-0.3490658503988659
F1.492791028850431
F0.8501723851901134
F1.5707963267948966
F-0.3490658503988659
F1.5707963267948966
F1.5707963267948966
F0.7009934223822388
F1.0471975511965976
F0.4687500000000003
F0.0
F-0.0548487755982985
F0.7649017609084543
tp19
aF-1.0
aF0.0
ag1
(cgeometry_msgs.msg._Vector3Stamped
Vector3Stamped
p20
g3
Ntp21
Rp22
(lp23
g1
(cstd_msgs.msg._Header
Header
p24
g3
Ntp25
Rp26
(lp27
I0
ag1
(cgenpy.rostime
Time
p28
g3
Ntp29
Rp30
(lp31
I0
aI0
abaS'shadowhandnew'
p32
abag1
(cgeometry_msgs.msg._Vector3
Vector3
p33
g3
Ntp34
Rp35
(lp36
F0.960429138778732
aF-0.1920858277557464
aF0.2016901191435337
abababag1
(g2
g3
Ntp37
Rp38
(lp39
I0
ag1
(g7
g3
Ntp40
Rp41
(lp42
g1
(g11
g3
Ntp43
Rp44
(lp45
F0.09879132665023739
aF0.046497063085981526
aF0.10017402973200949
abag1
(g15
g3
Ntp46
Rp47
(lp48
F-0.3044762406602007
aF0.33292789354028135
aF0.885062419031664
aF0.11453275074877832
ababa(F0.3490658503988659
F1.5453741850700868
F1.5707963267948966
F0.4985000000000004
F0.2598836548058048
F1.485000000000001
F0.7080544129144348
F0.4985000000000004
F-0.3490658503988659
F1.5707963267948966
F1.5707963267948966
F0.7436350652854608
F1.0471975511965976
F0.19500000000000003
F0.0
F0.5235987755982988
F1.5707963267948966
tp49
aF-1.0
aF0.0
ag1
(g20
g3
Ntp50
Rp51
(lp52
g1
(g24
g3
Ntp53
Rp54
(lp55
I0
ag1
(g28
g3
Ntp56
Rp57
(lp58
I0
aI0
abaS'shadowhandnew'
p59
abag1
(g33
g3
Ntp60
Rp61
(lp62
F0.960429138778732
aF-0.1920858277557464
aF0.2016901191435337
abababag1
(g2
g3
Ntp63
Rp64
(lp65
I0
ag1
(g7
g3
Ntp66
Rp67
(lp68
g1
(g11
g3
Ntp69
Rp70
(lp71
F0.05957706008364714
aF0.03209226790096831
aF-0.10191926945419484
abag1
(g15
g3
Ntp72
Rp73
(lp74
F0.4657134415375291
aF-0.12322541883087938
aF0.8738498928890921
aF0.06567230179418909
ababa(F-0.3490658503988659
F0.3537500000000001
F0.035375000000000024
F1.5707963267948966
F-0.3490658503988659
F0.12999999999999998
F1.3354976429867231
F0.013000000000000005
F-0.3490658503988659
F1.2863976993818111
F1.5707963267948966
F1.5707963267948966
F1.0471975511965976
F1.2217304763960306
F0.0
F-0.5210987755982989
F0.0025
tp75
aF-1.0
aF0.050886641520457424
ag1
(g20
g3
Ntp76
Rp77
(lp78
g1
(g24
g3
Ntp79
Rp80
(lp81
I0
ag1
(g28
g3
Ntp82
Rp83
(lp84
I0
aI0
abaS'shadowhandnew'
p85
abag1
(g33
g3
Ntp86
Rp87
(lp88
F0.960429138778732
aF-0.1920858277557464
aF0.2016901191435337
abababag1
(g2
g3
Ntp89
Rp90
(lp91
I0
ag1
(g7
g3
Ntp92
Rp93
(lp94
g1
(g11
g3
Ntp95
Rp96
(lp97
F0.12966441930553285
aF0.021715996546890312
aF0.0653193644780653
abag1
(g15
g3
Ntp98
Rp99
(lp100
F-0.40611499358692565
aF-0.05050413918692943
aF0.9121481938073661
aF-0.02248591654432919
ababa(F-0.3490658503988659
F1.2612500000000009
F0.3661250000000003
F0.4821250000000004
F-0.3490658503988659
F1.3816064279976996
F0.07787500000000006
F1.5707963267948966
F-0.3490658503988659
F1.5707963267948966
F0.05337500000000004
F1.5707963267948966
F1.0471975511965976
F0.43445389136821116
F0.0
F-0.1998487755982985
F1.5707963267948966
tp101
aF-1.0
aF0.014325857914292186
ag1
(g20
g3
Ntp102
Rp103
(lp104
g1
(g24
g3
Ntp105
Rp106
(lp107
I0
ag1
(g28
g3
Ntp108
Rp109
(lp110
I0
aI0
abaS'shadowhandnew'
p111
abag1
(g33
g3
Ntp112
Rp113
(lp114
F0.960429138778732
aF-0.1920858277557464
aF0.2016901191435337
abababag1
(g2
g3
Ntp115
Rp116
(lp117
I0
ag1
(g7
g3
Ntp118
Rp119
(lp120
g1
(g11
g3
Ntp121
Rp122
(lp123
F0.0805903549102226
aF0.03386241689567653
aF0.10917816669659666
abag1
(g15
g3
Ntp124
Rp125
(lp126
F-0.40163656376879153
aF0.17800735846647697
aF0.8947720874218714
aF0.07990220614283294
ababa(F-0.3490658503988659
F1.5479603409694458
F1.5707963267948966
F0.4982500000000004
F-0.3490658503988659
F1.372500000000001
F1.5707963267948966
F1.5707963267948966
F-0.3490658503988659
F1.5707963267948966
F1.5707963267948966
F0.7102241466291601
F0.10280244880340315
F1.2217304763960306
F0.0
F0.5235987755982988
F1.5707963267948966
tp127
aF-1.0
aF0.0
ag1
(g20
g3
Ntp128
Rp129
(lp130
g1
(g24
g3
Ntp131
Rp132
(lp133
I0
ag1
(g28
g3
Ntp134
Rp135
(lp136
I0
aI0
abaS'shadowhandnew'
p137
abag1
(g33
g3
Ntp138
Rp139
(lp140
F0.960429138778732
aF-0.1920858277557464
aF0.2016901191435337
abababag1
(g2
g3
Ntp141
Rp142
(lp143
I0
ag1
(g7
g3
Ntp144
Rp145
(lp146
g1
(g11
g3
Ntp147
Rp148
(lp149
F0.13240642446291187
aF0.0002793818880644423
aF-0.0487640792386735
abag1
(g15
g3
Ntp150
Rp151
(lp152
F0.12393530878905684
aF0.22881900901656171
aF0.965100236098454
aF-0.02938425821334123
ababa(F-0.3490658503988659
F0.31500000000000017
F1.5707963267948966
F0.03150000000000002
F-0.3490658503988659
F1.1825156485839965
F0.010000000000000002
F1.5707963267948966
F-0.3490658503988659
F0.8750000000000007
F1.5707963267948966
F0.1446359911457829
F0.8410942550879106
F1.2217304763960306
F0.0
F-0.41234877559829874
F0.11124999999999999
tp153
aF-1.0
aF0.0035985000102987056
ag1
(g20
g3
Ntp154
Rp155
(lp156
g1
(g24
g3
Ntp157
Rp158
(lp159
I0
ag1
(g28
g3
Ntp160
Rp161
(lp162
I0
aI0
abaS'shadowhandnew'
p163
abag1
(g33
g3
Ntp164
Rp165
(lp166
F0.960429138778732
aF-0.1920858277557464
aF0.2016901191435337
abababag1
(g2
g3
Ntp167
Rp168
(lp169
I0
ag1
(g7
g3
Ntp170
Rp171
(lp172
g1
(g11
g3
Ntp173
Rp174
(lp175
F0.14643565692149071
aF-0.006137632870474654
aF0.011023950998425111
abag1
(g15
g3
Ntp176
Rp177
(lp178
F-0.11968211122798988
aF0.3375080508444945
aF0.9326782990104072
aF0.04330933412342868
ababa(F-0.0921905040724425
F0.5225000000000003
F1.5707963267948966
F0.05225000000000004
F-0.3490658503988659
F1.362500000000001
F1.5707963267948966
F1.5707963267948966
F-0.3490658503988659
F1.5707963267948966
F1.5707963267948966
F1.5707963267948966
F0.3444192819066381
F1.2217304763960306
F0.0
F0.42996417812168697
F0.21250000000000005
tp179
aF-1.0
aF0.006365099022227192
ag1
(g20
g3
Ntp180
Rp181
(lp182
g1
(g24
g3
Ntp183
Rp184
(lp185
I0
ag1
(g28
g3
Ntp186
Rp187
(lp188
I0
aI0
abaS'shadowhandnew'
p189
abag1
(g33
g3
Ntp190
Rp191
(lp192
F0.960429138778732
aF-0.1920858277557464
aF0.2016901191435337
abababag1
(g2
g3
Ntp193
Rp194
(lp195
I0
ag1
(g7
g3
Ntp196
Rp197
(lp198
g1
(g11
g3
Ntp199
Rp200
(lp201
F0.06767728970755982
aF0.012986449295285998
aF-0.09424653909627856
abag1
(g15
g3
Ntp202
Rp203
(lp204
F0.4918360950613568
aF0.07684462126409146
aF0.8661918261748173
aF-0.04363347391062977
ababa(F-0.3152951504180803
F0.23000000000000007
F0.023000000000000013
F1.5707963267948966
F-0.3490658503988659
F0.04750000000000001
F1.5707963267948966
F0.00475
F-0.3490658503988659
F0.8858281010196818
F1.5707963267948966
F0.7229909834749992
F1.0471975511965976
F1.2217304763960306
F0.0
F-0.38109877559829863
F0.1425
tp205
aF-1.0
aF0.05099874174806751
ag1
(g20
g3
Ntp206
Rp207
(lp208
g1
(g24
g3
Ntp209
Rp210
(lp211
I0
ag1
(g28
g3
Ntp212
Rp213
(lp214
I0
aI0
abaS'shadowhandnew'
p215
abag1
(g33
g3
Ntp216
Rp217
(lp218
F0.960429138778732
aF-0.1920858277557464
aF0.2016901191435337
abababag1
(g2
g3
Ntp219
Rp220
(lp221
I0
ag1
(g7
g3
Ntp222
Rp223
(lp224
g1
(g11
g3
Ntp225
Rp226
(lp227
F0.14548137659968535
aF0.02791346653515688
aF0.007629675813135684
abag1
(g15
g3
Ntp228
Rp229
(lp230
F-0.08198158438903631
aF-0.3357536641279248
aF0.9379164215868543
aF-0.02934762279037744
ababa(F-0.3490658503988659
F0.5575000000000003
F0.05575000000000004
F1.5707963267948966
F-0.3490658503988659
F0.7275000000000005
F0.07275000000000005
F1.5707963267948966
F-0.3490658503988659
F1.0387209314186854
F0.05000000000000004
F0.9465113783107731
F-0.3454776690658796
F0.6175000000000004
F0.0
F0.0939012244017015
F1.1525000000000007
tp231
aF-1.0
aF0.2714717348933224
ag1
(g20
g3
Ntp232
Rp233
(lp234
g1
(g24
g3
Ntp235
Rp236
(lp237
I0
ag1
(g28
g3
Ntp238
Rp239
(lp240
I0
aI0
abaS'shadowhandnew'
p241
abag1
(g33
g3
Ntp242
Rp243
(lp244
F0.960429138778732
aF-0.1920858277557464
aF0.2016901191435337
abababag1
(g2
g3
Ntp245
Rp246
(lp247
I0
ag1
(g7
g3
Ntp248
Rp249
(lp250
g1
(g11
g3
Ntp251
Rp252
(lp253
F0.09435899141609502
aF0.04296774123971857
aF0.1057357833199712
abag1
(g15
g3
Ntp254
Rp255
(lp256
F-0.3144248372606421
aF0.2502048381971334
aF0.9116400678158574
aF0.08629569751189313
ababa(F-0.3490658503988659
F1.5463395267290005
F1.5707963267948966
F0.544237593269923
F-0.3490658503988659
F1.4965141068968664
F1.5707963267948966
F0.4985000000000004
F-0.3490658503988659
F1.5707963267948966
F1.5707963267948966
F0.4985000000000004
F1.0471975511965976
F0.19500000000000003
F0.0
F0.5235987755982988
F1.5707963267948966
tp257
aF-1.0
aF0.0
ag1
(g20
g3
Ntp258
Rp259
(lp260
g1
(g24
g3
Ntp261
Rp262
(lp263
I0
ag1
(g28
g3
Ntp264
Rp265
(lp266
I0
aI0
abaS'shadowhandnew'
p267
abag1
(g33
g3
Ntp268
Rp269
(lp270
F0.960429138778732
aF-0.1920858277557464
aF0.2016901191435337
abababag1
(g2
g3
Ntp271
Rp272
(lp273
I0
ag1
(g7
g3
Ntp274
Rp275
(lp276
g1
(g11
g3
Ntp277
Rp278
(lp279
F0.144214017073478
aF0.005461811720429672
aF-0.010706236266070234
abag1
(g15
g3
Ntp280
Rp281
(lp282
F-0.00836966914950889
aF0.242410426749484
aF0.9701354337857108
aF0.002091352402588972
ababa(F-0.3490658503988659
F0.3968750000000002
F1.5707963267948966
F0.03968750000000003
F-0.3490658503988659
F1.1868494668634804
F0.028187500000000018
F1.5707963267948966
F-0.3490658503988659
F0.9843750000000007
F1.5707963267948966
F0.09843750000000008
F0.6389431553616836
F1.2217304763960306
F0.0
F-0.40672377559829875
F0.11687499999999998
tp283
aF-1.0
aF0.0049018740488095585
ag1
(g20
g3
Ntp284
Rp285
(lp286
g1
(g24
g3
Ntp287
Rp288
(lp289
I0
ag1
(g28
g3
Ntp290
Rp291
(lp292
I0
aI0
abaS'shadowhandnew'
p293
abag1
(g33
g3
Ntp294
Rp295
(lp296
F0.960429138778732
aF-0.1920858277557464
aF0.2016901191435337
abababag1
(g2
g3
Ntp297
Rp298
(lp299
I0
ag1
(g7
g3
Ntp300
Rp301
(lp302
g1
(g11
g3
Ntp303
Rp304
(lp305
F0.15452021879921382
aF0.04691963089682821
aF-0.00187050048394957
abag1
(g15
g3
Ntp306
Rp307
(lp308
F-0.17221854865071948
aF-0.2823731282717126
aF0.9423072105007979
aF-0.05160725694019999
ababa(F-0.3490658503988659
F1.20791521067161
F0.007
F0.007
F-0.3490658503988659
F0.6200000000000003
F1.5707963267948966
F0.2714750531890945
F-0.3490658503988659
F1.2647075975413968
F1.5707963267948966
F1.5707963267948966
F-0.18286939827034626
F1.2217304763960306
F0.0
F-0.4823487755982988
F1.5707963267948966
tp309
aF-1.0
aF0.18040905422470715
ag1
(g20
g3
Ntp310
Rp311
(lp312
g1
(g24
g3
Ntp313
Rp314
(lp315
I0
ag1
(g28
g3
Ntp316
Rp317
(lp318
I0
aI0
abaS'shadowhandnew'
p319
abag1
(g33
g3
Ntp320
Rp321
(lp322
F0.960429138778732
aF-0.1920858277557464
aF0.2016901191435337
abababag1
(g2
g3
Ntp323
Rp324
(lp325
I0
ag1
(g7
g3
Ntp326
Rp327
(lp328
g1
(g11
g3
Ntp329
Rp330
(lp331
F0.12993079719213932
aF0.027541383204667726
aF0.07224862390816893
abag1
(g15
g3
Ntp332
Rp333
(lp334
F-0.48266313240795194
aF-0.09906267785836458
aF0.8684420545072323
aF-0.055057101566745835
ababa(F-0.3490658503988659
F0.6000000000000004
F1.5707963267948966
F0.12404933008317232
F-0.3490658503988659
F1.3636765067871297
F0.07700000000000005
F1.5707963267948966
F-0.3490658503988659
F1.5696027103417063
F0.01987500000000001
F1.5707963267948966
F1.0471975511965976
F0.4650000000000003
F0.0
F-0.05859877559829853
F0.8361157852161609
tp335
aF-1.0
aF0.0027394424802871446
ag1
(g20
g3
Ntp336
Rp337
(lp338
g1
(g24
g3
Ntp339
Rp340
(lp341
I0
ag1
(g28
g3
Ntp342
Rp343
(lp344
I0
aI0
abaS'shadowhandnew'
p345
abag1
(g33
g3
Ntp346
Rp347
(lp348
F0.960429138778732
aF-0.1920858277557464
aF0.2016901191435337
abababag1
(g2
g3
Ntp349
Rp350
(lp351
I0
ag1
(g7
g3
Ntp352
Rp353
(lp354
g1
(g11
g3
Ntp355
Rp356
(lp357
F0.13464527253335587
aF-0.010820732664583915
aF-0.034850722879445795
abag1
(g15
g3
Ntp358
Rp359
(lp360
F0.15510428710193527
aF0.46848814894241536
aF0.8656880789864544
aF-0.08393845557223574
ababa(F-0.3490658503988659
F0.11499999999999999
F1.5707963267948966
F0.7650656615885195
F-0.3490658503988659
F1.2175000000000007
F0.1217500000000001
F1.5707963267948966
F-0.3490658503988659
F1.2239330441602199
F1.5707963267948966
F0.08150000000000006
F1.0471975511965976
F1.2217304763960306
F0.0
F-0.22859877559829855
F0.2950000000000001
tp361
aF-1.0
aF0.0032976784774523347
ag1
(g20
g3
Ntp362
Rp363
(lp364
g1
(g24
g3
Ntp365
Rp366
(lp367
I0
ag1
(g28
g3
Ntp368
Rp369
(lp370
I0
aI0
abaS'shadowhandnew'
p371
abag1
(g33
g3
Ntp372
Rp373
(lp374
F0.960429138778732
aF-0.1920858277557464
aF0.2016901191435337
abababag1
(g2
g3
Ntp375
Rp376
(lp377
I0
ag1
(g7
g3
Ntp378
Rp379
(lp380
g1
(g11
g3
Ntp381
Rp382
(lp383
F0.12804565042108693
aF0.019816061073203342
aF-0.046286974272135996
abag1
(g15
g3
Ntp384
Rp385
(lp386
F0.25335167961439276
aF-0.12503181226645327
aF0.95869087909158
aF0.033041953703526764
ababa(F-0.3490658503988659
F0.09999999999999998
F0.2452500000000002
F1.5707963267948966
F-0.3490658503988659
F0.4301941053033842
F0.1442500000000001
F1.5707963267948966
F-0.3490658503988659
F0.6625000000000004
F0.3402500000000003
F0.4962500000000004
F-0.1423752470408679
F0.21750000000000005
F0.0
F0.5235987755982988
F0.21750000000000005
tp387
aF-1.0
aF0.2695356416429619
ag1
(g20
g3
Ntp388
Rp389
(lp390
g1
(g24
g3
Ntp391
Rp392
(lp393
I0
ag1
(g28
g3
Ntp394
Rp395
(lp396
I0
aI0
abaS'shadowhandnew'
p397
abag1
(g33
g3
Ntp398
Rp399
(lp400
F0.960429138778732
aF-0.1920858277557464
aF0.2016901191435337
abababag1
(g2
g3
Ntp401
Rp402
(lp403
I0
ag1
(g7
g3
Ntp404
Rp405
(lp406
g1
(g11
g3
Ntp407
Rp408
(lp409
F0.1325919033990929
aF0.04407170715635614
aF-0.046941398277688534
abag1
(g15
g3
Ntp410
Rp411
(lp412
F0.11910575618488525
aF-0.4269224061747253
aF0.8946062577200464
aF0.05683943699354693
ababa(F-0.3490658503988659
F0.4753677473114931
F0.026750000000000017
F1.5707963267948966
F-0.3490658503988659
F0.5212500000000003
F0.05212500000000004
F1.5707963267948966
F-0.3490658503988659
F0.06625
F1.5707963267948966
F0.006625000000000001
F-0.6246975511965973
F0.4225000000000002
F0.0
F0.39203055785430246
F0.4225000000000002
tp413
aF-1.0
aF0.10125425088914582
ag1
(g20
g3
Ntp414
Rp415
(lp416
g1
(g24
g3
Ntp417
Rp418
(lp419
I0
ag1
(g28
g3
Ntp420
Rp421
(lp422
I0
aI0
abaS'shadowhandnew'
p423
abag1
(g33
g3
Ntp424
Rp425
(lp426
F0.960429138778732
aF-0.1920858277557464
aF0.2016901191435337
abababag1
(g2
g3
Ntp427
Rp428
(lp429
I0
ag1
(g7
g3
Ntp430
Rp431
(lp432
g1
(g11
g3
Ntp433
Rp434
(lp435
F0.11871174730194278
aF0.04583159412254779
aF-0.06391418237316095
abag1
(g15
g3
Ntp436
Rp437
(lp438
F0.43297233385949047
aF0.4220381878869861
aF0.7592754358989734
aF-0.24066478454015475
ababa(F-0.3490658503988659
F1.5422809975185057
F1.5707963267948966
F1.5707963267948966
F-0.3490658503988659
F1.501250000000001
F0.49812500000000043
F1.5707963267948966
F-0.3490658503988659
F1.5707963267948966
F1.5707963267948966
F1.5707963267948966
F0.4273500994455022
F0.45125000000000026
F0.0
F-0.0723487755982985
F1.5707963267948966
tp439
aF-1.0
aF0.0
ag1
(g20
g3
Ntp440
Rp441
(lp442
g1
(g24
g3
Ntp443
Rp444
(lp445
I0
ag1
(g28
g3
Ntp446
Rp447
(lp448
I0
aI0
abaS'shadowhandnew'
p449
abag1
(g33
g3
Ntp450
Rp451
(lp452
F0.960429138778732
aF-0.1920858277557464
aF0.2016901191435337
abababag1
(g2
g3
Ntp453
Rp454
(lp455
I0
ag1
(g7
g3
Ntp456
Rp457
(lp458
g1
(g11
g3
Ntp459
Rp460
(lp461
F0.13045539596106642
aF0.0591080672532922
aF-0.055981485230161096
abag1
(g15
g3
Ntp462
Rp463
(lp464
F0.4345659246078265
aF0.3923123106939031
aF0.7807439563273635
aF-0.2183629609298504
ababa(F-0.3490658503988659
F1.550477526940356
F1.5707963267948966
F1.5707963267948966
F-0.3490658503988659
F1.4962500000000012
F0.49862500000000043
F1.5707963267948966
F-0.3490658503988659
F1.5707963267948966
F1.5707963267948966
F0.49862500000000043
F1.0471975511965976
F0.4062500000000002
F0.0
F-0.11734877559829848
F1.5707963267948966
tp465
aF-1.0
aF0.0
ag1
(g20
g3
Ntp466
Rp467
(lp468
g1
(g24
g3
Ntp469
Rp470
(lp471
I0
ag1
(g28
g3
Ntp472
Rp473
(lp474
I0
aI0
abaS'shadowhandnew'
p475
abag1
(g33
g3
Ntp476
Rp477
(lp478
F0.960429138778732
aF-0.1920858277557464
aF0.2016901191435337
abababag1
(g2
g3
Ntp479
Rp480
(lp481
I0
ag1
(g7
g3
Ntp482
Rp483
(lp484
g1
(g11
g3
Ntp485
Rp486
(lp487
F0.09993689627160435
aF0.046752397426375374
aF0.0989042650036537
abag1
(g15
g3
Ntp488
Rp489
(lp490
F-0.22407051685294413
aF0.40860846576671284
aF0.8786197789741008
aF0.10420561010103861
ababa(F-0.3490658503988659
F1.5491019878732166
F1.5707963267948966
F1.5707963267948966
F-0.3490658503988659
F1.502500000000001
F0.4982500000000004
F0.4982500000000004
F-0.3490658503988659
F1.5707963267948966
F1.5707963267948966
F0.6905189977320094
F1.0471975511965976
F0.4425000000000002
F0.0
F-0.0810987755982985
F1.256797593684085
tp491
aF-1.0
aF0.0
ag1
(g20
g3
Ntp492
Rp493
(lp494
g1
(g24
g3
Ntp495
Rp496
(lp497
I0
ag1
(g28
g3
Ntp498
Rp499
(lp500
I0
aI0
abaS'shadowhandnew'
p501
abag1
(g33
g3
Ntp502
Rp503
(lp504
F0.960429138778732
aF-0.1920858277557464
aF0.2016901191435337
abababag1
(g2
g3
Ntp505
Rp506
(lp507
I0
ag1
(g7
g3
Ntp508
Rp509
(lp510
g1
(g11
g3
Ntp511
Rp512
(lp513
F0.0843177030926672
aF0.04673817970333696
aF0.10389170092987858
abag1
(g15
g3
Ntp514
Rp515
(lp516
F-0.3081520650257949
aF0.460739814429642
aF0.8138343741043397
aF0.17445555235037674
ababa(F-0.3490658503988659
F1.550625000000001
F0.4980625000000004
F0.4980625000000004
F-0.3490658503988659
F1.4984238728159591
F0.06606250000000004
F1.5707963267948966
F-0.3490658503988659
F1.5707963267948966
F1.5707963267948966
F0.4980625000000004
F0.03059791427824151
F1.1124114032485166
F0.0
F0.5235987755982988
F1.0113647832875248
tp517
aF-1.0
aF0.0
ag1
(g20
g3
Ntp518
Rp519
(lp520
g1
(g24
g3
Ntp521
Rp522
(lp523
I0
ag1
(g28
g3
Ntp524
Rp525
(lp526
I0
aI0
abaS'shadowhandnew'
p527
abag1
(g33
g3
Ntp528
Rp529
(lp530
F0.960429138778732
aF-0.1920858277557464
aF0.2016901191435337
abababag1
(g2
g3
Ntp531
Rp532
(lp533
I0
ag1
(g7
g3
Ntp534
Rp535
(lp536
g1
(g11
g3
Ntp537
Rp538
(lp539
F0.09925358922987607
aF-0.023538577339457644
aF-0.06963768391144592
abag1
(g15
g3
Ntp540
Rp541
(lp542
F0.3492738685699671
aF0.4003906818055663
aF0.8302553393665368
aF-0.16843734179450834
ababa(F-0.3490658503988659
F0.2975000000000001
F0.02975000000000002
F1.5707963267948966
F-0.3490658503988659
F1.4348888678798275
F0.04112500000000003
F0.2661250000000002
F-0.02318422455130056
F1.5707963267948966
F0.49812500000000043
F1.5707963267948966
F1.0471975511965976
F1.2217304763960306
F0.0
F-0.4198487755982987
F0.10374999999999998
tp543
aF-1.0
aF0.0
ag1
(g20
g3
Ntp544
Rp545
(lp546
g1
(g24
g3
Ntp547
Rp548
(lp549
I0
ag1
(g28
g3
Ntp550
Rp551
(lp552
I0
aI0
abaS'shadowhandnew'
p553
abag1
(g33
g3
Ntp554
Rp555
(lp556
F0.960429138778732
aF-0.1920858277557464
aF0.2016901191435337
abababag1
(g2
g3
Ntp557
Rp558
(lp559
I0
ag1
(g7
g3
Ntp560
Rp561
(lp562
g1
(g11
g3
Ntp563
Rp564
(lp565
F0.12831529807240247
aF-0.020810716353231225
aF0.0464727824234176
abag1
(g15
g3
Ntp566
Rp567
(lp568
F-0.2156940496549726
aF0.4037527799761367
aF0.8835981992581379
aF0.09855958539257287
ababa(F0.2619381348514643
F0.5775000000000003
F1.5707963267948966
F0.057750000000000044
F-0.3490658503988659
F0.8275000000000006
F1.5707963267948966
F1.5707963267948966
F-0.3490658503988659
F1.5707963267948966
F0.06575000000000004
F0.6112837631627484
F-0.09511049556969718
F1.2217304763960306
F0.0
F0.5235987755982988
F0.2925000000000001
tp569
aF-1.0
aF0.06565128229001148
ag1
(g20
g3
Ntp570
Rp571
(lp572
g1
(g24
g3
Ntp573
Rp574
(lp575
I0
ag1
(g28
g3
Ntp576
Rp577
(lp578
I0
aI0
abaS'shadowhandnew'
p579
abag1
(g33
g3
Ntp580
Rp581
(lp582
F0.960429138778732
aF-0.1920858277557464
aF0.2016901191435337
abababag1
(g2
g3
Ntp583
Rp584
(lp585
I0
ag1
(g7
g3
Ntp586
Rp587
(lp588
g1
(g11
g3
Ntp589
Rp590
(lp591
F0.11622433300423383
aF0.05612702778156824
aF0.08734336383065824
abag1
(g15
g3
Ntp592
Rp593
(lp594
F-0.13001882373230883
aF0.43965916589358245
aF0.8863608697384059
aF0.06449288268951063
ababa(F-0.3490658503988659
F1.5500000000000012
F0.7678422506904083
F1.5707963267948966
F-0.3490658503988659
F1.500000000000001
F0.4980000000000004
F1.550959939344461
F-0.3490658503988659
F1.5707963267948966
F1.5707963267948966
F1.0841169051926354
F-0.317197551196597
F0.7300000000000004
F0.0
F0.5235987755982988
F1.5707963267948966
tp595
aF-1.0
aF0.0
ag1
(g20
g3
Ntp596
Rp597
(lp598
g1
(g24
g3
Ntp599
Rp600
(lp601
I0
ag1
(g28
g3
Ntp602
Rp603
(lp604
I0
aI0
abaS'shadowhandnew'
p605
abag1
(g33
g3
Ntp606
Rp607
(lp608
F0.960429138778732
aF-0.1920858277557464
aF0.2016901191435337
abababag1
(g2
g3
Ntp609
Rp610
(lp611
I0
ag1
(g7
g3
Ntp612
Rp613
(lp614
g1
(g11
g3
Ntp615
Rp616
(lp617
F0.12423730053777672
aF-0.018033315323863094
aF-0.04976377079636913
abag1
(g15
g3
Ntp618
Rp619
(lp620
F0.11961279697672406
aF0.21030797833483725
aF0.9699436616954732
aF-0.025935037784749277
ababa(F-0.3490658503988659
F0.23125000000000007
F1.5707963267948966
F0.023125000000000014
F-0.3490658503988659
F0.5925000000000004
F1.5707963267948966
F0.059250000000000046
F-0.3490658503988659
F1.5707963267948966
F1.5707963267948966
F1.5707963267948966
F0.5619751805267705
F1.2217304763960306
F0.0
F-0.39234877559829867
F0.13124999999999998
tp621
aF-1.0
aF0.00877964557352326
ag1
(g20
g3
Ntp622
Rp623
(lp624
g1
(g24
g3
Ntp625
Rp626
(lp627
I0
ag1
(g28
g3
Ntp628
Rp629
(lp630
I0
aI0
abaS'shadowhandnew'
p631
abag1
(g33
g3
Ntp632
Rp633
(lp634
F0.960429138778732
aF-0.1920858277557464
aF0.2016901191435337
abababag1
(g2
g3
Ntp635
Rp636
(lp637
I0
ag1
(g7
g3
Ntp638
Rp639
(lp640
g1
(g11
g3
Ntp641
Rp642
(lp643
F0.07311216433409223
aF0.019373571361555184
aF0.1154118275775929
abag1
(g15
g3
Ntp644
Rp645
(lp646
F-0.35437080966123063
aF0.1727767639673138
aF0.9165736689754227
aF0.06679991342778373
ababa(F-0.3490658503988659
F1.545000000000001
F1.5707963267948966
F1.5707963267948966
F-0.3490658503988659
F1.495000000000001
F1.5707963267948966
F1.5707963267948966
F-0.3490658503988659
F1.5707963267948966
F1.5707963267948966
F1.1544204574413144
F1.0471975511965976
F0.19500000000000003
F0.0
F0.5235987755982988
F1.5707963267948966
tp647
aF-1.0
aF0.0
ag1
(g20
g3
Ntp648
Rp649
(lp650
g1
(g24
g3
Ntp651
Rp652
(lp653
I0
ag1
(g28
g3
Ntp654
Rp655
(lp656
I0
aI0
abaS'shadowhandnew'
p657
abag1
(g33
g3
Ntp658
Rp659
(lp660
F0.960429138778732
aF-0.1920858277557464
aF0.2016901191435337
abababag1
(g2
g3
Ntp661
Rp662
(lp663
I0
ag1
(g7
g3
Ntp664
Rp665
(lp666
g1
(g11
g3
Ntp667
Rp668
(lp669
F0.13458385183641394
aF0.0013420962689575297
aF0.05901882392084798
abag1
(g15
g3
Ntp670
Rp671
(lp672
F-0.4489416470316418
aF-0.015631312116044113
aF0.8933898136559593
aF-0.007854966442839844
ababa(F-0.32401585956232404
F1.256250000000001
F0.1256250000000001
F0.49862500000000043
F-0.3490658503988659
F1.286585159114912
F0.045750000000000034
F1.5707963267948966
F-0.3490658503988659
F1.463115384586038
F0.01737500000000001
F1.3961874772446046
F-0.363453467443243
F0.6400000000000003
F0.0
F0.11640122440170148
F1.5707963267948966
tp673
aF-1.0
aF0.013383158164135267
ag1
(g20
g3
Ntp674
Rp675
(lp676
g1
(g24
g3
Ntp677
Rp678
(lp679
I0
ag1
(g28
g3
Ntp680
Rp681
(lp682
I0
aI0
abaS'shadowhandnew'
p683
abag1
(g33
g3
Ntp684
Rp685
(lp686
F0.960429138778732
aF-0.1920858277557464
aF0.2016901191435337
abababag1
(g2
g3
Ntp687
Rp688
(lp689
I0
ag1
(g7
g3
Ntp690
Rp691
(lp692
g1
(g11
g3
Ntp693
Rp694
(lp695
F0.10710654771499747
aF-0.03528501692626696
aF0.11642048052139148
abag1
(g15
g3
Ntp696
Rp697
(lp698
F-0.14472204622868062
aF-0.18815416122000067
aF0.971013457911119
aF-0.028042922573676674
ababa(F-0.3490658503988659
F1.5475000000000012
F0.4987500000000004
F1.5707963267948966
F-0.3490658503988659
F1.4975000000000012
F0.4987500000000004
F1.5707963267948966
F-0.3490658503988659
F1.5707963267948966
F1.5707963267948966
F1.5255921619396826
F1.0471975511965976
F0.26750000000000007
F0.0
F0.3093398947492894
F1.5707963267948966
tp699
aF-1.0
aF0.0
ag1
(g20
g3
Ntp700
Rp701
(lp702
g1
(g24
g3
Ntp703
Rp704
(lp705
I0
ag1
(g28
g3
Ntp706
Rp707
(lp708
I0
aI0
abaS'shadowhandnew'
p709
abag1
(g33
g3
Ntp710
Rp711
(lp712
F0.960429138778732
aF-0.1920858277557464
aF0.2016901191435337
abababag1
(g2
g3
Ntp713
Rp714
(lp715
I0
ag1
(g7
g3
Ntp716
Rp717
(lp718
g1
(g11
g3
Ntp719
Rp720
(lp721
F0.1353651797625763
aF-0.029489009374756316
aF0.02982641899381475
abag1
(g15
g3
Ntp722
Rp723
(lp724
F-0.1920475885935314
aF0.37558407631141555
aF0.9031477652670465
aF0.07986513275422713
ababa(F-0.3490658503988659
F0.6010128412576642
F1.0292110421490634
F1.083278654827452
F-0.18379674798562567
F0.3587500000000002
F0.8744592171050226
F1.5707963267948966
F-0.3490658503988659
F1.5707963267948966
F1.5707963267948966
F1.5707963267948966
F-0.31594755119659695
F1.2217304763960306
F0.0
F0.5235987755982988
F1.5707963267948966
tp725
aF-1.0
aF0.0
ag1
(g20
g3
Ntp726
Rp727
(lp728
g1
(g24
g3
Ntp729
Rp730
(lp731
I0
ag1
(g28
g3
Ntp732
Rp733
(lp734
I0
aI0
abaS'shadowhandnew'
p735
abag1
(g33
g3
Ntp736
Rp737
(lp738
F0.960429138778732
aF-0.1920858277557464
aF0.2016901191435337
abababag1
(g2
g3
Ntp739
Rp740
(lp741
I0
ag1
(g7
g3
Ntp742
Rp743
(lp744
g1
(g11
g3
Ntp745
Rp746
(lp747
F0.1111499692311617
aF0.050914294443926485
aF0.11325416369222913
abag1
(g15
g3
Ntp748
Rp749
(lp750
F-0.12368473198556473
aF0.28919706736928613
aF0.9484961687902715
aF0.03771155113278127
ababa(F-0.3490658503988659
F1.5500977649366139
F1.5707963267948966
F0.4985000000000004
F-0.3490658503988659
F1.495000000000001
F0.4985000000000004
F1.4408191919594753
F-0.3490658503988659
F1.5707963267948966
F1.5707963267948966
F1.3964080065473032
F1.0471975511965976
F0.2130940159223591
F0.0
F0.468765115557213
F1.5707963267948966
tp751
aF-1.0
aF0.0
ag1
(g20
g3
Ntp752
Rp753
(lp754
g1
(g24
g3
Ntp755
Rp756
(lp757
I0
ag1
(g28
g3
Ntp758
Rp759
(lp760
I0
aI0
abaS'shadowhandnew'
p761
abag1
(g33
g3
Ntp762
Rp763
(lp764
F0.960429138778732
aF-0.1920858277557464
aF0.2016901191435337
abababag1
(g2
g3
Ntp765
Rp766
(lp767
I0
ag1
(g7
g3
Ntp768
Rp769
(lp770
g1
(g11
g3
Ntp771
Rp772
(lp773
F0.1024512091643366
aF0.04143588130842364
aF-0.07940919120185869
abag1
(g15
g3
Ntp774
Rp775
(lp776
F0.2200431859062842
aF-0.3991442879644945
aF0.8845369335506291
aF0.09929374051962697
ababa(F0.29291730544708594
F0.6137500000000004
F1.5707963267948966
F0.06137500000000005
F-0.3490658503988659
F0.6212500000000004
F1.5707963267948966
F1.5707963267948966
F-0.3490658503988659
F0.09
F1.5707963267948966
F0.009000000000000001
F-0.018129507932046523
F0.33684285420187077
F0.0
F-0.40984877559829874
F1.5707963267948966
tp777
aF-1.0
aF0.25944256507283014
ag1
(g20
g3
Ntp778
Rp779
(lp780
g1
(g24
g3
Ntp781
Rp782
(lp783
I0
ag1
(g28
g3
Ntp784
Rp785
(lp786
I0
aI0
abaS'shadowhandnew'
p787
abag1
(g33
g3
Ntp788
Rp789
(lp790
F0.960429138778732
aF-0.1920858277557464
aF0.2016901191435337
abababag1
(g2
g3
Ntp791
Rp792
(lp793
I0
ag1
(g7
g3
Ntp794
Rp795
(lp796
g1
(g11
g3
Ntp797
Rp798
(lp799
F0.11100999285658716
aF-0.049618916139110764
aF0.10499797436239526
abag1
(g15
g3
Ntp800
Rp801
(lp802
F-0.13881873180800253
aF-0.2772213364831598
aF0.9498611659199102
aF-0.040514883376079204
ababa(F-0.3490658503988659
F1.542500000000001
F0.4982500000000004
F1.5707963267948966
F-0.3490658503988659
F1.502500000000001
F0.4982500000000004
F1.5707963267948966
F-0.24062328291774934
F1.5707963267948966
F1.5707963267948966
F1.5250916063081668
F1.0471975511965976
F0.25250000000000006
F0.0
F0.2911978387104771
F1.5707963267948966
tp803
aF-1.0
aF0.0
ag1
(g20
g3
Ntp804
Rp805
(lp806
g1
(g24
g3
Ntp807
Rp808
(lp809
I0
ag1
(g28
g3
Ntp810
Rp811
(lp812
I0
aI0
abaS'shadowhandnew'
p813
abag1
(g33
g3
Ntp814
Rp815
(lp816
F0.960429138778732
aF-0.1920858277557464
aF0.2016901191435337
abababag1
(g2
g3
Ntp817
Rp818
(lp819
I0
ag1
(g7
g3
Ntp820
Rp821
(lp822
g1
(g11
g3
Ntp823
Rp824
(lp825
F0.0568569756090149
aF0.04223565361970515
aF0.12398926678035889
abag1
(g15
g3
Ntp826
Rp827
(lp828
F-0.38241205368935005
aF0.2932995212542697
aF0.8665938350350931
aF0.12942772927112556
ababa(F0.014013135937286288
F0.8450000000000005
F1.5707963267948966
F0.8726821185151697
F-0.3490658503988659
F1.4942509378074416
F1.5707963267948966
F0.4985000000000004
F-0.3490658503988659
F1.5707963267948966
F1.5707963267948966
F1.0944790763708565
F1.0471975511965976
F0.19500000000000003
F0.0
F0.5235987755982988
F1.5707963267948966
tp829
aF-1.0
aF0.0
ag1
(g20
g3
Ntp830
Rp831
(lp832
g1
(g24
g3
Ntp833
Rp834
(lp835
I0
ag1
(g28
g3
Ntp836
Rp837
(lp838
I0
aI0
abaS'shadowhandnew'
p839
abag1
(g33
g3
Ntp840
Rp841
(lp842
F0.960429138778732
aF-0.1920858277557464
aF0.2016901191435337
abababag1
(g2
g3
Ntp843
Rp844
(lp845
I0
ag1
(g7
g3
Ntp846
Rp847
(lp848
g1
(g11
g3
Ntp849
Rp850
(lp851
F0.11100267569860725
aF0.03318919011142533
aF0.11706876351399091
abag1
(g15
g3
Ntp852
Rp853
(lp854
F-0.12223705058975995
aF0.18903747314097957
aF0.9740431966106826
aF0.023723160582712993
ababa(F-0.3490658503988659
F1.5480447101403665
F1.5707963267948966
F0.4982500000000004
F-0.3490658503988659
F1.502500000000001
F0.5388757726918031
F0.7367811714769489
F-0.16689879324130477
F1.5707963267948966
F1.5707963267948966
F1.39615683236354
F1.0471975511965976
F0.22835911341437812
F0.0
F0.427017726450015
F1.5707963267948966
tp855
aF-1.0
aF0.0
ag1
(g20
g3
Ntp856
Rp857
(lp858
g1
(g24
g3
Ntp859
Rp860
(lp861
I0
ag1
(g28
g3
Ntp862
Rp863
(lp864
I0
aI0
abaS'shadowhandnew'
p865
abag1
(g33
g3
Ntp866
Rp867
(lp868
F0.960429138778732
aF-0.1920858277557464
aF0.2016901191435337
abababag1
(g2
g3
Ntp869
Rp870
(lp871
I0
ag1
(g7
g3
Ntp872
Rp873
(lp874
g1
(g11
g3
Ntp875
Rp876
(lp877
F0.1396703165103398
aF0.02928740998314096
aF0.048195821877031475
abag1
(g15
g3
Ntp878
Rp879
(lp880
F-0.24097884377641837
aF-0.03683273945357868
aF0.9697880073978631
aF-0.00915242393072824
ababa(F-0.3490658503988659
F0.6350000000000005
F0.7981694583200323
F1.5707963267948966
F-0.3490658503988659
F1.4488600425604208
F0.04025000000000003
F1.2959088743552132
F-0.3490658503988659
F1.5707963267948966
F0.07250000000000005
F1.5707963267948966
F-0.1471975511965969
F0.9000000000000007
F0.0
F0.3764012244017017
F0.9000000000000007
tp881
aF-1.0
aF0.015206114951317073
ag1
(g20
g3
Ntp882
Rp883
(lp884
g1
(g24
g3
Ntp885
Rp886
(lp887
I0
ag1
(g28
g3
Ntp888
Rp889
(lp890
I0
aI0
abaS'shadowhandnew'
p891
abag1
(g33
g3
Ntp892
Rp893
(lp894
F0.960429138778732
aF-0.1920858277557464
aF0.2016901191435337
abababag1
(g2
g3
Ntp895
Rp896
(lp897
I0
ag1
(g7
g3
Ntp898
Rp899
(lp900
g1
(g11
g3
Ntp901
Rp902
(lp903
F0.06597695558845625
aF0.021413686199674674
aF-0.099737962705114
abag1
(g15
g3
Ntp904
Rp905
(lp906
F0.4730578293114449
aF0.07033727451386132
aF0.8774000271908458
aF-0.037922951185381054
ababa(F0.08203608713310599
F0.35591799598953455
F0.00625
F0.6897427870955006
F-0.3490658503988659
F1.268750000000001
F1.5707963267948966
F0.45787500000000037
F-0.3490658503988659
F1.4620141890057088
F1.5707963267948966
F0.10787500000000008
F0.9661455751741339
F1.2217304763960306
F0.0
F0.5235987755982988
F0.5937500000000003
tp907
aF-1.0
aF0.0
ag1
(g20
g3
Ntp908
Rp909
(lp910
g1
(g24
g3
Ntp911
Rp912
(lp913
I0
ag1
(g28
g3
Ntp914
Rp915
(lp916
I0
aI0
abaS'shadowhandnew'
p917
abag1
(g33
g3
Ntp918
Rp919
(lp920
F0.960429138778732
aF-0.1920858277557464
aF0.2016901191435337
abababag1
(g2
g3
Ntp921
Rp922
(lp923
I0
ag1
(g7
g3
Ntp924
Rp925
(lp926
g1
(g11
g3
Ntp927
Rp928
(lp929
F0.13521705772447892
aF0.02805009324738151
aF0.0596795935650512
abag1
(g15
g3
Ntp930
Rp931
(lp932
F-0.34701117443330026
aF0.018814824751252974
aF0.9376463949689853
aF0.006963130737472713
ababa(F-0.3490658503988659
F0.6762500000000005
F1.5707963267948966
F0.06762500000000005
F-0.3490658503988659
F0.9237500000000006
F1.5707963267948966
F0.09237500000000007
F-0.3490658503988659
F1.5707963267948966
F0.07700000000000005
F1.5707963267948966
F-0.1655676599208671
F1.2217304763960306
F0.0
F0.2464012244017016
F1.5707963267948966
tp933
aF-1.0
aF0.0
ag1
(g20
g3
Ntp934
Rp935
(lp936
g1
(g24
g3
Ntp937
Rp938
(lp939
I0
ag1
(g28
g3
Ntp940
Rp941
(lp942
I0
aI0
abaS'shadowhandnew'
p943
abag1
(g33
g3
Ntp944
Rp945
(lp946
F0.960429138778732
aF-0.1920858277557464
aF0.2016901191435337
abababag1
(g2
g3
Ntp947
Rp948
(lp949
I0
ag1
(g7
g3
Ntp950
Rp951
(lp952
g1
(g11
g3
Ntp953
Rp954
(lp955
F0.10527455044973427
aF0.05600685651678929
aF0.09949045814829297
abag1
(g15
g3
Ntp956
Rp957
(lp958
F-0.2884304366409663
aF0.3162352439586517
aF0.8980463795498128
aF0.1015669920544422
ababa(F-0.3490658503988659
F1.5500000000000012
F1.5707963267948966
F0.4970000000000004
F-0.3490658503988659
F1.500000000000001
F0.4970000000000004
F1.5707963267948966
F-0.3490658503988659
F1.5707963267948966
F1.5707963267948966
F0.7700540303060502
F1.0140049075856092
F0.38000000000000017
F0.0
F0.3201559171233835
F0.6000000000000003
tp959
aF-1.0
aF0.0
ag1
(g20
g3
Ntp960
Rp961
(lp962
g1
(g24
g3
Ntp963
Rp964
(lp965
I0
ag1
(g28
g3
Ntp966
Rp967
(lp968
I0
aI0
abaS'shadowhandnew'
p969
abag1
(g33
g3
Ntp970
Rp971
(lp972
F0.960429138778732
aF-0.1920858277557464
aF0.2016901191435337
abababag1
(g2
g3
Ntp973
Rp974
(lp975
I0
ag1
(g7
g3
Ntp976
Rp977
(lp978
g1
(g11
g3
Ntp979
Rp980
(lp981
F0.07843855365639385
aF0.04520839332665254
aF0.10685841189903686
abag1
(g15
g3
Ntp982
Rp983
(lp984
F-0.4538978491478348
aF0.3020561386189901
aF0.8215147886409202
aF0.1668900347708612
ababa(F-0.3490658503988659
F1.5508809620124906
F1.5707963267948966
F0.49731250000000043
F-0.3490658503988659
F1.4931250000000011
F1.3383800489229885
F0.49731250000000043
F-0.10433068406522852
F1.5707963267948966
F1.5707963267948966
F0.30931250000000027
F0.6195450588051665
F0.5731250000000003
F0.0
F0.04952622440170151
F0.5731250000000003
tp985
aF-1.0
aF0.0
ag1
(g20
g3
Ntp986
Rp987
(lp988
g1
(g24
g3
Ntp989
Rp990
(lp991
I0
ag1
(g28
g3
Ntp992
Rp993
(lp994
I0
aI0
abaS'shadowhandnew'
p995
abag1
(g33
g3
Ntp996
Rp997
(lp998
F0.960429138778732
aF-0.1920858277557464
aF0.2016901191435337
abababag1
(g2
g3
Ntp999
Rp1000
(lp1001
I0
ag1
(g7
g3
Ntp1002
Rp1003
(lp1004
g1
(g11
g3
Ntp1005
Rp1006
(lp1007
F0.146503753097023
aF0.016414146875777722
aF0.0445908602882422
abag1
(g15
g3
Ntp1008
Rp1009
(lp1010
F-0.3255963056921263
aF0.1545946976656123
aF0.9312173512666146
aF0.05405339835114725
ababa(F-0.3490658503988659
F0.6985186023478581
F1.5707963267948966
F0.013625000000000005
F-0.3490658503988659
F1.3750773648662447
F0.12850000000000011
F1.5707963267948966
F0.13236975174967272
F1.5707963267948966
F0.1278750000000001
F0.7226502558005398
F-0.1537794307002051
F1.2217304763960306
F0.0
F0.5235987755982988
F0.23875000000000007
tp1011
aF-1.0
aF0.014563679848279118
ag1
(g20
g3
Ntp1012
Rp1013
(lp1014
g1
(g24
g3
Ntp1015
Rp1016
(lp1017
I0
ag1
(g28
g3
Ntp1018
Rp1019
(lp1020
I0
aI0
abaS'shadowhandnew'
p1021
abag1
(g33
g3
Ntp1022
Rp1023
(lp1024
F0.960429138778732
aF-0.1920858277557464
aF0.2016901191435337
abababag1
(g2
g3
Ntp1025
Rp1026
(lp1027
I0
ag1
(g7
g3
Ntp1028
Rp1029
(lp1030
g1
(g11
g3
Ntp1031
Rp1032
(lp1033
F0.09565725355778396
aF0.05910932529066824
aF0.10261643689450994
abag1
(g15
g3
Ntp1034
Rp1035
(lp1036
F-0.3386055241773597
aF0.38722290026099826
aF0.8433466315719531
aF0.15547084461813748
ababa(F-0.3490658503988659
F1.545000000000001
F0.4975000000000004
F0.4975000000000004
F-0.3490658503988659
F1.4972514342866243
F1.5707963267948966
F0.4975000000000004
F0.15082992967276954
F1.5707963267948966
F1.5707963267948966
F1.5707963267948966
F-0.05488923134417088
F0.5850000000000003
F0.0
F0.5235987755982988
F0.6150000000000003
tp1037
aF-1.0
aF0.0
ag1
(g20
g3
Ntp1038
Rp1039
(lp1040
g1
(g24
g3
Ntp1041
Rp1042
(lp1043
I0
ag1
(g28
g3
Ntp1044
Rp1045
(lp1046
I0
aI0
abaS'shadowhandnew'
p1047
abag1
(g33
g3
Ntp1048
Rp1049
(lp1050
F0.960429138778732
aF-0.1920858277557464
aF0.2016901191435337
abababag1
(g2
g3
Ntp1051
Rp1052
(lp1053
I0
ag1
(g7
g3
Ntp1054
Rp1055
(lp1056
g1
(g11
g3
Ntp1057
Rp1058
(lp1059
F0.08819660316710258
aF0.050385180114265585
aF-0.09269482851762789
abag1
(g15
g3
Ntp1060
Rp1061
(lp1062
F0.37162195195814524
aF-0.2430350151785532
aF0.8902463858134767
aF0.10145185442376457
ababa(F-0.3490658503988659
F0.11624999999999999
F1.1745024594967575
F0.011625000000000003
F-0.3490658503988659
F0.017499999999999998
F1.5707963267948966
F0.00175
F0.18833068801678934
F1.5707963267948966
F1.5707963267948966
F1.5707963267948966
F0.2344330295494129
F1.2217304763960306
F0.0
F0.5235987755982988
F0.0875
tp1063
aF-1.0
aF0.07555979932652587
ag1
(g20
g3
Ntp1064
Rp1065
(lp1066
g1
(g24
g3
Ntp1067
Rp1068
(lp1069
I0
ag1
(g28
g3
Ntp1070
Rp1071
(lp1072
I0
aI0
abaS'shadowhandnew'
p1073
abag1
(g33
g3
Ntp1074
Rp1075
(lp1076
F0.960429138778732
aF-0.1920858277557464
aF0.2016901191435337
abababag1
(g2
g3
Ntp1077
Rp1078
(lp1079
I0
ag1
(g7
g3
Ntp1080
Rp1081
(lp1082
g1
(g11
g3
Ntp1083
Rp1084
(lp1085
F0.14602198246169387
aF0.02007180721925581
aF-0.035390527673800166
abag1
(g15
g3
Ntp1086
Rp1087
(lp1088
F0.02141986165302919
aF0.10386786069054554
aF0.9943579088129512
aF-0.002237459154766082
ababa(F-0.3490658503988659
F0.4087500000000002
F1.5707963267948966
F0.04087500000000003
F-0.3490658503988659
F1.1337500000000007
F0.11337500000000009
F1.5707963267948966
F-0.3490658503988659
F1.4708926359567318
F1.5707963267948966
F1.5707963267948966
F0.7760897724369356
F1.2217304763960306
F0.0
F-0.5098487755982988
F0.01375
tp1089
aF-1.0
aF0.007103566848987681
ag1
(g20
g3
Ntp1090
Rp1091
(lp1092
g1
(g24
g3
Ntp1093
Rp1094
(lp1095
I0
ag1
(g28
g3
Ntp1096
Rp1097
(lp1098
I0
aI0
abaS'shadowhandnew'
p1099
abag1
(g33
g3
Ntp1100
Rp1101
(lp1102
F0.960429138778732
aF-0.1920858277557464
aF0.2016901191435337
abababag1
(g2
g3
Ntp1103
Rp1104
(lp1105
I0
ag1
(g7
g3
Ntp1106
Rp1107
(lp1108
g1
(g11
g3
Ntp1109
Rp1110
(lp1111
F0.14634413700375604
aF0.028133694652078926
aF0.02518812353024871
abag1
(g15
g3
Ntp1112
Rp1113
(lp1114
F-0.09694170479256181
aF-0.1981808754567933
aF0.9751607574848449
aF-0.019701358751982482
ababa(F-0.3490658503988659
F0.07
F1.5707963267948966
F0.20257051086990008
F-0.3490658503988659
F0.9512500000000006
F0.7275217119632156
F0.09512500000000007
F-0.3490658503988659
F0.6812500000000004
F1.5707963267948966
F0.06812500000000005
F0.22234761255389793
F1.2217304763960306
F0.0
F-0.43359877559829874
F1.5707963267948966
tp1115
aF-1.0
aF0.1235178136594309
ag1
(g20
g3
Ntp1116
Rp1117
(lp1118
g1
(g24
g3
Ntp1119
Rp1120
(lp1121
I0
ag1
(g28
g3
Ntp1122
Rp1123
(lp1124
I0
aI0
abaS'shadowhandnew'
p1125
abag1
(g33
g3
Ntp1126
Rp1127
(lp1128
F0.960429138778732
aF-0.1920858277557464
aF0.2016901191435337
abababag1
(g2
g3
Ntp1129
Rp1130
(lp1131
I0
ag1
(g7
g3
Ntp1132
Rp1133
(lp1134
g1
(g11
g3
Ntp1135
Rp1136
(lp1137
F0.15242359305251243
aF0.05155629327765729
aF0.05136192136106267
abag1
(g15
g3
Ntp1138
Rp1139
(lp1140
F-0.4164782021523912
aF-0.19621230282413243
aF0.8828814019765592
aF-0.09255846474671223
ababa(F-0.3490658503988659
F1.3736379887791932
F0.07781250000000006
F0.07781250000000006
F-0.3490658503988659
F1.4951718458461483
F1.5707963267948966
F1.5707963267948966
F-0.3490658503988659
F1.5707963267948966
F0.06375000000000004
F0.6982232684965153
F-0.3159765812712196
F1.2217304763960306
F0.0
F0.5235987755982988
F0.23750000000000007
tp1141
aF-1.0
aF0.044569821329578665
ag1
(g20
g3
Ntp1142
Rp1143
(lp1144
g1
(g24
g3
Ntp1145
Rp1146
(lp1147
I0
ag1
(g28
g3
Ntp1148
Rp1149
(lp1150
I0
aI0
abaS'shadowhandnew'
p1151
abag1
(g33
g3
Ntp1152
Rp1153
(lp1154
F0.960429138778732
aF-0.1920858277557464
aF0.2016901191435337
abababag1
(g2
g3
Ntp1155
Rp1156
(lp1157
I0
ag1
(g7
g3
Ntp1158
Rp1159
(lp1160
g1
(g11
g3
Ntp1161
Rp1162
(lp1163
F0.14212093128439698
aF0.027359627618309318
aF-0.02523984196442764
abag1
(g15
g3
Ntp1164
Rp1165
(lp1166
F0.15900917575981371
aF-0.2084785605388434
aF0.9644020037942896
aF0.03437363666235696
ababa(F-0.3490658503988659
F0.12249999999999997
F0.7077206977784911
F0.4987500000000004
F-0.3490658503988659
F0.0025
F1.5707963267948966
F0.00025
F-0.3490658503988659
F0.46750000000000025
F0.4987500000000004
F1.5707963267948966
F-0.09682579593077
F1.2217304763960306
F0.0
F0.5235987755982988
F0.9501856953858374
tp1167
aF-1.0
aF0.1256978681378256
ag1
(g20
g3
Ntp1168
Rp1169
(lp1170
g1
(g24
g3
Ntp1171
Rp1172
(lp1173
I0
ag1
(g28
g3
Ntp1174
Rp1175
(lp1176
I0
aI0
abaS'shadowhandnew'
p1177
abag1
(g33
g3
Ntp1178
Rp1179
(lp1180
F0.960429138778732
aF-0.1920858277557464
aF0.2016901191435337
abababag1
(g2
g3
Ntp1181
Rp1182
(lp1183
I0
ag1
(g7
g3
Ntp1184
Rp1185
(lp1186
g1
(g11
g3
Ntp1187
Rp1188
(lp1189
F0.14020103268143946
aF0.025710862938101098
aF0.06881906095647077
abag1
(g15
g3
Ntp1190
Rp1191
(lp1192
F-0.4896339470699823
aF0.027830169339254578
aF0.8713435106961673
aF0.015638603482934228
ababa(F-0.3490658503988659
F1.2462784906949538
F0.02000000000000001
F1.5707963267948966
F-0.3490658503988659
F1.400000000000001
F1.5707963267948966
F1.5707963267948966
F-0.3490658503988659
F1.5707963267948966
F0.5857573892437997
F0.2660000000000002
F-0.6400206724512671
F1.2217304763960306
F0.0
F0.5235987755982988
F1.5707963267948966
tp1193
aF-1.0
aF0.08447292944302422
ag1
(g20
g3
Ntp1194
Rp1195
(lp1196
g1
(g24
g3
Ntp1197
Rp1198
(lp1199
I0
ag1
(g28
g3
Ntp1200
Rp1201
(lp1202
I0
aI0
abaS'shadowhandnew'
p1203
abag1
(g33
g3
Ntp1204
Rp1205
(lp1206
F0.960429138778732
aF-0.1920858277557464
aF0.2016901191435337
abababag1
(g2
g3
Ntp1207
Rp1208
(lp1209
I0
ag1
(g7
g3
Ntp1210
Rp1211
(lp1212
g1
(g11
g3
Ntp1213
Rp1214
(lp1215
F0.15658504515020577
aF0.04216673452639975
aF-0.01818827505331315
abag1
(g15
g3
Ntp1216
Rp1217
(lp1218
F-0.11317881569031991
aF-0.13624416194051478
aF0.9840642996139687
aF-0.015669659898440175
ababa(F-0.3490658503988659
F0.5112500000000002
F1.5707963267948966
F0.1783223391688947
F-0.3490658503988659
F1.316250000000001
F0.1316250000000001
F0.1316250000000001
F-0.3490658503988659
F1.2233639699535082
F0.09425000000000008
F1.5707963267948966
F0.1216832890963678
F1.2217304763960306
F0.0
F-0.03719395817290669
F0.14375
tp1219
aF-1.0
aF0.18857049240801868
ag1
(g20
g3
Ntp1220
Rp1221
(lp1222
g1
(g24
g3
Ntp1223
Rp1224
(lp1225
I0
ag1
(g28
g3
Ntp1226
Rp1227
(lp1228
I0
aI0
abaS'shadowhandnew'
p1229
abag1
(g33
g3
Ntp1230
Rp1231
(lp1232
F0.960429138778732
aF-0.1920858277557464
aF0.2016901191435337
abababag1
(g2
g3
Ntp1233
Rp1234
(lp1235
I0
ag1
(g7
g3
Ntp1236
Rp1237
(lp1238
g1
(g11
g3
Ntp1239
Rp1240
(lp1241
F0.11699369462039515
aF0.008201520753598458
aF-0.07209095798130238
abag1
(g15
g3
Ntp1242
Rp1243
(lp1244
F0.2518271501549659
aF0.22935661171903357
aF0.9381836281348045
aF-0.061563877439677714
ababa(F-0.3490658503988659
F0.7271303582431969
F0.055375000000000035
F1.5707963267948966
F-0.3490658503988659
F1.062312922988237
F1.5707963267948966
F0.08975000000000007
F-0.26466391722601235
F1.5707963267948966
F0.773587334015286
F1.5707963267948966
F1.0471975511965976
F1.2217304763960306
F0.0
F0.11390122440170149
F0.6375000000000004
tp1245
aF-1.0
aF0.0
ag1
(g20
g3
Ntp1246
Rp1247
(lp1248
g1
(g24
g3
Ntp1249
Rp1250
(lp1251
I0
ag1
(g28
g3
Ntp1252
Rp1253
(lp1254
I0
aI0
abaS'shadowhandnew'
p1255
abag1
(g33
g3
Ntp1256
Rp1257
(lp1258
F0.960429138778732
aF-0.1920858277557464
aF0.2016901191435337
abababag1
(g2
g3
Ntp1259
Rp1260
(lp1261
I0
ag1
(g7
g3
Ntp1262
Rp1263
(lp1264
g1
(g11
g3
Ntp1265
Rp1266
(lp1267
F0.11565692092025949
aF0.0022491215146015014
aF-0.045929315262622776
abag1
(g15
g3
Ntp1268
Rp1269
(lp1270
F0.08260876954676004
aF0.1109493380880218
aF0.990343569201725
aF-0.009254756214418396
ababa(F0.142654952185976
F0.34937500000000016
F1.5707963267948966
F0.034937500000000024
F-0.3490658503988659
F1.4074705101729497
F0.1253125000000001
F0.1253125000000001
F0.10959058910365822
F1.5707963267948966
F0.03793750000000003
F1.1180162157626619
F0.5001150482545452
F1.2217304763960306
F0.0
F-0.5142237755982988
F0.009375
tp1271
aF-1.0
aF0.07101468054960745
ag1
(g20
g3
Ntp1272
Rp1273
(lp1274
g1
(g24
g3
Ntp1275
Rp1276
(lp1277
I0
ag1
(g28
g3
Ntp1278
Rp1279
(lp1280
I0
aI0
abaS'shadowhandnew'
p1281
abag1
(g33
g3
Ntp1282
Rp1283
(lp1284
F0.960429138778732
aF-0.1920858277557464
aF0.2016901191435337
abababag1
(g2
g3
Ntp1285
Rp1286
(lp1287
I0
ag1
(g7
g3
Ntp1288
Rp1289
(lp1290
g1
(g11
g3
Ntp1291
Rp1292
(lp1293
F0.10629060143167418
aF0.03663056768783112
aF0.07703713652475967
abag1
(g15
g3
Ntp1294
Rp1295
(lp1296
F-0.14563656727759264
aF0.3104079542701915
aF0.938144373524816
aF0.04818741143830441
ababa(F-0.3490658503988659
F1.5432257290960982
F1.5707963267948966
F0.4978750000000004
F-0.3490658503988659
F1.5012686270273392
F1.5707963267948966
F0.6941605742014727
F-0.3490658503988659
F1.5707963267948966
F1.548118606172792
F0.6271345465377317
F0.8413971250339773
F0.4087500000000002
F0.0
F-0.11484877559829848
F1.5707963267948966
tp1297
aF-1.0
aF0.0
ag1
(g20
g3
Ntp1298
Rp1299
(lp1300
g1
(g24
g3
Ntp1301
Rp1302
(lp1303
I0
ag1
(g28
g3
Ntp1304
Rp1305
(lp1306
I0
aI0
abaS'shadowhandnew'
p1307
abag1
(g33
g3
Ntp1308
Rp1309
(lp1310
F0.960429138778732
aF-0.1920858277557464
aF0.2016901191435337
abababag1
(g2
g3
Ntp1311
Rp1312
(lp1313
I0
ag1
(g7
g3
Ntp1314
Rp1315
(lp1316
g1
(g11
g3
Ntp1317
Rp1318
(lp1319
F0.1192140067233837
aF0.05059036753616898
aF0.06943358987663636
abag1
(g15
g3
Ntp1320
Rp1321
(lp1322
F-0.03325641528573069
aF0.33922084678719355
aF0.9400421312083702
aF0.012000812495319447
ababa(F-0.3490658503988659
F1.542500000000001
F0.4972500000000004
F1.5707963267948966
F-0.3490658503988659
F1.502500000000001
F0.5085578193819067
F0.4972500000000004
F-0.3490658503988659
F1.5707963267948966
F1.5707963267948966
F0.8721429057277134
F0.22530244880340322
F1.2217304763960306
F0.0
F0.5235987755982988
F1.2725000000000009
tp1323
aF-1.0
aF0.0
ag1
(g20
g3
Ntp1324
Rp1325
(lp1326
g1
(g24
g3
Ntp1327
Rp1328
(lp1329
I0
ag1
(g28
g3
Ntp1330
Rp1331
(lp1332
I0
aI0
abaS'shadowhandnew'
p1333
abag1
(g33
g3
Ntp1334
Rp1335
(lp1336
F0.960429138778732
aF-0.1920858277557464
aF0.2016901191435337
abababag1
(g2
g3
Ntp1337
Rp1338
(lp1339
I0
ag1
(g7
g3
Ntp1340
Rp1341
(lp1342
g1
(g11
g3
Ntp1343
Rp1344
(lp1345
F0.06482618477556275
aF-0.00365576832126103
aF-0.08605752706268582
abag1
(g15
g3
Ntp1346
Rp1347
(lp1348
F0.4315409343826175
aF0.2132911450722208
aF0.8701086046431246
aF-0.10578433490811921
ababa(F-0.3490658503988659
F0.18750000000000003
F1.4134476076404443
F0.01875000000000001
F-0.3490658503988659
F0.7694094308437647
F0.9840758342152756
F0.016000000000000007
F-0.3490658503988659
F1.5152846503407742
F0.31720897295204364
F1.5707963267948966
F1.0471975511965976
F1.2217304763960306
F0.0
F-0.4460987755982988
F0.0775
tp1349
aF-1.0
aF0.02938245767614127
ag1
(g20
g3
Ntp1350
Rp1351
(lp1352
g1
(g24
g3
Ntp1353
Rp1354
(lp1355
I0
ag1
(g28
g3
Ntp1356
Rp1357
(lp1358
I0
aI0
abaS'shadowhandnew'
p1359
abag1
(g33
g3
Ntp1360
Rp1361
(lp1362
F0.960429138778732
aF-0.1920858277557464
aF0.2016901191435337
abababag1
(g2
g3
Ntp1363
Rp1364
(lp1365
I0
ag1
(g7
g3
Ntp1366
Rp1367
(lp1368
g1
(g11
g3
Ntp1369
Rp1370
(lp1371
F0.10985092973541606
aF0.06207641751053976
aF0.07671220951676323
abag1
(g15
g3
Ntp1372
Rp1373
(lp1374
F-0.10296458221943967
aF0.4511841276289102
aF0.8849153481907416
aF0.05249766014380349
ababa(F-0.3490658503988659
F1.5505408102684397
F0.4985000000000004
F1.5707963267948966
F-0.34530223346298916
F1.495000000000001
F0.4985000000000004
F0.4985000000000004
F-0.3490658503988659
F1.5707963267948966
F1.5707963267948966
F0.741130872206716
F1.0471975511965976
F0.26500000000000007
F0.0
F0.5235987755982988
F1.0765392456663223
tp1375
aF-1.0
aF0.0
ag1
(g20
g3
Ntp1376
Rp1377
(lp1378
g1
(g24
g3
Ntp1379
Rp1380
(lp1381
I0
ag1
(g28
g3
Ntp1382
Rp1383
(lp1384
I0
aI0
abaS'shadowhandnew'
p1385
abag1
(g33
g3
Ntp1386
Rp1387
(lp1388
F0.960429138778732
aF-0.1920858277557464
aF0.2016901191435337
abababag1
(g2
g3
Ntp1389
Rp1390
(lp1391
I0
ag1
(g7
g3
Ntp1392
Rp1393
(lp1394
g1
(g11
g3
Ntp1395
Rp1396
(lp1397
F0.10462494133753111
aF0.03956332032407394
aF0.08592527961490035
abag1
(g15
g3
Ntp1398
Rp1399
(lp1400
F-0.13727557726586836
aF0.2680024953245288
aF0.9528059377514303
aF0.03861247689239923
ababa(F-0.3490658503988659
F1.5494685515397646
F0.4980000000000004
F0.4980000000000004
F-0.3490658503988659
F1.500000000000001
F1.5707963267948966
F1.5707963267948966
F-0.3490658503988659
F1.5707963267948966
F1.5707963267948966
F0.4980000000000004
F1.0471975511965976
F0.18000000000000002
F0.0
F0.5235987755982988
F1.5707963267948966
tp1401
aF-1.0
aF0.0
ag1
(g20
g3
Ntp1402
Rp1403
(lp1404
g1
(g24
g3
Ntp1405
Rp1406
(lp1407
I0
ag1
(g28
g3
Ntp1408
Rp1409
(lp1410
I0
aI0
abaS'shadowhandnew'
p1411
abag1
(g33
g3
Ntp1412
Rp1413
(lp1414
F0.960429138778732
aF-0.1920858277557464
aF0.2016901191435337
abababag1
(g2
g3
Ntp1415
Rp1416
(lp1417
I0
ag1
(g7
g3
Ntp1418
Rp1419
(lp1420
g1
(g11
g3
Ntp1421
Rp1422
(lp1423
F0.12408320427162912
aF0.014380135206679575
aF0.022308680421008645
abag1
(g15
g3
Ntp1424
Rp1425
(lp1426
F-0.16277976455686502
aF-0.08580935882224575
aF0.9828212025909866
aF-0.014212175306187081
ababa(F-0.3490658503988659
F1.228750000000001
F0.1228750000000001
F0.4978750000000004
F-0.3490658503988659
F0.9587500000000007
F1.5707963267948966
F1.5707963267948966
F-0.3490658503988659
F1.5042760306859702
F0.0023750000000000004
F1.4096182101968533
F0.6779349189287941
F0.3987500000000002
F0.0
F-0.12484877559829843
F1.5707963267948966
tp1427
aF-1.0
aF0.07431725142490285
ag1
(g20
g3
Ntp1428
Rp1429
(lp1430
g1
(g24
g3
Ntp1431
Rp1432
(lp1433
I0
ag1
(g28
g3
Ntp1434
Rp1435
(lp1436
I0
aI0
abaS'shadowhandnew'
p1437
abag1
(g33
g3
Ntp1438
Rp1439
(lp1440
F0.960429138778732
aF-0.1920858277557464
aF0.2016901191435337
abababag1
(g2
g3
Ntp1441
Rp1442
(lp1443
I0
ag1
(g7
g3
Ntp1444
Rp1445
(lp1446
g1
(g11
g3
Ntp1447
Rp1448
(lp1449
F0.11753921375871122
aF-0.018950697325150357
aF0.04424314801067967
abag1
(g15
g3
Ntp1450
Rp1451
(lp1452
F-0.22437241797307042
aF0.4250375882774106
aF0.8700491697626432
aF0.10961071480277586
ababa(F-0.3490658503988659
F1.1108840035033927
F0.6906896183253826
F1.194850125859317
F-0.3490658503988659
F1.4975000000000012
F0.1497500000000001
F1.5707963267948966
F-0.3490658503988659
F1.5707963267948966
F0.08100000000000006
F1.5707963267948966
F-0.2371975511965969
F1.0786191544315937
F0.0
F0.2864012244017016
F1.5707963267948966
tp1453
aF-1.0
aF9.422324951674515e-05
ag1
(g20
g3
Ntp1454
Rp1455
(lp1456
g1
(g24
g3
Ntp1457
Rp1458
(lp1459
I0
ag1
(g28
g3
Ntp1460
Rp1461
(lp1462
I0
aI0
abaS'shadowhandnew'
p1463
abag1
(g33
g3
Ntp1464
Rp1465
(lp1466
F0.960429138778732
aF-0.1920858277557464
aF0.2016901191435337
abababag1
(g2
g3
Ntp1467
Rp1468
(lp1469
I0
ag1
(g7
g3
Ntp1470
Rp1471
(lp1472
g1
(g11
g3
Ntp1473
Rp1474
(lp1475
F0.12574696151001433
aF0.008929115627919568
aF0.049002092728233373
abag1
(g15
g3
Ntp1476
Rp1477
(lp1478
F-0.3970989231256185
aF0.02358466674347295
aF0.9174159335649851
aF0.01020850567715401
ababa(F0.039223698539011864
F1.2740756566809268
F0.021875000000000012
F1.5707963267948966
F-0.3490658503988659
F1.4999947470322263
F0.4741250000000004
F0.4741250000000004
F-0.3490658503988659
F1.1312500000000008
F1.5707963267948966
F0.11312500000000009
F-0.9050134872168465
F1.2217304763960306
F0.0
F0.5235987755982988
F1.5707963267948966
tp1479
aF-1.0
aF0.08643843874827645
ag1
(g20
g3
Ntp1480
Rp1481
(lp1482
g1
(g24
g3
Ntp1483
Rp1484
(lp1485
I0
ag1
(g28
g3
Ntp1486
Rp1487
(lp1488
I0
aI0
abaS'shadowhandnew'
p1489
abag1
(g33
g3
Ntp1490
Rp1491
(lp1492
F0.960429138778732
aF-0.1920858277557464
aF0.2016901191435337
abababag1
(g2
g3
Ntp1493
Rp1494
(lp1495
I0
ag1
(g7
g3
Ntp1496
Rp1497
(lp1498
g1
(g11
g3
Ntp1499
Rp1500
(lp1501
F0.12971900878031137
aF0.05496441199842022
aF0.0785502824818494
abag1
(g15
g3
Ntp1502
Rp1503
(lp1504
F0.041167398341019415
aF0.26316226308454665
aF0.9638073039092078
aF-0.011240530828915813
ababa(F-0.3490658503988659
F1.545000000000001
F1.5707963267948966
F1.5707963267948966
F-0.3490658503988659
F1.495000000000001
F0.4985000000000004
F1.5707963267948966
F-0.3490658503988659
F1.5707963267948966
F1.5707963267948966
F1.3794673721729156
F1.0471975511965976
F0.19500000000000003
F0.0
F0.5235987755982988
F1.5707963267948966
tp1505
aF-1.0
aF0.0
ag1
(g20
g3
Ntp1506
Rp1507
(lp1508
g1
(g24
g3
Ntp1509
Rp1510
(lp1511
I0
ag1
(g28
g3
Ntp1512
Rp1513
(lp1514
I0
aI0
abaS'shadowhandnew'
p1515
abag1
(g33
g3
Ntp1516
Rp1517
(lp1518
F0.960429138778732
aF-0.1920858277557464
aF0.2016901191435337
abababag1
(g2
g3
Ntp1519
Rp1520
(lp1521
I0
ag1
(g7
g3
Ntp1522
Rp1523
(lp1524
g1
(g11
g3
Ntp1525
Rp1526
(lp1527
F0.1280166423466498
aF0.024793118844055887
aF0.03410123010344156
abag1
(g15
g3
Ntp1528
Rp1529
(lp1530
F-0.30488778677929784
aF-0.16471051821177593
aF0.9365033070451033
aF-0.053623115881256594
ababa(F-0.3490658503988659
F0.7112500000000005
F1.3887041981213775
F0.07112500000000005
F-0.3490658503988659
F1.501250000000001
F0.2461250000000002
F0.2461250000000002
F-0.3490658503988659
F1.5707963267948966
F0.3761250000000003
F0.3761250000000003
F-0.7746975511965974
F1.2217304763960306
F0.0
F0.5235987755982988
F1.5707963267948966
tp1531
aF-1.0
aF0.14176370007954625
ag1
(g20
g3
Ntp1532
Rp1533
(lp1534
g1
(g24
g3
Ntp1535
Rp1536
(lp1537
I0
ag1
(g28
g3
Ntp1538
Rp1539
(lp1540
I0
aI0
abaS'shadowhandnew'
p1541
abag1
(g33
g3
Ntp1542
Rp1543
(lp1544
F0.960429138778732
aF-0.1920858277557464
aF0.2016901191435337
abababag1
(g2
g3
Ntp1545
Rp1546
(lp1547
I0
ag1
(g7
g3
Ntp1548
Rp1549
(lp1550
g1
(g11
g3
Ntp1551
Rp1552
(lp1553
F0.12937721308738287
aF0.05938182156908473
aF0.06921357274087221
abag1
(g15
g3
Ntp1554
Rp1555
(lp1556
F0.04355180474838353
aF0.3159718600634816
aF0.9476571943125572
aF-0.014521226492086963
ababa(F0.01677422526119993
F1.3250000000000008
F1.5707963267948966
F0.4995000000000004
F-0.3490658503988659
F1.3250000000000008
F1.5707963267948966
F1.5707963267948966
F-0.3490658503988659
F1.5707963267948966
F1.484679543996897
F1.5707963267948966
F1.0471975511965976
F0.19500000000000003
F0.0
F0.5235987755982988
F1.5707963267948966
tp1557
aF-1.0
aF0.0
ag1
(g20
g3
Ntp1558
Rp1559
(lp1560
g1
(g24
g3
Ntp1561
Rp1562
(lp1563
I0
ag1
(g28
g3
Ntp1564
Rp1565
(lp1566
I0
aI0
abaS'shadowhandnew'
p1567
abag1
(g33
g3
Ntp1568
Rp1569
(lp1570
F0.960429138778732
aF-0.1920858277557464
aF0.2016901191435337
abababag1
(g2
g3
Ntp1571
Rp1572
(lp1573
I0
ag1
(g7
g3
Ntp1574
Rp1575
(lp1576
g1
(g11
g3
Ntp1577
Rp1578
(lp1579
F0.06743420174638111
aF0.03442930566170524
aF0.1113610552345454
abag1
(g15
g3
Ntp1580
Rp1581
(lp1582
F-0.33090691888977447
aF0.21429703580785991
aF0.9157406152734343
aF0.07743718107907294
ababa(F-0.19196861556199782
F1.545000000000001
F1.5707963267948966
F0.4985000000000004
F-0.3490658503988659
F1.495000000000001
F0.4985000000000004
F1.5707963267948966
F-0.3490658503988659
F1.5707963267948966
F1.5707963267948966
F0.9047762173440687
F1.0471975511965976
F0.19500000000000003
F0.0
F0.5235987755982988
F1.5707963267948966
tp1583
aF-1.0
aF0.0
ag1
(g20
g3
Ntp1584
Rp1585
(lp1586
g1
(g24
g3
Ntp1587
Rp1588
(lp1589
I0
ag1
(g28
g3
Ntp1590
Rp1591
(lp1592
I0
aI0
abaS'shadowhandnew'
p1593
abag1
(g33
g3
Ntp1594
Rp1595
(lp1596
F0.960429138778732
aF-0.1920858277557464
aF0.2016901191435337
abababag1
(g2
g3
Ntp1597
Rp1598
(lp1599
I0
ag1
(g7
g3
Ntp1600
Rp1601
(lp1602
g1
(g11
g3
Ntp1603
Rp1604
(lp1605
F0.060254462499109866
aF-0.02884407242491783
aF0.10287206695500463
abag1
(g15
g3
Ntp1606
Rp1607
(lp1608
F-0.4314801830224534
aF-0.39674751003678727
aF0.7798941831845266
aF-0.21950245550667424
ababa(F-0.3490658503988659
F1.545000000000001
F1.5707963267948966
F0.639631272779636
F-0.3490658503988659
F1.495000000000001
F1.5707963267948966
F0.4985000000000004
F-0.3490658503988659
F1.5707963267948966
F1.5707963267948966
F0.8920696160499699
F1.0471975511965976
F0.19500000000000003
F0.0
F0.5235987755982988
F1.5707963267948966
tp1609
aF-1.0
aF0.0
ag1
(g20
g3
Ntp1610
Rp1611
(lp1612
g1
(g24
g3
Ntp1613
Rp1614
(lp1615
I0
ag1
(g28
g3
Ntp1616
Rp1617
(lp1618
I0
aI0
abaS'shadowhandnew'
p1619
abag1
(g33
g3
Ntp1620
Rp1621
(lp1622
F0.960429138778732
aF-0.1920858277557464
aF0.2016901191435337
abababag1
(g2
g3
Ntp1623
Rp1624
(lp1625
I0
ag1
(g7
g3
Ntp1626
Rp1627
(lp1628
g1
(g11
g3
Ntp1629
Rp1630
(lp1631
F0.05711990168476065
aF0.05501548838191148
aF-0.09389871718338651
abag1
(g15
g3
Ntp1632
Rp1633
(lp1634
F0.37324280105888175
aF-0.433108982847182
aF0.7948213150957714
aF0.20338509656370618
ababa(F-0.3490658503988659
F0.23875000000000007
F1.5707963267948966
F0.023875000000000014
F-0.3490658503988659
F0.07375000000000001
F1.5707963267948966
F0.0073750000000000005
F-0.3490658503988659
F0.42125000000000024
F0.04212500000000003
F1.5707963267948966
F0.25028070826660576
F1.2217304763960306
F0.0
F-0.3773487755982987
F0.14625
tp1635
aF-1.0
aF0.4751074881952886
ag1
(g20
g3
Ntp1636
Rp1637
(lp1638
g1
(g24
g3
Ntp1639
Rp1640
(lp1641
I0
ag1
(g28
g3
Ntp1642
Rp1643
(lp1644
I0
aI0
abaS'shadowhandnew'
p1645
abag1
(g33
g3
Ntp1646
Rp1647
(lp1648
F0.960429138778732
aF-0.1920858277557464
aF0.2016901191435337
abababag1
(g2
g3
Ntp1649
Rp1650
(lp1651
I0
ag1
(g7
g3
Ntp1652
Rp1653
(lp1654
g1
(g11
g3
Ntp1655
Rp1656
(lp1657
F0.09761825539696332
aF-0.01671694630784769
aF-0.060314504483442354
abag1
(g15
g3
Ntp1658
Rp1659
(lp1660
F0.27041320593608825
aF0.407091440387156
aF0.8630669945525493
aF-0.12754850110019844
ababa(F-0.3490658503988659
F0.44881330594098584
F1.5707963267948966
F0.035000000000000024
F-0.3490658503988659
F1.4960742249980765
F0.014750000000000006
F0.014750000000000006
F-0.07232884081974483
F1.502469905669269
F1.5707963267948966
F1.5707963267948966
F0.5498143933069273
F1.2217304763960306
F0.0
F-0.022432750515257234
F0.5685735567456591
tp1661
aF-1.0
aF0.0
ag1
(g20
g3
Ntp1662
Rp1663
(lp1664
g1
(g24
g3
Ntp1665
Rp1666
(lp1667
I0
ag1
(g28
g3
Ntp1668
Rp1669
(lp1670
I0
aI0
abaS'shadowhandnew'
p1671
abag1
(g33
g3
Ntp1672
Rp1673
(lp1674
F0.960429138778732
aF-0.1920858277557464
aF0.2016901191435337
abababag1
(g2
g3
Ntp1675
Rp1676
(lp1677
I0
ag1
(g7
g3
Ntp1678
Rp1679
(lp1680
g1
(g11
g3
Ntp1681
Rp1682
(lp1683
F0.12970430805390773
aF0.05481051689348676
aF0.035990614363830165
abag1
(g15
g3
Ntp1684
Rp1685
(lp1686
F-0.30536100411295763
aF-0.39752221019961387
aF0.8535246848189421
aF-0.14221941488371395
ababa(F-0.1588304886270799
F1.1000000000000008
F0.11000000000000008
F1.5707963267948966
F-0.3490658503988659
F1.3681695661982016
F1.5707963267948966
F1.5707963267948966
F-0.3490658503988659
F1.4450000000000012
F1.5707963267948966
F1.5707963267948966
F-1.0271975511965976
F1.2217304763960306
F0.0
F0.5235987755982988
F1.5707963267948966
tp1687
aF-1.0
aF0.009191727318975525
ag1
(g20
g3
Ntp1688
Rp1689
(lp1690
g1
(g24
g3
Ntp1691
Rp1692
(lp1693
I0
ag1
(g28
g3
Ntp1694
Rp1695
(lp1696
I0
aI0
abaS'shadowhandnew'
p1697
abag1
(g33
g3
Ntp1698
Rp1699
(lp1700
F0.960429138778732
aF-0.1920858277557464
aF0.2016901191435337
abababag1
(g2
g3
Ntp1701
Rp1702
(lp1703
I0
ag1
(g7
g3
Ntp1704
Rp1705
(lp1706
g1
(g11
g3
Ntp1707
Rp1708
(lp1709
F0.1009711163002247
aF0.038674347362879245
aF0.08901478289653403
abag1
(g15
g3
Ntp1710
Rp1711
(lp1712
F-0.24702460512658259
aF0.33675596198366964
aF0.9039387420383405
aF0.09202726320309666
ababa(F-0.3490658503988659
F1.5187500000000012
F1.5707963267948966
F1.5707963267948966
F-0.3490658503988659
F1.5016226446782133
F1.3184498652835275
F0.10387500000000008
F-0.3490658503988659
F1.5707963267948966
F1.5707963267948966
F0.5607367743957874
F-0.008447551196596834
F1.2217304763960306
F0.0
F0.5235987755982988
F1.5707963267948966
tp1713
aF-1.0
aF0.0
ag1
(g20
g3
Ntp1714
Rp1715
(lp1716
g1
(g24
g3
Ntp1717
Rp1718
(lp1719
I0
ag1
(g28
g3
Ntp1720
Rp1721
(lp1722
I0
aI0
abaS'shadowhandnew'
p1723
abag1
(g33
g3
Ntp1724
Rp1725
(lp1726
F0.960429138778732
aF-0.1920858277557464
aF0.2016901191435337
abababag1
(g2
g3
Ntp1727
Rp1728
(lp1729
I0
ag1
(g7
g3
Ntp1730
Rp1731
(lp1732
g1
(g11
g3
Ntp1733
Rp1734
(lp1735
F0.08874037639140434
aF0.00981435901070963
aF-0.08667621852341688
abag1
(g15
g3
Ntp1736
Rp1737
(lp1738
F0.2979415701041994
aF0.050638466199014145
aF0.9531085935478624
aF-0.015829575170276822
ababa(F0.29436310489208256
F0.21625000000000005
F1.038980513459002
F0.021625000000000012
F0.2321180580170884
F1.191250000000001
F1.5707963267948966
F1.5707963267948966
F-0.3490658503988659
F1.5707963267948966
F1.5707963267948966
F1.5707963267948966
F0.18737190031505543
F1.2217304763960306
F0.0
F0.5235987755982988
F0.07500000000000001
tp1739
aF-1.0
aF0.0
ag1
(g20
g3
Ntp1740
Rp1741
(lp1742
g1
(g24
g3
Ntp1743
Rp1744
(lp1745
I0
ag1
(g28
g3
Ntp1746
Rp1747
(lp1748
I0
aI0
abaS'shadowhandnew'
p1749
abag1
(g33
g3
Ntp1750
Rp1751
(lp1752
F0.960429138778732
aF-0.1920858277557464
aF0.2016901191435337
abababag1
(g2
g3
Ntp1753
Rp1754
(lp1755
I0
ag1
(g7
g3
Ntp1756
Rp1757
(lp1758
g1
(g11
g3
Ntp1759
Rp1760
(lp1761
F0.10967033738545162
aF0.04547203185295167
aF0.08723039627624062
abag1
(g15
g3
Ntp1762
Rp1763
(lp1764
F-0.16997285155492894
aF0.3148288127850218
aF0.932038435080919
aF0.05741431795790386
ababa(F-0.2006055334504347
F1.4027719897270494
F1.5707963267948966
F0.30014182906822895
F-0.3490658503988659
F1.4933954193991605
F1.5707963267948966
F0.11075000000000008
F-0.32535881350368534
F1.5707963267948966
F1.5707963267948966
F0.7399283882674497
F-0.329697551196597
F0.7175000000000004
F0.0
F0.5235987755982988
F1.5707963267948966
tp1765
aF-1.0
aF0.0
ag1
(g20
g3
Ntp1766
Rp1767
(lp1768
g1
(g24
g3
Ntp1769
Rp1770
(lp1771
I0
ag1
(g28
g3
Ntp1772
Rp1773
(lp1774
I0
aI0
abaS'shadowhandnew'
p1775
abag1
(g33
g3
Ntp1776
Rp1777
(lp1778
F0.960429138778732
aF-0.1920858277557464
aF0.2016901191435337
abababag1
(g2
g3
Ntp1779
Rp1780
(lp1781
I0
ag1
(g7
g3
Ntp1782
Rp1783
(lp1784
g1
(g11
g3
Ntp1785
Rp1786
(lp1787
F0.1059809772681046
aF0.053288485873773675
aF0.08678822585666271
abag1
(g15
g3
Ntp1788
Rp1789
(lp1790
F-0.19744627195944212
aF0.4281705968574323
aF0.8765748096702066
aF0.09644435041882614
ababa(F-0.3490658503988659
F1.5500000000000012
F0.4980000000000004
F1.5707963267948966
F-0.3490658503988659
F1.4986488063956989
F1.5707963267948966
F0.4980000000000004
F-0.3490658503988659
F1.5707963267948966
F1.5707963267948966
F0.8049094025114998
F-0.317197551196597
F0.7300000000000004
F0.0
F0.5235987755982988
F1.5707963267948966
tp1791
aF-1.0
aF0.0
ag1
(g20
g3
Ntp1792
Rp1793
(lp1794
g1
(g24
g3
Ntp1795
Rp1796
(lp1797
I0
ag1
(g28
g3
Ntp1798
Rp1799
(lp1800
I0
aI0
abaS'shadowhandnew'
p1801
abag1
(g33
g3
Ntp1802
Rp1803
(lp1804
F0.960429138778732
aF-0.1920858277557464
aF0.2016901191435337
abababag1
(g2
g3
Ntp1805
Rp1806
(lp1807
I0
ag1
(g7
g3
Ntp1808
Rp1809
(lp1810
g1
(g11
g3
Ntp1811
Rp1812
(lp1813
F0.1327402644517411
aF0.016318180397638927
aF0.0010426802674294037
abag1
(g15
g3
Ntp1814
Rp1815
(lp1816
F-0.003903507231101666
aF-0.159966981537217
aF0.9871144448782709
aF-0.0006325834581876037
ababa(F-0.3490658503988659
F0.15310996835179969
F1.5707963267948966
F0.011500000000000003
F-0.3490658503988659
F0.8125000000000007
F0.08125000000000006
F0.4977500000000004
F-0.028661619052070143
F1.1221453188665667
F0.012000000000000004
F1.5707963267948966
F-0.2296975511965969
F0.8175000000000007
F0.0
F0.29390122440170163
F0.9175000000000008
tp1817
aF-1.0
aF0.07953544075680728
ag1
(g20
g3
Ntp1818
Rp1819
(lp1820
g1
(g24
g3
Ntp1821
Rp1822
(lp1823
I0
ag1
(g28
g3
Ntp1824
Rp1825
(lp1826
I0
aI0
abaS'shadowhandnew'
p1827
abag1
(g33
g3
Ntp1828
Rp1829
(lp1830
F0.960429138778732
aF-0.1920858277557464
aF0.2016901191435337
abababag1
(g2
g3
Ntp1831
Rp1832
(lp1833
I0
ag1
(g7
g3
Ntp1834
Rp1835
(lp1836
g1
(g11
g3
Ntp1837
Rp1838
(lp1839
F0.09758191593260318
aF-0.0018344427184125323
aF-0.07029690214974181
abag1
(g15
g3
Ntp1840
Rp1841
(lp1842
F0.3259354389878196
aF0.2753490904731443
aF0.8988773403463363
aF-0.09984235073016984
ababa(F-0.3490658503988659
F0.37375000000000014
F1.2143347624312117
F0.037375000000000026
F-0.3490658503988659
F1.0837500000000007
F1.5707963267948966
F1.5707963267948966
F-0.3490658503988659
F1.5707963267948966
F0.4983750000000004
F0.4983750000000004
F1.0471975511965976
F1.2217304763960306
F0.0
F-0.4623487755982988
F0.061250000000000006
tp1843
aF-1.0
aF0.010378285538971794
ag1
(g20
g3
Ntp1844
Rp1845
(lp1846
g1
(g24
g3
Ntp1847
Rp1848
(lp1849
I0
ag1
(g28
g3
Ntp1850
Rp1851
(lp1852
I0
aI0
abaS'shadowhandnew'
p1853
abag1
(g33
g3
Ntp1854
Rp1855
(lp1856
F0.960429138778732
aF-0.1920858277557464
aF0.2016901191435337
abababag1
(g2
g3
Ntp1857
Rp1858
(lp1859
I0
ag1
(g7
g3
Ntp1860
Rp1861
(lp1862
g1
(g11
g3
Ntp1863
Rp1864
(lp1865
F0.10794838228562775
aF0.05816427573597991
aF-0.0702191930763481
abag1
(g15
g3
Ntp1866
Rp1867
(lp1868
F0.1796840869956157
aF-0.4403127504423013
aF0.8750217158460871
aF0.09041740693172659
ababa(F-0.3490658503988659
F1.549375000000001
F1.5707963267948966
F1.5707963267948966
F-0.3490658503988659
F0.9802528216323192
F0.09058386224854505
F0.008937500000000001
F-0.3490658503988659
F0.20937500000000006
F1.5707963267948966
F0.6655173288007907
F0.29564737253251716
F0.5437984873826375
F0.0
F-0.45797377559829877
F0.23803190134978128
tp1869
aF-1.0
aF0.10898413135376925
ag1
(g20
g3
Ntp1870
Rp1871
(lp1872
g1
(g24
g3
Ntp1873
Rp1874
(lp1875
I0
ag1
(g28
g3
Ntp1876
Rp1877
(lp1878
I0
aI0
abaS'shadowhandnew'
p1879
abag1
(g33
g3
Ntp1880
Rp1881
(lp1882
F0.960429138778732
aF-0.1920858277557464
aF0.2016901191435337
abababag1
(g2
g3
Ntp1883
Rp1884
(lp1885
I0
ag1
(g7
g3
Ntp1886
Rp1887
(lp1888
g1
(g11
g3
Ntp1889
Rp1890
(lp1891
F0.12733871545248188
aF0.018032840718627402
aF0.05194652027545948
abag1
(g15
g3
Ntp1892
Rp1893
(lp1894
F-0.3539519825870667
aF-0.05206050206937591
aF0.9336049131466961
aF-0.019737383193310483
ababa(F-0.3490658503988659
F0.6482790483161354
F1.5707963267948966
F0.046750000000000035
F-0.3490658503988659
F1.4842028191919077
F0.5562022778924636
F0.06750000000000005
F-0.3490658503988659
F1.5707963267948966
F0.07850000000000006
F1.4944364436089979
F1.0471975511965976
F0.3150000000000001
F0.0
F0.5235987755982988
F0.5175000000000003
tp1895
aF-1.0
aF0.006253384972561271
ag1
(g20
g3
Ntp1896
Rp1897
(lp1898
g1
(g24
g3
Ntp1899
Rp1900
(lp1901
I0
ag1
(g28
g3
Ntp1902
Rp1903
(lp1904
I0
aI0
abaS'shadowhandnew'
p1905
abag1
(g33
g3
Ntp1906
Rp1907
(lp1908
F0.960429138778732
aF-0.1920858277557464
aF0.2016901191435337
abababag1
(g2
g3
Ntp1909
Rp1910
(lp1911
I0
ag1
(g7
g3
Ntp1912
Rp1913
(lp1914
g1
(g11
g3
Ntp1915
Rp1916
(lp1917
F0.13975140835757138
aF0.02247548690731676
aF-0.019411033730711173
abag1
(g15
g3
Ntp1918
Rp1919
(lp1920
F-0.09416481253620874
aF-0.08309431509018052
aF0.9920514674777481
aF-0.007887252687791642
ababa(F0.01592274459507247
F0.7229231649772078
F0.589313692808145
F1.0187157796543684
F-0.3490658503988659
F1.1312500000000008
F0.11312500000000009
F1.5707963267948966
F-0.3490658503988659
F0.9912500000000007
F1.1370090245204585
F0.09912500000000007
F0.18868885854673748
F1.2217304763960306
F0.0
F-0.5148487755982988
F0.14798698421181752
tp1921
aF-1.0
aF0.07961556458220431
ag1
(g20
g3
Ntp1922
Rp1923
(lp1924
g1
(g24
g3
Ntp1925
Rp1926
(lp1927
I0
ag1
(g28
g3
Ntp1928
Rp1929
(lp1930
I0
aI0
abaS'shadowhandnew'
p1931
abag1
(g33
g3
Ntp1932
Rp1933
(lp1934
F0.960429138778732
aF-0.1920858277557464
aF0.2016901191435337
abababag1
(g2
g3
Ntp1935
Rp1936
(lp1937
I0
ag1
(g7
g3
Ntp1938
Rp1939
(lp1940
g1
(g11
g3
Ntp1941
Rp1942
(lp1943
F0.08367853217759741
aF-0.007462168058763247
aF-0.0832488364387704
abag1
(g15
g3
Ntp1944
Rp1945
(lp1946
F0.35935480980541024
aF0.2531064504880434
aF0.8924201134790277
aF-0.1019195096590467
ababa(F-0.3490658503988659
F0.18500000000000003
F1.5707963267948966
F0.01850000000000001
F-0.3490658503988659
F1.0925000000000007
F0.10925000000000008
F1.5707963267948966
F-0.3490658503988659
F1.5707963267948966
F0.7043334969276862
F0.4982500000000004
F1.0471975511965976
F1.2217304763960306
F0.0
F-0.3885987755982987
F0.13499999999999998
tp1947
aF-1.0
aF0.0
ag1
(g20
g3
Ntp1948
Rp1949
(lp1950
g1
(g24
g3
Ntp1951
Rp1952
(lp1953
I0
ag1
(g28
g3
Ntp1954
Rp1955
(lp1956
I0
aI0
abaS'shadowhandnew'
p1957
abag1
(g33
g3
Ntp1958
Rp1959
(lp1960
F0.960429138778732
aF-0.1920858277557464
aF0.2016901191435337
abababag1
(g2
g3
Ntp1961
Rp1962
(lp1963
I0
ag1
(g7
g3
Ntp1964
Rp1965
(lp1966
g1
(g11
g3
Ntp1967
Rp1968
(lp1969
F0.10116965807016536
aF0.029347593395964676
aF-0.07772876502170072
abag1
(g15
g3
Ntp1970
Rp1971
(lp1972
F0.23079075675564004
aF-0.16190619514321963
aF0.9586462843852933
aF0.0389783530267269
ababa(F-0.01844436591798846
F0.9001427791610156
F0.013875000000000005
F0.013875000000000005
F0.04974776623508211
F1.3037500000000009
F1.5707963267948966
F1.5707963267948966
F-0.3490658503988659
F1.5707963267948966
F1.5707963267948966
F1.5707963267948966
F-0.1242382077144448
F1.2217304763960306
F0.0
F0.5235987755982988
F0.051250000000000004
tp1973
aF-1.0
aF0.039745922042411105
ag1
(g20
g3
Ntp1974
Rp1975
(lp1976
g1
(g24
g3
Ntp1977
Rp1978
(lp1979
I0
ag1
(g28
g3
Ntp1980
Rp1981
(lp1982
I0
aI0
abaS'shadowhandnew'
p1983
abag1
(g33
g3
Ntp1984
Rp1985
(lp1986
F0.960429138778732
aF-0.1920858277557464
aF0.2016901191435337
abababag1
(g2
g3
Ntp1987
Rp1988
(lp1989
I0
ag1
(g7
g3
Ntp1990
Rp1991
(lp1992
g1
(g11
g3
Ntp1993
Rp1994
(lp1995
F0.13232749471914282
aF-0.005327394133540537
aF0.0276368226999502
abag1
(g15
g3
Ntp1996
Rp1997
(lp1998
F-0.17345062168331637
aF0.32849502517193957
aF0.9264033341849583
aF0.06150416803721679
ababa(F-0.3490658503988659
F0.9325000000000006
F1.2305915559632803
F0.09325000000000007
F-0.3490658503988659
F1.3975000000000009
F0.1397500000000001
F1.5707963267948966
F-0.11214240108527603
F1.5707963267948966
F0.02100000000000001
F0.5405169248881235
F0.46587631482970543
F1.2217304763960306
F0.0
F-0.31359877559829863
F0.21000000000000005
tp1999
aF-1.0
aF0.00648664558278861
ag1
(g20
g3
Ntp2000
Rp2001
(lp2002
g1
(g24
g3
Ntp2003
Rp2004
(lp2005
I0
ag1
(g28
g3
Ntp2006
Rp2007
(lp2008
I0
aI0
abaS'shadowhandnew'
p2009
abag1
(g33
g3
Ntp2010
Rp2011
(lp2012
F0.960429138778732
aF-0.1920858277557464
aF0.2016901191435337
abababag1
(g2
g3
Ntp2013
Rp2014
(lp2015
I0
ag1
(g7
g3
Ntp2016
Rp2017
(lp2018
g1
(g11
g3
Ntp2019
Rp2020
(lp2021
F0.13359719122715535
aF0.018582707232592387
aF0.054769409513157286
abag1
(g15
g3
Ntp2022
Rp2023
(lp2024
F-0.42883712641194616
aF-0.035405672786394594
aF0.9025309659195263
aF-0.016822987298757024
ababa(F-0.3490658503988659
F0.7912500000000006
F1.5471071842456268
F1.5707963267948966
F-0.3490658503988659
F0.9225000000000007
F1.5707963267948966
F0.09225000000000008
F-0.3490658503988659
F1.5707963267948966
F0.08112500000000006
F1.3233515940153817
F1.0471975511965976
F0.4062500000000002
F0.0
F-0.11734877559829848
F1.5707963267948966
tp2025
aF-1.0
aF0.00784798313772887
ag1
(g20
g3
Ntp2026
Rp2027
(lp2028
g1
(g24
g3
Ntp2029
Rp2030
(lp2031
I0
ag1
(g28
g3
Ntp2032
Rp2033
(lp2034
I0
aI0
abaS'shadowhandnew'
p2035
abag1
(g33
g3
Ntp2036
Rp2037
(lp2038
F0.960429138778732
aF-0.1920858277557464
aF0.2016901191435337
abababag1
(g2
g3
Ntp2039
Rp2040
(lp2041
I0
ag1
(g7
g3
Ntp2042
Rp2043
(lp2044
g1
(g11
g3
Ntp2045
Rp2046
(lp2047
F0.13027315855103472
aF0.04984823436844651
aF0.05948472382503866
abag1
(g15
g3
Ntp2048
Rp2049
(lp2050
F-0.4152765289732354
aF-0.320652809100481
aF0.8362857298845694
aF-0.15922737984198887
ababa(F-0.3490658503988659
F0.9100000000000006
F1.2156075627254612
F1.5707963267948966
F-0.3490658503988659
F0.8200000000000005
F1.5707963267948966
F0.08200000000000006
F-0.3490658503988659
F0.9762500000000006
F1.5707963267948966
F0.09762500000000007
F-0.7978875510979557
F1.2217304763960306
F0.0
F0.5235987755982988
F1.5707963267948966
tp2051
aF-1.0
aF0.058870489377873356
ag1
(g20
g3
Ntp2052
Rp2053
(lp2054
g1
(g24
g3
Ntp2055
Rp2056
(lp2057
I0
ag1
(g28
g3
Ntp2058
Rp2059
(lp2060
I0
aI0
abaS'shadowhandnew'
p2061
abag1
(g33
g3
Ntp2062
Rp2063
(lp2064
F0.960429138778732
aF-0.1920858277557464
aF0.2016901191435337
abababag1
(g2
g3
Ntp2065
Rp2066
(lp2067
I0
ag1
(g7
g3
Ntp2068
Rp2069
(lp2070
g1
(g11
g3
Ntp2071
Rp2072
(lp2073
F0.1238741101314223
aF0.015323138850992976
aF0.051429504050850866
abag1
(g15
g3
Ntp2074
Rp2075
(lp2076
F-0.2886236093457897
aF-0.017452205109116076
aF0.9572691076017239
aF-0.005261966974214558
ababa(F-0.3490658503988659
F1.1600000000000008
F0.1340000000000001
F1.5707963267948966
F-0.3490658503988659
F0.9200000000000006
F1.5707963267948966
F0.09200000000000007
F-0.3490658503988659
F1.5707963267948966
F0.1540000000000001
F1.5707963267948966
F1.0471975511965976
F0.34500000000000014
F0.0
F0.03140122440170152
F1.5707963267948966
tp2077
aF-1.0
aF0.10187265000062093
ag1
(g20
g3
Ntp2078
Rp2079
(lp2080
g1
(g24
g3
Ntp2081
Rp2082
(lp2083
I0
ag1
(g28
g3
Ntp2084
Rp2085
(lp2086
I0
aI0
abaS'shadowhandnew'
p2087
abag1
(g33
g3
Ntp2088
Rp2089
(lp2090
F0.960429138778732
aF-0.1920858277557464
aF0.2016901191435337
abababag1
(g2
g3
Ntp2091
Rp2092
(lp2093
I0
ag1
(g7
g3
Ntp2094
Rp2095
(lp2096
g1
(g11
g3
Ntp2097
Rp2098
(lp2099
F0.13280102667101487
aF-0.0170182924476164
aF0.015022866381549036
abag1
(g15
g3
Ntp2100
Rp2101
(lp2102
F-0.0677755472075032
aF0.4853000406749084
aF0.8708983736049907
aF0.03776729502940134
ababa(F-0.005195701130651807
F0.2750000000000001
F1.5707963267948966
F1.083363058762687
F-0.3490658503988659
F1.2128637025305289
F1.3056613724083965
F1.5707963267948966
F-0.3490658503988659
F0.981383521119679
F1.5707963267948966
F0.08418750000000005
F-0.20532255119659687
F0.8418750000000006
F0.0
F0.31827622440170167
F1.5707963267948966
tp2103
aF-1.0
aF0.0
ag1
(g20
g3
Ntp2104
Rp2105
(lp2106
g1
(g24
g3
Ntp2107
Rp2108
(lp2109
I0
ag1
(g28
g3
Ntp2110
Rp2111
(lp2112
I0
aI0
abaS'shadowhandnew'
p2113
abag1
(g33
g3
Ntp2114
Rp2115
(lp2116
F0.960429138778732
aF-0.1920858277557464
aF0.2016901191435337
abababag1
(g2
g3
Ntp2117
Rp2118
(lp2119
I0
ag1
(g7
g3
Ntp2120
Rp2121
(lp2122
g1
(g11
g3
Ntp2123
Rp2124
(lp2125
F0.13983239506515496
aF0.04881264473635274
aF-0.022725170190282896
abag1
(g15
g3
Ntp2126
Rp2127
(lp2128
F-0.08398338547911471
aF-0.33132538353379415
aF0.9393043743762178
aF-0.029623866515912905
ababa(F-0.3490658503988659
F0.5650000000000003
F1.5707963267948966
F0.056500000000000036
F-0.3490658503988659
F1.0618557388452763
F0.07962500000000006
F1.5707963267948966
F-0.3490658503988659
F1.2025000000000006
F0.12025000000000009
F0.6770819677460458
F-0.6771975511965973
F0.37000000000000016
F0.0
F0.5235987755982988
F0.37000000000000016
tp2129
aF-1.0
aF0.14901784244804156
ag1
(g20
g3
Ntp2130
Rp2131
(lp2132
g1
(g24
g3
Ntp2133
Rp2134
(lp2135
I0
ag1
(g28
g3
Ntp2136
Rp2137
(lp2138
I0
aI0
abaS'shadowhandnew'
p2139
abag1
(g33
g3
Ntp2140
Rp2141
(lp2142
F0.960429138778732
aF-0.1920858277557464
aF0.2016901191435337
abababag1
(g2
g3
Ntp2143
Rp2144
(lp2145
I0
ag1
(g7
g3
Ntp2146
Rp2147
(lp2148
g1
(g11
g3
Ntp2149
Rp2150
(lp2151
F0.13224097066793747
aF0.029136609007106025
aF0.0629619357800325
abag1
(g15
g3
Ntp2152
Rp2153
(lp2154
F-0.33656672870918014
aF0.004116018431143896
aF0.9416494736436403
aF0.0014711576838846662
ababa(F-0.3490658503988659
F0.4200000000000002
F1.5707963267948966
F1.4390362363111475
F-0.3490658503988659
F1.501250000000001
F0.3481250000000003
F1.0045443932958302
F-0.3490658503988659
F1.5707963267948966
F0.250736474083625
F1.5707963267948966
F-0.08594755119659685
F1.2217304763960306
F0.0
F0.4376512244017018
F0.9612500000000006
tp2155
aF-1.0
aF0.029658487648458944
ag1
(g20
g3
Ntp2156
Rp2157
(lp2158
g1
(g24
g3
Ntp2159
Rp2160
(lp2161
I0
ag1
(g28
g3
Ntp2162
Rp2163
(lp2164
I0
aI0
abaS'shadowhandnew'
p2165
abag1
(g33
g3
Ntp2166
Rp2167
(lp2168
F0.960429138778732
aF-0.1920858277557464
aF0.2016901191435337
abababag1
(g2
g3
Ntp2169
Rp2170
(lp2171
I0
ag1
(g7
g3
Ntp2172
Rp2173
(lp2174
g1
(g11
g3
Ntp2175
Rp2176
(lp2177
F0.08869608430948926
aF0.04707572528707425
aF0.10340735718944229
abag1
(g15
g3
Ntp2178
Rp2179
(lp2180
F-0.4056795123898795
aF0.3218745368960527
aF0.8412662709957085
aF0.15521590450091283
ababa(F0.3490658503988659
F1.5456766607883852
F1.5707963267948966
F1.5707963267948966
F-0.07358104171801824
F1.505000000000001
F0.4985000000000004
F0.4985000000000004
F-0.3490658503988659
F1.5707963267948966
F1.5707963267948966
F0.7374928443562042
F1.0471975511965976
F0.19500000000000003
F0.0
F0.5235987755982988
F1.5707963267948966
tp2181
aF-1.0
aF0.0
ag1
(g20
g3
Ntp2182
Rp2183
(lp2184
g1
(g24
g3
Ntp2185
Rp2186
(lp2187
I0
ag1
(g28
g3
Ntp2188
Rp2189
(lp2190
I0
aI0
abaS'shadowhandnew'
p2191
abag1
(g33
g3
Ntp2192
Rp2193
(lp2194
F0.960429138778732
aF-0.1920858277557464
aF0.2016901191435337
abababag1
(g2
g3
Ntp2195
Rp2196
(lp2197
I0
ag1
(g7
g3
Ntp2198
Rp2199
(lp2200
g1
(g11
g3
Ntp2201
Rp2202
(lp2203
F0.09947556073442695
aF0.031527525921437795
aF-0.07896107604536158
abag1
(g15
g3
Ntp2204
Rp2205
(lp2206
F0.4294064613696643
aF-0.07988044478122162
aF0.8987617278982643
aF0.03816493077242157
ababa(F-0.3490658503988659
F0.086875
F0.60707087611878
F0.4720980568951189
F-0.3490658503988659
F0.3493750000000001
F0.034937500000000024
F1.5707963267948966
F-0.3490658503988659
F0.16687500000000002
F1.5707963267948966
F1.5707963267948966
F1.0327038980645573
F1.2217304763960306
F0.0
F-0.47672377559829876
F0.284178476866369
tp2207
aF-1.0
aF0.2367223850440736
ag1
(g20
g3
Ntp2208
Rp2209
(lp2210
g1
(g24
g3
Ntp2211
Rp2212
(lp2213
I0
ag1
(g28
g3
Ntp2214
Rp2215
(lp2216
I0
aI0
abaS'shadowhandnew'
p2217
abag1
(g33
g3
Ntp2218
Rp2219
(lp2220
F0.960429138778732
aF-0.1920858277557464
aF0.2016901191435337
abababag1
(g2
g3
Ntp2221
Rp2222
(lp2223
I0
ag1
(g7
g3
Ntp2224
Rp2225
(lp2226
g1
(g11
g3
Ntp2227
Rp2228
(lp2229
F0.11326582763546403
aF0.01870911350761467
aF-0.07439573858908
abag1
(g15
g3
Ntp2230
Rp2231
(lp2232
F0.2865205296550326
aF0.13811704535982489
aF0.9471451601565729
aF-0.04178173595306478
ababa(F-0.3490658503988659
F0.05000000000000001
F1.5707963267948966
F0.4048540185313221
F-0.3490658503988659
F1.1766710390858464
F0.0022500000000000003
F0.0022500000000000003
F-0.3490658503988659
F1.5707963267948966
F0.31925000000000026
F1.5707963267948966
F1.0471975511965976
F1.2217304763960306
F0.0
F-0.4210987755982988
F0.1025
tp2233
aF-1.0
aF0.032645198234300114
ag1
(g20
g3
Ntp2234
Rp2235
(lp2236
g1
(g24
g3
Ntp2237
Rp2238
(lp2239
I0
ag1
(g28
g3
Ntp2240
Rp2241
(lp2242
I0
aI0
abaS'shadowhandnew'
p2243
abag1
(g33
g3
Ntp2244
Rp2245
(lp2246
F0.960429138778732
aF-0.1920858277557464
aF0.2016901191435337
abababag1
(g2
g3
Ntp2247
Rp2248
(lp2249
I0
ag1
(g7
g3
Ntp2250
Rp2251
(lp2252
g1
(g11
g3
Ntp2253
Rp2254
(lp2255
F0.1336758965653964
aF0.03151638336324291
aF-0.04445377596296123
abag1
(g15
g3
Ntp2256
Rp2257
(lp2258
F0.21360138730516512
aF-0.3017200173931871
aF0.9265534913310995
aF0.06955649608565687
ababa(F0.24915829961456315
F0.13499999999999998
F0.013500000000000005
F1.5707963267948966
F-0.3490658503988659
F0.3250000000000001
F0.4985000000000004
F0.7093318896837024
F-0.3490658503988659
F0.2700000000000001
F0.4985000000000004
F0.4985000000000004
F-0.024038416643507608
F0.03125
F0.0
F0.5235987755982988
F0.03125
tp2259
aF-1.0
aF0.05926570388987611
ag1
(g20
g3
Ntp2260
Rp2261
(lp2262
g1
(g24
g3
Ntp2263
Rp2264
(lp2265
I0
ag1
(g28
g3
Ntp2266
Rp2267
(lp2268
I0
aI0
abaS'shadowhandnew'
p2269
abag1
(g33
g3
Ntp2270
Rp2271
(lp2272
F0.960429138778732
aF-0.1920858277557464
aF0.2016901191435337
abababag1
(g2
g3
Ntp2273
Rp2274
(lp2275
I0
ag1
(g7
g3
Ntp2276
Rp2277
(lp2278
g1
(g11
g3
Ntp2279
Rp2280
(lp2281
F0.07694089001916775
aF0.03792357956348244
aF0.1072825939770271
abag1
(g15
g3
Ntp2282
Rp2283
(lp2284
F-0.48400524518256094
aF0.15850749915995704
aF0.8559089073778583
aF0.08963390885745352
ababa(F-0.3490658503988659
F1.5500000000000012
F0.4980000000000004
F1.5707963267948966
F-0.3490658503988659
F1.500000000000001
F1.5707963267948966
F1.5707963267948966
F-0.3490658503988659
F1.5707963267948966
F1.5707963267948966
F0.7354715154643658
F1.0471975511965976
F0.16
F0.0
F0.5235987755982988
F1.5707963267948966
tp2285
aF-1.0
aF0.0
ag1
(g20
g3
Ntp2286
Rp2287
(lp2288
g1
(g24
g3
Ntp2289
Rp2290
(lp2291
I0
ag1
(g28
g3
Ntp2292
Rp2293
(lp2294
I0
aI0
abaS'shadowhandnew'
p2295
abag1
(g33
g3
Ntp2296
Rp2297
(lp2298
F0.960429138778732
aF-0.1920858277557464
aF0.2016901191435337
abababag1
(g2
g3
Ntp2299
Rp2300
(lp2301
I0
ag1
(g7
g3
Ntp2302
Rp2303
(lp2304
g1
(g11
g3
Ntp2305
Rp2306
(lp2307
F0.09867560154640537
aF0.028954909045345957
aF-0.08198048756685868
abag1
(g15
g3
Ntp2308
Rp2309
(lp2310
F0.3918950542693427
aF0.004931741197407173
aF0.9199943103101623
aF-0.0021008010185939604
ababa(F-0.3490658503988659
F0.1575
F1.004503993328252
F0.015750000000000007
F-0.3490658503988659
F0.4175000000000002
F1.5707963267948966
F1.5707963267948966
F-0.3490658503988659
F0.7463485943957872
F0.06875000000000005
F1.5707963267948966
F1.0471975511965976
F1.2217304763960306
F0.0
F-0.4298487755982988
F0.09375
tp2311
aF-1.0
aF0.16035244934738635
ag1
(g20
g3
Ntp2312
Rp2313
(lp2314
g1
(g24
g3
Ntp2315
Rp2316
(lp2317
I0
ag1
(g28
g3
Ntp2318
Rp2319
(lp2320
I0
aI0
abaS'shadowhandnew'
p2321
abag1
(g33
g3
Ntp2322
Rp2323
(lp2324
F0.960429138778732
aF-0.1920858277557464
aF0.2016901191435337
abababag1
(g2
g3
Ntp2325
Rp2326
(lp2327
I0
ag1
(g7
g3
Ntp2328
Rp2329
(lp2330
g1
(g11
g3
Ntp2331
Rp2332
(lp2333
F0.1023332402370737
aF0.05743127366393666
aF0.09860363407466087
abag1
(g15
g3
Ntp2334
Rp2335
(lp2336
F-0.31374778431513667
aF0.38422502372320844
aF0.8568188250855807
aF0.14069456265686825
ababa(F-0.3490658503988659
F1.542500000000001
F0.4972500000000004
F0.7620325418540866
F-0.3490658503988659
F1.5017498892893997
F1.5707963267948966
F0.7773141348351968
F-0.3490658503988659
F1.5707963267948966
F0.43925000000000036
F0.43925000000000036
F0.07530244880340317
F1.2217304763960306
F0.0
F0.5235987755982988
F1.5707963267948966
tp2337
aF-1.0
aF0.0
ag1
(g20
g3
Ntp2338
Rp2339
(lp2340
g1
(g24
g3
Ntp2341
Rp2342
(lp2343
I0
ag1
(g28
g3
Ntp2344
Rp2345
(lp2346
I0
aI0
abaS'shadowhandnew'
p2347
abag1
(g33
g3
Ntp2348
Rp2349
(lp2350
F0.960429138778732
aF-0.1920858277557464
aF0.2016901191435337
abababag1
(g2
g3
Ntp2351
Rp2352
(lp2353
I0
ag1
(g7
g3
Ntp2354
Rp2355
(lp2356
g1
(g11
g3
Ntp2357
Rp2358
(lp2359
F0.12638321797193494
aF0.0295186033572146
aF0.07458423870606758
abag1
(g15
g3
Ntp2360
Rp2361
(lp2362
F-0.45296455593215723
aF-0.005326303082935271
aF0.8915085069068128
aF-0.002706229376422586
ababa(F-0.3490658503988659
F1.2847056924626359
F0.06600000000000004
F1.5707963267948966
F-0.3490658503988659
F1.0025000000000006
F1.5707963267948966
F0.10025000000000008
F-0.3490658503988659
F1.5707963267948966
F0.29525000000000023
F1.5707963267948966
F1.0471975511965976
F0.19500000000000003
F0.0
F0.5235987755982988
F1.5707963267948966
tp2363
aF-1.0
aF0.0011733096681681356
ag1
(g20
g3
Ntp2364
Rp2365
(lp2366
g1
(g24
g3
Ntp2367
Rp2368
(lp2369
I0
ag1
(g28
g3
Ntp2370
Rp2371
(lp2372
I0
aI0
abaS'shadowhandnew'
p2373
abag1
(g33
g3
Ntp2374
Rp2375
(lp2376
F0.960429138778732
aF-0.1920858277557464
aF0.2016901191435337
abababag1
(g2
g3
Ntp2377
Rp2378
(lp2379
I0
ag1
(g7
g3
Ntp2380
Rp2381
(lp2382
g1
(g11
g3
Ntp2383
Rp2384
(lp2385
F0.09971598679439751
aF0.047236863398151994
aF0.10029655389191754
abag1
(g15
g3
Ntp2386
Rp2387
(lp2388
F-0.3419151503738271
aF0.25755770716936016
aF0.8984153219378962
aF0.09802023632766732
ababa(F-0.3490658503988659
F1.542500000000001
F0.4972500000000004
F0.7505785518940484
F-0.3490658503988659
F1.5016864686262694
F1.5707963267948966
F0.7746864410703941
F-0.3490658503988659
F1.5707963267948966
F0.43925000000000036
F0.43925000000000036
F0.07530244880340317
F1.2217304763960306
F0.0
F0.5235987755982988
F1.5707963267948966
tp2389
aF-1.0
aF0.0
ag1
(g20
g3
Ntp2390
Rp2391
(lp2392
g1
(g24
g3
Ntp2393
Rp2394
(lp2395
I0
ag1
(g28
g3
Ntp2396
Rp2397
(lp2398
I0
aI0
abaS'shadowhandnew'
p2399
abag1
(g33
g3
Ntp2400
Rp2401
(lp2402
F0.960429138778732
aF-0.1920858277557464
aF0.2016901191435337
abababag1
(g2
g3
Ntp2403
Rp2404
(lp2405
I0
ag1
(g7
g3
Ntp2406
Rp2407
(lp2408
g1
(g11
g3
Ntp2409
Rp2410
(lp2411
F0.14262197664847862
aF0.008382706603956763
aF-0.03618923391670366
abag1
(g15
g3
Ntp2412
Rp2413
(lp2414
F0.06955868879994068
aF0.26140178685131904
aF0.9625351130273078
aF-0.018890495834642314
ababa(F-0.3490658503988659
F1.1784945930164514
F0.008125
F0.38203642169467444
F-0.3490658503988659
F1.422500000000001
F0.14225000000000013
F0.14225000000000013
F-0.3490658503988659
F1.5707963267948966
F0.13936145990117765
F0.005
F0.8128089777647609
F1.2217304763960306
F0.0
F-0.47359877559829877
F0.05
tp2415
aF-1.0
aF0.00046880795715563374
ag1
(g20
g3
Ntp2416
Rp2417
(lp2418
g1
(g24
g3
Ntp2419
Rp2420
(lp2421
I0
ag1
(g28
g3
Ntp2422
Rp2423
(lp2424
I0
aI0
abaS'shadowhandnew'
p2425
abag1
(g33
g3
Ntp2426
Rp2427
(lp2428
F0.960429138778732
aF-0.1920858277557464
aF0.2016901191435337
abababag1
(g2
g3
Ntp2429
Rp2430
(lp2431
I0
ag1
(g7
g3
Ntp2432
Rp2433
(lp2434
g1
(g11
g3
Ntp2435
Rp2436
(lp2437
F0.14131172117408125
aF0.034654832646802435
aF0.06469542311163753
abag1
(g15
g3
Ntp2438
Rp2439
(lp2440
F-0.4605001415433375
aF-0.0561445365849316
aF0.8854008774735319
aF-0.029200972917512145
ababa(F-0.3490658503988659
F0.27638973409135004
F1.5707963267948966
F0.4980000000000004
F-0.3490658503988659
F1.2000000000000008
F0.4980000000000004
F1.5707963267948966
F-0.3490658503988659
F1.5707963267948966
F0.08800000000000006
F1.3081621417291904
F1.0471975511965976
F1.2217304763960306
F0.0
F0.5235987755982988
F0.2700000000000001
tp2441
aF-1.0
aF0.0
ag1
(g20
g3
Ntp2442
Rp2443
(lp2444
g1
(g24
g3
Ntp2445
Rp2446
(lp2447
I0
ag1
(g28
g3
Ntp2448
Rp2449
(lp2450
I0
aI0
abaS'shadowhandnew'
p2451
abag1
(g33
g3
Ntp2452
Rp2453
(lp2454
F0.960429138778732
aF-0.1920858277557464
aF0.2016901191435337
abababag1
(g2
g3
Ntp2455
Rp2456
(lp2457
I0
ag1
(g7
g3
Ntp2458
Rp2459
(lp2460
g1
(g11
g3
Ntp2461
Rp2462
(lp2463
F0.1452699380963226
aF0.06480976637409376
aF0.054528599689274884
abag1
(g15
g3
Ntp2464
Rp2465
(lp2466
F-0.36723604463368836
aF-0.37701553986162123
aF0.83392577873797
aF-0.1660264008551777
ababa(F-0.3490658503988659
F1.2237500000000008
F0.1223750000000001
F0.1223750000000001
F-0.3490658503988659
F1.192706300895931
F0.34680977387751166
F0.3836988975322217
F-0.06679964314967525
F0.9975000000000007
F0.09975000000000007
F1.5707963267948966
F-0.4118732785027649
F1.2217304763960306
F0.0
F0.5235987755982988
F0.0225
tp2467
aF-1.0
aF0.07061553791357834
ag1
(g20
g3
Ntp2468
Rp2469
(lp2470
g1
(g24
g3
Ntp2471
Rp2472
(lp2473
I0
ag1
(g28
g3
Ntp2474
Rp2475
(lp2476
I0
aI0
abaS'shadowhandnew'
p2477
abag1
(g33
g3
Ntp2478
Rp2479
(lp2480
F0.960429138778732
aF-0.1920858277557464
aF0.2016901191435337
abababag1
(g2
g3
Ntp2481
Rp2482
(lp2483
I0
ag1
(g7
g3
Ntp2484
Rp2485
(lp2486
g1
(g11
g3
Ntp2487
Rp2488
(lp2489
F0.09764116831280911
aF0.004507276920987415
aF-0.08281432226181841
abag1
(g15
g3
Ntp2490
Rp2491
(lp2492
F0.3739605531553884
aF0.2885583469795604
aF0.8726958773233681
aF-0.12365068044671904
ababa(F-0.3490658503988659
F0.5700000000000003
F0.057000000000000044
F1.5707963267948966
F-0.3490658503988659
F1.300000000000001
F0.1300000000000001
F0.4980000000000004
F-0.3490658503988659
F1.5707963267948966
F0.7905054781727474
F0.4980000000000004
F1.0471975511965976
F1.2217304763960306
F0.0
F-0.14359877559829848
F0.38000000000000017
tp2493
aF-1.0
aF0.0
ag1
(g20
g3
Ntp2494
Rp2495
(lp2496
g1
(g24
g3
Ntp2497
Rp2498
(lp2499
I0
ag1
(g28
g3
Ntp2500
Rp2501
(lp2502
I0
aI0
abaS'shadowhandnew'
p2503
abag1
(g33
g3
Ntp2504
Rp2505
(lp2506
F0.960429138778732
aF-0.1920858277557464
aF0.2016901191435337
abababag1
(g2
g3
Ntp2507
Rp2508
(lp2509
I0
ag1
(g7
g3
Ntp2510
Rp2511
(lp2512
g1
(g11
g3
Ntp2513
Rp2514
(lp2515
F0.07212070033052921
aF0.055392741622226196
aF0.11550390005482743
abag1
(g15
g3
Ntp2516
Rp2517
(lp2518
F-0.42432513215035406
aF0.25444518976523456
aF0.8599076988222722
aF0.1255570672527146
ababa(F0.3490658503988659
F1.5449010247504764
F1.5707963267948966
F1.5707963267948966
F-0.3490658503988659
F1.495000000000001
F0.4985000000000004
F0.4985000000000004
F-0.3490658503988659
F1.5707963267948966
F1.5707963267948966
F1.041100143991861
F1.0471975511965976
F0.19500000000000003
F0.0
F0.5235987755982988
F1.5707963267948966
tp2519
aF-1.0
aF0.0
ag1
(g20
g3
Ntp2520
Rp2521
(lp2522
g1
(g24
g3
Ntp2523
Rp2524
(lp2525
I0
ag1
(g28
g3
Ntp2526
Rp2527
(lp2528
I0
aI0
abaS'shadowhandnew'
p2529
abag1
(g33
g3
Ntp2530
Rp2531
(lp2532
F0.960429138778732
aF-0.1920858277557464
aF0.2016901191435337
abababag1
(g2
g3
Ntp2533
Rp2534
(lp2535
I0
ag1
(g7
g3
Ntp2536
Rp2537
(lp2538
g1
(g11
g3
Ntp2539
Rp2540
(lp2541
F0.15477553951529097
aF0.026284622392518157
aF-0.0009293687519175134
abag1
(g15
g3
Ntp2542
Rp2543
(lp2544
F-0.14147205110391672
aF0.03709555353419749
aF0.9892327504286932
aF0.00530510543958821
ababa(F-0.3490658503988659
F1.1813387614573263
F0.03275000000000002
F0.6417824413949618
F-0.3490658503988659
F1.423750000000001
F0.1423750000000001
F0.1423750000000001
F-0.3490658503988659
F1.5707963267948966
F1.275122190384786
F1.5707963267948966
F-0.13447699882882266
F1.2217304763960306
F0.0
F0.5235987755982988
F0.17625000000000002
tp2545
aF-1.0
aF0.0263895835735886
ag1
(g20
g3
Ntp2546
Rp2547
(lp2548
g1
(g24
g3
Ntp2549
Rp2550
(lp2551
I0
ag1
(g28
g3
Ntp2552
Rp2553
(lp2554
I0
aI0
abaS'shadowhandnew'
p2555
abag1
(g33
g3
Ntp2556
Rp2557
(lp2558
F0.960429138778732
aF-0.1920858277557464
aF0.2016901191435337
abababag1
(g2
g3
Ntp2559
Rp2560
(lp2561
I0
ag1
(g7
g3
Ntp2562
Rp2563
(lp2564
g1
(g11
g3
Ntp2565
Rp2566
(lp2567
F0.06500690067909404
aF0.04567061535884713
aF0.11789285256855711
abag1
(g15
g3
Ntp2568
Rp2569
(lp2570
F-0.45670044568028345
aF0.1540088433140018
aF0.8724717217652821
aF0.08061683333174183
ababa(F-0.3490658503988659
F1.545000000000001
F0.4985000000000004
F1.5707963267948966
F-0.3490658503988659
F1.495000000000001
F0.4985000000000004
F1.5707963267948966
F-0.3490658503988659
F1.5707963267948966
F1.5707963267948966
F0.9823909821437206
F1.0471975511965976
F0.19500000000000003
F0.0
F0.5235987755982988
F1.5707963267948966
tp2571
aF-1.0
aF0.0
ag1
(g20
g3
Ntp2572
Rp2573
(lp2574
g1
(g24
g3
Ntp2575
Rp2576
(lp2577
I0
ag1
(g28
g3
Ntp2578
Rp2579
(lp2580
I0
aI0
abaS'shadowhandnew'
p2581
abag1
(g33
g3
Ntp2582
Rp2583
(lp2584
F0.960429138778732
aF-0.1920858277557464
aF0.2016901191435337
abababag1
(g2
g3
Ntp2585
Rp2586
(lp2587
I0
ag1
(g7
g3
Ntp2588
Rp2589
(lp2590
g1
(g11
g3
Ntp2591
Rp2592
(lp2593
F0.10313469685744282
aF0.05378685792981537
aF0.10691535387432143
abag1
(g15
g3
Ntp2594
Rp2595
(lp2596
F-0.2751657168715571
aF0.22322970586128701
aF0.9328001208633039
aF0.06585029382661214
ababa(F0.3490658503988659
F1.5502867935580067
F1.5707963267948966
F0.8539234233685614
F-0.3490658503988659
F1.495000000000001
F0.4985000000000004
F1.5707963267948966
F-0.3490658503988659
F1.5707963267948966
F1.5707963267948966
F0.4985000000000004
F1.0471975511965976
F0.19500000000000003
F0.0
F0.5235987755982988
F1.5707963267948966
tp2597
aF-1.0
aF0.0
ag1
(g20
g3
Ntp2598
Rp2599
(lp2600
g1
(g24
g3
Ntp2601
Rp2602
(lp2603
I0
ag1
(g28
g3
Ntp2604
Rp2605
(lp2606
I0
aI0
abaS'shadowhandnew'
p2607
abag1
(g33
g3
Ntp2608
Rp2609
(lp2610
F0.960429138778732
aF-0.1920858277557464
aF0.2016901191435337
abababag1
(g2
g3
Ntp2611
Rp2612
(lp2613
I0
ag1
(g7
g3
Ntp2614
Rp2615
(lp2616
g1
(g11
g3
Ntp2617
Rp2618
(lp2619
F0.0962033024597941
aF0.040625983701093715
aF0.09149318127460293
abag1
(g15
g3
Ntp2620
Rp2621
(lp2622
F-0.2749907972784083
aF0.3268784432878469
aF0.8986237901025482
aF0.10002913869283626
ababa(F0.10106590946810601
F1.5473149143424865
F1.5707963267948966
F1.5707963267948966
F-0.3490658503988659
F0.9375000000000007
F1.5707963267948966
F0.09375000000000007
F-0.3490658503988659
F1.5707963267948966
F1.5707963267948966
F0.30024084315291083
F0.21534383669008633
F1.2217304763960306
F0.0
F0.3514012244017017
F1.5707963267948966
tp2623
aF-1.0
aF0.0
ag1
(g20
g3
Ntp2624
Rp2625
(lp2626
g1
(g24
g3
Ntp2627
Rp2628
(lp2629
I0
ag1
(g28
g3
Ntp2630
Rp2631
(lp2632
I0
aI0
abaS'shadowhandnew'
p2633
abag1
(g33
g3
Ntp2634
Rp2635
(lp2636
F0.960429138778732
aF-0.1920858277557464
aF0.2016901191435337
abababag1
(g2
g3
Ntp2637
Rp2638
(lp2639
I0
ag1
(g7
g3
Ntp2640
Rp2641
(lp2642
g1
(g11
g3
Ntp2643
Rp2644
(lp2645
F0.08273517228894872
aF0.04664540891257438
aF0.0989461863804381
abag1
(g15
g3
Ntp2646
Rp2647
(lp2648
F-0.3339748238886912
aF0.43676029949133355
aF0.8159296169410648
aF0.17877392985322435
ababa(F-0.3490658503988659
F1.5488032541243464
F1.5707963267948966
F0.4980000000000004
F-0.3490658503988659
F1.4983235347729373
F0.4980000000000004
F0.4980000000000004
F-0.3490658503988659
F1.5707963267948966
F1.5707963267948966
F0.6089414591882159
F-0.317197551196597
F0.7300000000000004
F0.0
F0.5235987755982988
F1.5707963267948966
tp2649
aF-1.0
aF0.0
ag1
(g20
g3
Ntp2650
Rp2651
(lp2652
g1
(g24
g3
Ntp2653
Rp2654
(lp2655
I0
ag1
(g28
g3
Ntp2656
Rp2657
(lp2658
I0
aI0
abaS'shadowhandnew'
p2659
abag1
(g33
g3
Ntp2660
Rp2661
(lp2662
F0.960429138778732
aF-0.1920858277557464
aF0.2016901191435337
abababag1
(g2
g3
Ntp2663
Rp2664
(lp2665
I0
ag1
(g7
g3
Ntp2666
Rp2667
(lp2668
g1
(g11
g3
Ntp2669
Rp2670
(lp2671
F0.10581195642293395
aF0.04491090791284082
aF0.08790732644598163
abag1
(g15
g3
Ntp2672
Rp2673
(lp2674
F-0.19797635548693687
aF0.2978499889589982
aF0.9317109109503968
aF0.06328921836471464
ababa(F-0.3490658503988659
F1.5498829698938157
F0.4972500000000004
F1.5707963267948966
F-0.3490658503988659
F1.502500000000001
F0.4972500000000004
F0.4972500000000004
F-0.3490658503988659
F1.5707963267948966
F1.5707963267948966
F0.7166886132974573
F0.16636672129060728
F0.9458610171395935
F0.0
F0.5235987755982988
F0.4425000000000002
tp2675
aF-1.0
aF0.0
ag1
(g20
g3
Ntp2676
Rp2677
(lp2678
g1
(g24
g3
Ntp2679
Rp2680
(lp2681
I0
ag1
(g28
g3
Ntp2682
Rp2683
(lp2684
I0
aI0
abaS'shadowhandnew'
p2685
abag1
(g33
g3
Ntp2686
Rp2687
(lp2688
F0.960429138778732
aF-0.1920858277557464
aF0.2016901191435337
abababag1
(g2
g3
Ntp2689
Rp2690
(lp2691
I0
ag1
(g7
g3
Ntp2692
Rp2693
(lp2694
g1
(g11
g3
Ntp2695
Rp2696
(lp2697
F0.07328631540180691
aF0.0008776468218465325
aF-0.08841818070966673
abag1
(g15
g3
Ntp2698
Rp2699
(lp2700
F0.40511321969399505
aF0.20684770050086082
aF0.885518175093241
aF-0.09463017281082853
ababa(F-0.112651549130449
F0.165
F1.2693933345692137
F0.0214840893891392
F-0.3490658503988659
F1.1625000000000005
F0.11625000000000009
F0.19805472050908718
F0.18256690956319815
F1.5707963267948966
F0.4992500000000004
F0.4992500000000004
F1.0471975511965976
F1.2217304763960306
F0.0
F-0.34859877559829866
F0.17500000000000002
tp2701
aF-1.0
aF0.047607962391728174
ag1
(g20
g3
Ntp2702
Rp2703
(lp2704
g1
(g24
g3
Ntp2705
Rp2706
(lp2707
I0
ag1
(g28
g3
Ntp2708
Rp2709
(lp2710
I0
aI0
abaS'shadowhandnew'
p2711
abag1
(g33
g3
Ntp2712
Rp2713
(lp2714
F0.960429138778732
aF-0.1920858277557464
aF0.2016901191435337
abababag1
(g2
g3
Ntp2715
Rp2716
(lp2717
I0
ag1
(g7
g3
Ntp2718
Rp2719
(lp2720
g1
(g11
g3
Ntp2721
Rp2722
(lp2723
F0.09587032385245918
aF0.03741765245779807
aF0.09796464103910658
abag1
(g15
g3
Ntp2724
Rp2725
(lp2726
F-0.24964069883927867
aF0.1972856266071608
aF0.9465996505575222
aF0.0520288821870464
ababa(F-0.3490658503988659
F1.54693049170615
F0.4972500000000004
F1.5707963267948966
F-0.3490658503988659
F1.502500000000001
F0.44525000000000037
F0.7788065224216771
F-0.3490658503988659
F1.5707963267948966
F1.5707963267948966
F0.8346655925669487
F0.22530244880340322
F1.2217304763960306
F0.0
F0.5235987755982988
F1.2725000000000009
tp2727
aF-1.0
aF0.0
ag1
(g20
g3
Ntp2728
Rp2729
(lp2730
g1
(g24
g3
Ntp2731
Rp2732
(lp2733
I0
ag1
(g28
g3
Ntp2734
Rp2735
(lp2736
I0
aI0
abaS'shadowhandnew'
p2737
abag1
(g33
g3
Ntp2738
Rp2739
(lp2740
F0.960429138778732
aF-0.1920858277557464
aF0.2016901191435337
abababag1
(g2
g3
Ntp2741
Rp2742
(lp2743
I0
ag1
(g7
g3
Ntp2744
Rp2745
(lp2746
g1
(g11
g3
Ntp2747
Rp2748
(lp2749
F0.11979940404246585
aF0.056141345524524745
aF0.07623636293886847
abag1
(g15
g3
Ntp2750
Rp2751
(lp2752
F-0.0961059540945155
aF0.35836010500939003
aF0.9278814471172627
aF0.037117392430183714
ababa(F-0.01657325696398702
F1.5487500000000012
F1.5707963267948966
F1.5707963267948966
F-0.3490658503988659
F1.4987500000000011
F1.1514398793157268
F0.4158750000000003
F-0.3490658503988659
F1.5707963267948966
F1.5707963267948966
F0.8481033538922234
F1.0471975511965976
F0.4687500000000003
F0.0
F-0.0548487755982985
F0.7687500000000005
tp2753
aF-1.0
aF0.0
ag1
(g20
g3
Ntp2754
Rp2755
(lp2756
g1
(g24
g3
Ntp2757
Rp2758
(lp2759
I0
ag1
(g28
g3
Ntp2760
Rp2761
(lp2762
I0
aI0
abaS'shadowhandnew'
p2763
abag1
(g33
g3
Ntp2764
Rp2765
(lp2766
F0.960429138778732
aF-0.1920858277557464
aF0.2016901191435337
abababag1
(g2
g3
Ntp2767
Rp2768
(lp2769
I0
ag1
(g7
g3
Ntp2770
Rp2771
(lp2772
g1
(g11
g3
Ntp2773
Rp2774
(lp2775
F0.10880117072459444
aF0.06083675211632366
aF0.08476903083579479
abag1
(g15
g3
Ntp2776
Rp2777
(lp2778
F-0.1710133241130061
aF0.43086462380123547
aF0.8821183660590592
aF0.083530277107977
ababa(F0.15288781038076799
F1.1887500000000009
F1.5707963267948966
F1.5707963267948966
F-0.29435869058248093
F1.1887500000000009
F1.5707963267948966
F0.11887500000000009
F-0.3490658503988659
F1.5707963267948966
F1.5707963267948966
F0.746360269236846
F1.0471975511965976
F0.4687500000000003
F0.0
F-0.0548487755982985
F0.7687500000000005
tp2779
aF-1.0
aF0.0
ag1
(g20
g3
Ntp2780
Rp2781
(lp2782
g1
(g24
g3
Ntp2783
Rp2784
(lp2785
I0
ag1
(g28
g3
Ntp2786
Rp2787
(lp2788
I0
aI0
abaS'shadowhandnew'
p2789
abag1
(g33
g3
Ntp2790
Rp2791
(lp2792
F0.960429138778732
aF-0.1920858277557464
aF0.2016901191435337
abababag1
(g2
g3
Ntp2793
Rp2794
(lp2795
I0
ag1
(g7
g3
Ntp2796
Rp2797
(lp2798
g1
(g11
g3
Ntp2799
Rp2800
(lp2801
F0.1294108983034996
aF0.017052907007200017
aF0.03217530225057506
abag1
(g15
g3
Ntp2802
Rp2803
(lp2804
F-0.16723735138888624
aF0.080199424527543
aF0.9825545201376444
aF0.01365047848848149
ababa(F-0.3490658503988659
F0.6350000000000005
F1.5707963267948966
F0.1322857093225966
F-0.3490658503988659
F1.4510341258907509
F0.008125
F1.5707963267948966
F-0.3490658503988659
F1.5707963267948966
F0.4990000000000004
F0.4990000000000004
F-0.347197551196597
F0.7000000000000005
F0.0
F0.5235987755982988
F1.5707963267948966
tp2805
aF-1.0
aF0.0
ag1
(g20
g3
Ntp2806
Rp2807
(lp2808
g1
(g24
g3
Ntp2809
Rp2810
(lp2811
I0
ag1
(g28
g3
Ntp2812
Rp2813
(lp2814
I0
aI0
abaS'shadowhandnew'
p2815
abag1
(g33
g3
Ntp2816
Rp2817
(lp2818
F0.960429138778732
aF-0.1920858277557464
aF0.2016901191435337
abababag1
(g2
g3
Ntp2819
Rp2820
(lp2821
I0
ag1
(g7
g3
Ntp2822
Rp2823
(lp2824
g1
(g11
g3
Ntp2825
Rp2826
(lp2827
F0.12886807661941688
aF0.017504746169518554
aF0.048932769993298424
abag1
(g15
g3
Ntp2828
Rp2829
(lp2830
F-0.3504568362625816
aF0.01928261132907782
aF0.9363525515005264
aF0.007217071123948155
ababa(F0.14985212925018532
F1.2062500000000007
F0.1206250000000001
F1.5707963267948966
F-0.3490658503988659
F1.2825869986358518
F1.5707963267948966
F1.5707963267948966
F-0.3490658503988659
F1.5707963267948966
F0.1406250000000001
F1.4790395602399835
F1.0471975511965976
F0.4687500000000003
F0.0
F-0.0548487755982985
F0.7710847788426449
tp2831
aF-1.0
aF0.027685009832486434
ag1
(g20
g3
Ntp2832
Rp2833
(lp2834
g1
(g24
g3
Ntp2835
Rp2836
(lp2837
I0
ag1
(g28
g3
Ntp2838
Rp2839
(lp2840
I0
aI0
abaS'shadowhandnew'
p2841
abag1
(g33
g3
Ntp2842
Rp2843
(lp2844
F0.960429138778732
aF-0.1920858277557464
aF0.2016901191435337
abababag1
(g2
g3
Ntp2845
Rp2846
(lp2847
I0
ag1
(g7
g3
Ntp2848
Rp2849
(lp2850
g1
(g11
g3
Ntp2851
Rp2852
(lp2853
F0.1315160653189365
aF0.017226106484805985
aF-0.0013233135655248275
abag1
(g15
g3
Ntp2854
Rp2855
(lp2856
F0.03277063304118357
aF-0.2597387662016884
aF0.9650824164910916
aF0.008819768807635171
ababa(F-0.3490658503988659
F0.4500000000000003
F0.21629952110506648
F1.5707963267948966
F-0.3490658503988659
F0.26250000000000007
F1.5707963267948966
F0.026250000000000016
F-0.3490658503988659
F0.46250000000000024
F1.5707963267948966
F0.046250000000000034
F0.04205057470147336
F0.005
F0.0
F-0.5185987755982988
F1.5707963267948966
tp2857
aF-1.0
aF0.0
ag1
(g20
g3
Ntp2858
Rp2859
(lp2860
g1
(g24
g3
Ntp2861
Rp2862
(lp2863
I0
ag1
(g28
g3
Ntp2864
Rp2865
(lp2866
I0
aI0
abaS'shadowhandnew'
p2867
abag1
(g33
g3
Ntp2868
Rp2869
(lp2870
F0.960429138778732
aF-0.1920858277557464
aF0.2016901191435337
abababag1
(g2
g3
Ntp2871
Rp2872
(lp2873
I0
ag1
(g7
g3
Ntp2874
Rp2875
(lp2876
g1
(g11
g3
Ntp2877
Rp2878
(lp2879
F0.10191755654263233
aF0.02655521526921679
aF-0.07634320450168448
abag1
(g15
g3
Ntp2880
Rp2881
(lp2882
F0.22528638386064595
aF-0.08579596351642996
aF0.9703031909372053
aF0.019920229626151257
ababa(F-0.3490658503988659
F0.28562500000000013
F1.5707963267948966
F0.02856250000000002
F-0.3490658503988659
F1.1168750000000007
F0.11168750000000009
F0.11168750000000009
F-0.3490658503988659
F1.5707963267948966
F1.5707963267948966
F1.5707963267948966
F0.3457516725944071
F1.2217304763960306
F0.0
F-0.12548579299162796
F0.068125
tp2883
aF-1.0
aF0.11057111566323564
ag1
(g20
g3
Ntp2884
Rp2885
(lp2886
g1
(g24
g3
Ntp2887
Rp2888
(lp2889
I0
ag1
(g28
g3
Ntp2890
Rp2891
(lp2892
I0
aI0
abaS'shadowhandnew'
p2893
abag1
(g33
g3
Ntp2894
Rp2895
(lp2896
F0.960429138778732
aF-0.1920858277557464
aF0.2016901191435337
abababag1
(g2
g3
Ntp2897
Rp2898
(lp2899
I0
ag1
(g7
g3
Ntp2900
Rp2901
(lp2902
g1
(g11
g3
Ntp2903
Rp2904
(lp2905
F0.11938823728994946
aF-0.0040059661583653075
aF-0.04916395785819168
abag1
(g15
g3
Ntp2906
Rp2907
(lp2908
F0.13619226772443324
aF0.2758157580488397
aF0.9506924412797525
aF-0.039512224912863735
ababa(F-0.3490658503988659
F0.37500000000000017
F1.5707963267948966
F0.037500000000000026
F-0.3490658503988659
F1.0850000000000006
F0.9999320059071094
F0.44786870112957755
F-0.3490658503988659
F1.0850000000000006
F1.5707963267948966
F0.7290909797371082
F1.0471975511965976
F1.2217304763960306
F0.0
F-0.14859877559829848
F0.37500000000000017
tp2909
aF-1.0
aF0.0
ag1
(g20
g3
Ntp2910
Rp2911
(lp2912
g1
(g24
g3
Ntp2913
Rp2914
(lp2915
I0
ag1
(g28
g3
Ntp2916
Rp2917
(lp2918
I0
aI0
abaS'shadowhandnew'
p2919
abag1
(g33
g3
Ntp2920
Rp2921
(lp2922
F0.960429138778732
aF-0.1920858277557464
aF0.2016901191435337
abababag1
(g2
g3
Ntp2923
Rp2924
(lp2925
I0
ag1
(g7
g3
Ntp2926
Rp2927
(lp2928
g1
(g11
g3
Ntp2929
Rp2930
(lp2931
F0.13796509757197764
aF0.009101551842082228
aF-0.008263244823848432
abag1
(g15
g3
Ntp2932
Rp2933
(lp2934
F-0.10828591709889916
aF0.11546971104535268
aF0.9873097373523464
aF0.012664458867003583
ababa(F-0.3490658503988659
F0.5781250000000003
F1.5707963267948966
F0.057812500000000044
F-0.3490658503988659
F1.4041806559739363
F1.5707963267948966
F1.5707963267948966
F-0.3490658503988659
F1.5707963267948966
F0.2248125000000002
F0.2248125000000002
F0.29018288116513136
F1.2217304763960306
F0.0
F-0.39422377559829874
F0.129375
tp2935
aF-1.0
aF0.11714212512186728
ag1
(g20
g3
Ntp2936
Rp2937
(lp2938
g1
(g24
g3
Ntp2939
Rp2940
(lp2941
I0
ag1
(g28
g3
Ntp2942
Rp2943
(lp2944
I0
aI0
abaS'shadowhandnew'
p2945
abag1
(g33
g3
Ntp2946
Rp2947
(lp2948
F0.960429138778732
aF-0.1920858277557464
aF0.2016901191435337
abababag1
(g2
g3
Ntp2949
Rp2950
(lp2951
I0
ag1
(g7
g3
Ntp2952
Rp2953
(lp2954
g1
(g11
g3
Ntp2955
Rp2956
(lp2957
F0.13802459341263068
aF0.036992443220309916
aF-0.021841004173943475
abag1
(g15
g3
Ntp2958
Rp2959
(lp2960
F-0.07823860775813661
aF-0.20055836141192643
aF0.9764204054231093
aF-0.01607033905064981
ababa(F-0.3490658503988659
F1.1269105616454063
F0.004750000000000001
F0.5538038716413037
F-0.3490658503988659
F0.693942669130821
F1.5707963267948966
F0.0025
F-0.3490658503988659
F0.7825000000000005
F1.5707963267948966
F0.07825000000000006
F-0.41959763689193197
F1.2217304763960306
F0.0
F0.5235987755982988
F0.06875
tp2961
aF-1.0
aF0.21243526259455295
ag1
(g20
g3
Ntp2962
Rp2963
(lp2964
g1
(g24
g3
Ntp2965
Rp2966
(lp2967
I0
ag1
(g28
g3
Ntp2968
Rp2969
(lp2970
I0
aI0
abaS'shadowhandnew'
p2971
abag1
(g33
g3
Ntp2972
Rp2973
(lp2974
F0.960429138778732
aF-0.1920858277557464
aF0.2016901191435337
abababag1
(g2
g3
Ntp2975
Rp2976
(lp2977
I0
ag1
(g7
g3
Ntp2978
Rp2979
(lp2980
g1
(g11
g3
Ntp2981
Rp2982
(lp2983
F0.060494103520183244
aF0.0187349485916429
aF0.10701603291194774
abag1
(g15
g3
Ntp2984
Rp2985
(lp2986
F-0.4993371472890197
aF-0.0023852388646401555
aF0.8664033899939142
aF-0.0013746926478215668
ababa(F-0.3490658503988659
F1.545000000000001
F1.5707963267948966
F0.26723666418761866
F-0.3490658503988659
F1.495000000000001
F0.4975000000000004
F0.4975000000000004
F-0.3490658503988659
F1.5707963267948966
F1.493066095674173
F1.3718999863552683
F1.0471975511965976
F0.19500000000000003
F0.0
F0.5235987755982988
F1.5707963267948966
tp2987
aF-1.0
aF0.0
ag1
(g20
g3
Ntp2988
Rp2989
(lp2990
g1
(g24
g3
Ntp2991
Rp2992
(lp2993
I0
ag1
(g28
g3
Ntp2994
Rp2995
(lp2996
I0
aI0
abaS'shadowhandnew'
p2997
abag1
(g33
g3
Ntp2998
Rp2999
(lp3000
F0.960429138778732
aF-0.1920858277557464
aF0.2016901191435337
abababag1
(g2
g3
Ntp3001
Rp3002
(lp3003
I0
ag1
(g7
g3
Ntp3004
Rp3005
(lp3006
g1
(g11
g3
Ntp3007
Rp3008
(lp3009
F0.0694924845851612
aF0.020582548201529466
aF0.11324306158588689
abag1
(g15
g3
Ntp3010
Rp3011
(lp3012
F-0.37328306571481257
aF0.01600699047204606
aF0.9275570237438502
aF0.006441801768861615
ababa(F-0.3490658503988659
F1.545000000000001
F1.5707963267948966
F1.5707963267948966
F-0.3490658503988659
F1.495000000000001
F1.5707963267948966
F1.5707963267948966
F-0.3490658503988659
F1.5707963267948966
F1.5707963267948966
F1.0931446899812804
F1.0471975511965976
F0.19500000000000003
F0.0
F0.5235987755982988
F1.5707963267948966
tp3013
aF-1.0
aF0.0
ag1
(g20
g3
Ntp3014
Rp3015
(lp3016
g1
(g24
g3
Ntp3017
Rp3018
(lp3019
I0
ag1
(g28
g3
Ntp3020
Rp3021
(lp3022
I0
aI0
abaS'shadowhandnew'
p3023
abag1
(g33
g3
Ntp3024
Rp3025
(lp3026
F0.960429138778732
aF-0.1920858277557464
aF0.2016901191435337
abababag1
(g2
g3
Ntp3027
Rp3028
(lp3029
I0
ag1
(g7
g3
Ntp3030
Rp3031
(lp3032
g1
(g11
g3
Ntp3033
Rp3034
(lp3035
F0.1409130330400356
aF0.03641933054579975
aF0.04258561948762609
abag1
(g15
g3
Ntp3036
Rp3037
(lp3038
F-0.16332490189853388
aF0.028862183818486094
aF0.9861384794760469
aF0.004780173818221028
ababa(F-0.3490658503988659
F0.6375000000000004
F1.5707963267948966
F0.06375000000000004
F-0.3490658503988659
F1.4929241923471703
F0.40775000000000033
F1.0865134504877216
F-0.3490658503988659
F1.5707963267948966
F0.43311460229812054
F1.5707963267948966
F-0.28969755119659696
F1.2217304763960306
F0.0
F0.5235987755982988
F1.5707963267948966
tp3039
aF-1.0
aF0.010755686935847712
ag1
(g20
g3
Ntp3040
Rp3041
(lp3042
g1
(g24
g3
Ntp3043
Rp3044
(lp3045
I0
ag1
(g28
g3
Ntp3046
Rp3047
(lp3048
I0
aI0
abaS'shadowhandnew'
p3049
abag1
(g33
g3
Ntp3050
Rp3051
(lp3052
F0.960429138778732
aF-0.1920858277557464
aF0.2016901191435337
abababag1
(g2
g3
Ntp3053
Rp3054
(lp3055
I0
ag1
(g7
g3
Ntp3056
Rp3057
(lp3058
g1
(g11
g3
Ntp3059
Rp3060
(lp3061
F0.12154105561109527
aF0.0363084392123276
aF0.07683468625352262
abag1
(g15
g3
Ntp3062
Rp3063
(lp3064
F-0.4411468399620687
aF0.0
aF0.897434936689831
aF0.0
ababa(F-0.2291911359139206
F0.7350000000000004
F1.5707963267948966
F1.5707963267948966
F-0.3490658503988659
F1.501250000000001
F0.5697714878574707
F0.49912500000000043
F-0.25646305163046207
F1.5707963267948966
F0.7277071545896718
F1.1975001506509173
F-0.05594755119659685
F1.2217304763960306
F0.0
F0.46765122440170176
F0.9912500000000006
tp3065
aF-1.0
aF0.0
ag1
(g20
g3
Ntp3066
Rp3067
(lp3068
g1
(g24
g3
Ntp3069
Rp3070
(lp3071
I0
ag1
(g28
g3
Ntp3072
Rp3073
(lp3074
I0
aI0
abaS'shadowhandnew'
p3075
abag1
(g33
g3
Ntp3076
Rp3077
(lp3078
F0.960429138778732
aF-0.1920858277557464
aF0.2016901191435337
abababag1
(g2
g3
Ntp3079
Rp3080
(lp3081
I0
ag1
(g7
g3
Ntp3082
Rp3083
(lp3084
g1
(g11
g3
Ntp3085
Rp3086
(lp3087
F0.1385744442451828
aF0.025967153895065948
aF-0.03344853436551165
abag1
(g15
g3
Ntp3088
Rp3089
(lp3090
F0.15657575286447495
aF0.2831407643021803
aF0.9450474662767152
aF-0.04691084831103689
ababa(F-0.15062373991583167
F0.2812500000000001
F1.5707963267948966
F0.028125000000000018
F-0.3490658503988659
F0.5862500000000004
F1.5707963267948966
F0.8024619259572563
F-0.3490658503988659
F1.2887500000000012
F1.5707963267948966
F1.5707963267948966
F1.0471975511965976
F1.2217304763960306
F0.0
F-0.3985987755982987
F0.12499999999999997
tp3091
aF-1.0
aF0.0011097523157912604
ag1
(g20
g3
Ntp3092
Rp3093
(lp3094
g1
(g24
g3
Ntp3095
Rp3096
(lp3097
I0
ag1
(g28
g3
Ntp3098
Rp3099
(lp3100
I0
aI0
abaS'shadowhandnew'
p3101
abag1
(g33
g3
Ntp3102
Rp3103
(lp3104
F0.960429138778732
aF-0.1920858277557464
aF0.2016901191435337
abababag1
(g2
g3
Ntp3105
Rp3106
(lp3107
I0
ag1
(g7
g3
Ntp3108
Rp3109
(lp3110
g1
(g11
g3
Ntp3111
Rp3112
(lp3113
F0.08370345353507304
aF0.0402310880579346
aF0.10251964508653938
abag1
(g15
g3
Ntp3114
Rp3115
(lp3116
F-0.4903967666608888
aF0.11926231105306474
aF0.8606214404298216
aF0.06795769774887138
ababa(F-0.3490658503988659
F1.545000000000001
F0.4985000000000004
F1.5707963267948966
F-0.3490658503988659
F1.495000000000001
F0.8154324571414313
F1.5707963267948966
F-0.3490658503988659
F1.5707963267948966
F1.5707963267948966
F0.5966150940501443
F1.0471975511965976
F0.20500000000000004
F0.0
F0.5235987755982988
F1.5108854172394204
tp3117
aF-1.0
aF0.0
ag1
(g20
g3
Ntp3118
Rp3119
(lp3120
g1
(g24
g3
Ntp3121
Rp3122
(lp3123
I0
ag1
(g28
g3
Ntp3124
Rp3125
(lp3126
I0
aI0
abaS'shadowhandnew'
p3127
abag1
(g33
g3
Ntp3128
Rp3129
(lp3130
F0.960429138778732
aF-0.1920858277557464
aF0.2016901191435337
abababag1
(g2
g3
Ntp3131
Rp3132
(lp3133
I0
ag1
(g7
g3
Ntp3134
Rp3135
(lp3136
g1
(g11
g3
Ntp3137
Rp3138
(lp3139
F0.07291349073718839
aF0.04800503331499059
aF-0.10112898925196392
abag1
(g15
g3
Ntp3140
Rp3141
(lp3142
F0.41767896058662946
aF-0.10732815469651372
aF0.9008599687943711
aF0.04976213135024246
ababa(F0.04927915192676917
F0.6932147596666803
F0.06887500000000005
F0.06887500000000005
F-0.3490658503988659
F1.137544509752618
F1.5707963267948966
F1.5707963267948966
F-0.3331685031654556
F0.9219268009385784
F0.012750000000000004
F0.7152943680129173
F1.0471975511965976
F1.2217304763960306
F0.0
F-0.5148487755982988
F0.00875
tp3143
aF-1.0
aF0.00944742347924715
ag1
(g20
g3
Ntp3144
Rp3145
(lp3146
g1
(g24
g3
Ntp3147
Rp3148
(lp3149
I0
ag1
(g28
g3
Ntp3150
Rp3151
(lp3152
I0
aI0
abaS'shadowhandnew'
p3153
abag1
(g33
g3
Ntp3154
Rp3155
(lp3156
F0.960429138778732
aF-0.1920858277557464
aF0.2016901191435337
abababag1
(g2
g3
Ntp3157
Rp3158
(lp3159
I0
ag1
(g7
g3
Ntp3160
Rp3161
(lp3162
g1
(g11
g3
Ntp3163
Rp3164
(lp3165
F0.09885887754386484
aF0.04838351470710815
aF0.09772168635495052
abag1
(g15
g3
Ntp3166
Rp3167
(lp3168
F-0.3693879978799372
aF0.22997548641228346
aF0.8953556918181194
aF0.0948787004579122
ababa(F-0.3490658503988659
F1.5412500000000011
F0.49912500000000043
F1.5707963267948966
F-0.3490658503988659
F1.0712500000000007
F1.5707963267948966
F0.10712500000000008
F-0.3490658503988659
F1.5707963267948966
F1.5707963267948966
F0.49912500000000043
F0.024052448803403167
F1.2217304763960306
F0.0
F0.5235987755982988
F1.5707963267948966
tp3169
aF-1.0
aF0.0
ag1
(g20
g3
Ntp3170
Rp3171
(lp3172
g1
(g24
g3
Ntp3173
Rp3174
(lp3175
I0
ag1
(g28
g3
Ntp3176
Rp3177
(lp3178
I0
aI0
abaS'shadowhandnew'
p3179
abag1
(g33
g3
Ntp3180
Rp3181
(lp3182
F0.960429138778732
aF-0.1920858277557464
aF0.2016901191435337
abababag1
(g2
g3
Ntp3183
Rp3184
(lp3185
I0
ag1
(g7
g3
Ntp3186
Rp3187
(lp3188
g1
(g11
g3
Ntp3189
Rp3190
(lp3191
F0.08627686476967766
aF0.044876982891264676
aF0.10556887469767395
abag1
(g15
g3
Ntp3192
Rp3193
(lp3194
F-0.41906928362892054
aF0.1268028204717629
aF0.8971027193682146
aF0.059234205838381127
ababa(F-0.3490658503988659
F1.5487500000000012
F1.4896465163223485
F1.5707963267948966
F-0.3490658503988659
F0.7953412720091109
F1.5707963267948966
F0.07687500000000005
F-0.3490658503988659
F1.5707963267948966
F1.5707963267948966
F0.2989905545671583
F0.19199200117639542
F1.2217304763960306
F0.0
F0.5235987755982988
F0.7687500000000005
tp3195
aF-1.0
aF0.0
ag1
(g20
g3
Ntp3196
Rp3197
(lp3198
g1
(g24
g3
Ntp3199
Rp3200
(lp3201
I0
ag1
(g28
g3
Ntp3202
Rp3203
(lp3204
I0
aI0
abaS'shadowhandnew'
p3205
abag1
(g33
g3
Ntp3206
Rp3207
(lp3208
F0.960429138778732
aF-0.1920858277557464
aF0.2016901191435337
abababag1
(g2
g3
Ntp3209
Rp3210
(lp3211
I0
ag1
(g7
g3
Ntp3212
Rp3213
(lp3214
g1
(g11
g3
Ntp3215
Rp3216
(lp3217
F0.09822957918337634
aF0.023491041611538418
aF-0.08214014017080672
abag1
(g15
g3
Ntp3218
Rp3219
(lp3220
F0.37665629392775224
aF0.17867693040392338
aF0.9059170579561859
aF-0.07428913036273084
ababa(F-0.3490658503988659
F0.23750000000000007
F1.2657095646856211
F0.023750000000000014
F-0.3490658503988659
F0.9825000000000007
F0.49157844980619836
F1.5707963267948966
F-0.3490658503988659
F1.1475000000000009
F1.5707963267948966
F0.5029036498231538
F1.0471975511965976
F1.2217304763960306
F0.0
F-0.18609877559829852
F0.33750000000000013
tp3221
aF-1.0
aF0.0
ag1
(g20
g3
Ntp3222
Rp3223
(lp3224
g1
(g24
g3
Ntp3225
Rp3226
(lp3227
I0
ag1
(g28
g3
Ntp3228
Rp3229
(lp3230
I0
aI0
abaS'shadowhandnew'
p3231
abag1
(g33
g3
Ntp3232
Rp3233
(lp3234
F0.960429138778732
aF-0.1920858277557464
aF0.2016901191435337
abababag1
(g2
g3
Ntp3235
Rp3236
(lp3237
I0
ag1
(g7
g3
Ntp3238
Rp3239
(lp3240
g1
(g11
g3
Ntp3241
Rp3242
(lp3243
F0.1434750173879673
aF0.04015678663960009
aF-0.043346212412569654
abag1
(g15
g3
Ntp3244
Rp3245
(lp3246
F0.037456859076820316
aF-0.04449581720089176
aF0.9983057240756911
aF0.0016695021517029727
ababa(F-0.3490658503988659
F0.4400000000000002
F1.5707963267948966
F0.04400000000000003
F-0.3490658503988659
F1.170866396040561
F0.016000000000000007
F0.8444264298594767
F-0.3490658503988659
F1.555000000000001
F1.5707963267948966
F1.5707963267948966
F0.6366622219634553
F1.2217304763960306
F0.0
F-0.4310987755982987
F0.0925
tp3247
aF-1.0
aF0.05174731331451033
ag1
(g20
g3
Ntp3248
Rp3249
(lp3250
g1
(g24
g3
Ntp3251
Rp3252
(lp3253
I0
ag1
(g28
g3
Ntp3254
Rp3255
(lp3256
I0
aI0
abaS'shadowhandnew'
p3257
abag1
(g33
g3
Ntp3258
Rp3259
(lp3260
F0.960429138778732
aF-0.1920858277557464
aF0.2016901191435337
abababag1
(g2
g3
Ntp3261
Rp3262
(lp3263
I0
ag1
(g7
g3
Ntp3264
Rp3265
(lp3266
g1
(g11
g3
Ntp3267
Rp3268
(lp3269
F0.08086058017994849
aF0.05363018038055941
aF0.10522481163814115
abag1
(g15
g3
Ntp3270
Rp3271
(lp3272
F-0.4361952368155177
aF0.3592195737492484
aF0.8015491901586221
aF0.1954837818616156
ababa(F-0.3490658503988659
F1.542500000000001
F1.5707963267948966
F1.5707963267948966
F-0.3490658503988659
F1.3125000000000009
F1.031793005603483
F1.5707963267948966
F-0.3490658503988659
F1.5707963267948966
F1.5707963267948966
F0.11325000000000009
F0.08530244880340317
F1.2217304763960306
F0.0
F0.5235987755982988
F1.5707963267948966
tp3273
aF-1.0
aF0.0
ag1
(g20
g3
Ntp3274
Rp3275
(lp3276
g1
(g24
g3
Ntp3277
Rp3278
(lp3279
I0
ag1
(g28
g3
Ntp3280
Rp3281
(lp3282
I0
aI0
abaS'shadowhandnew'
p3283
abag1
(g33
g3
Ntp3284
Rp3285
(lp3286
F0.960429138778732
aF-0.1920858277557464
aF0.2016901191435337
abababag1
(g2
g3
Ntp3287
Rp3288
(lp3289
I0
ag1
(g7
g3
Ntp3290
Rp3291
(lp3292
g1
(g11
g3
Ntp3293
Rp3294
(lp3295
F0.1259545989213241
aF0.031401989032127264
aF0.07696949203249678
abag1
(g15
g3
Ntp3296
Rp3297
(lp3298
F-0.4877348102004754
aF0.06463851753932971
aF0.869840786561044
aF0.03624393747771518
ababa(F-0.3490658503988659
F0.8200000000000005
F1.4658479936583269
F0.48072310308444444
F-0.3490658503988659
F1.500000000000001
F0.4930000000000004
F1.01459587640875
F-0.3490658503988659
F1.5707963267948966
F1.5707963267948966
F1.5707963267948966
F0.01415774580143612
F1.2217304763960306
F0.0
F0.23522935097630804
F1.5707963267948966
tp3299
aF-1.0
aF0.0030695184528040367
ag1
(g20
g3
Ntp3300
Rp3301
(lp3302
g1
(g24
g3
Ntp3303
Rp3304
(lp3305
I0
ag1
(g28
g3
Ntp3306
Rp3307
(lp3308
I0
aI0
abaS'shadowhandnew'
p3309
abag1
(g33
g3
Ntp3310
Rp3311
(lp3312
F0.960429138778732
aF-0.1920858277557464
aF0.2016901191435337
abababag1
(g2
g3
Ntp3313
Rp3314
(lp3315
I0
ag1
(g7
g3
Ntp3316
Rp3317
(lp3318
g1
(g11
g3
Ntp3319
Rp3320
(lp3321
F0.1241008481325261
aF0.04988257873156262
aF-0.060258025817589
abag1
(g15
g3
Ntp3322
Rp3323
(lp3324
F0.43889678882438937
aF0.285969315058481
aF0.8385635982288046
aF-0.14967381644824435
ababa(F-0.3490658503988659
F1.5465991298734696
F1.5707963267948966
F1.5707963267948966
F-0.16021137001418964
F1.501250000000001
F0.49812500000000043
F1.5707963267948966
F-0.3490658503988659
F0.2612500000000001
F1.5707963267948966
F0.49812500000000043
F0.9951932516256491
F0.2612500000000001
F0.0
F0.2509090602639934
F1.5707963267948966
tp3325
aF-1.0
aF0.0
ag1
(g20
g3
Ntp3326
Rp3327
(lp3328
g1
(g24
g3
Ntp3329
Rp3330
(lp3331
I0
ag1
(g28
g3
Ntp3332
Rp3333
(lp3334
I0
aI0
abaS'shadowhandnew'
p3335
abag1
(g33
g3
Ntp3336
Rp3337
(lp3338
F0.960429138778732
aF-0.1920858277557464
aF0.2016901191435337
abababag1
(g2
g3
Ntp3339
Rp3340
(lp3341
I0
ag1
(g7
g3
Ntp3342
Rp3343
(lp3344
g1
(g11
g3
Ntp3345
Rp3346
(lp3347
F0.09541094744672757
aF0.05968048582781558
aF0.10182797022084077
abag1
(g15
g3
Ntp3348
Rp3349
(lp3350
F-0.35043780932386437
aF0.3304750116813968
aF0.866082601280416
aF0.1337181222191652
ababa(F-0.3490658503988659
F1.5475000000000012
F1.5707963267948966
F1.5707963267948966
F-0.3490658503988659
F1.407500000000001
F1.5707963267948966
F1.5707963267948966
F-0.3490658503988659
F1.5707963267948966
F1.5707963267948966
F0.11325000000000009
F0.08530244880340317
F1.2217304763960306
F0.0
F0.5235987755982988
F1.5707963267948966
tp3351
aF-1.0
aF0.0
ag1
(g20
g3
Ntp3352
Rp3353
(lp3354
g1
(g24
g3
Ntp3355
Rp3356
(lp3357
I0
ag1
(g28
g3
Ntp3358
Rp3359
(lp3360
I0
aI0
abaS'shadowhandnew'
p3361
abag1
(g33
g3
Ntp3362
Rp3363
(lp3364
F0.960429138778732
aF-0.1920858277557464
aF0.2016901191435337
abababag1
(g2
g3
Ntp3365
Rp3366
(lp3367
I0
ag1
(g7
g3
Ntp3368
Rp3369
(lp3370
g1
(g11
g3
Ntp3371
Rp3372
(lp3373
F0.11941343829899613
aF0.009406174909744276
aF-0.06328684546747662
abag1
(g15
g3
Ntp3374
Rp3375
(lp3376
F0.2729661296947793
aF0.3708320339415312
aF0.8801974805351341
aF-0.11500212998828539
ababa(F-0.15132882099331524
F0.7175000000000005
F0.07175000000000005
F1.5707963267948966
F-0.3490658503988659
F0.5450000000000003
F1.5707963267948966
F1.5707963267948966
F-0.1422030057636504
F1.5707963267948966
F0.4997500000000004
F1.0574724812436767
F1.0471975511965976
F1.2217304763960306
F0.0
F0.021401224401701505
F0.5450000000000003
tp3377
aF-1.0
aF0.0
ag1
(g20
g3
Ntp3378
Rp3379
(lp3380
g1
(g24
g3
Ntp3381
Rp3382
(lp3383
I0
ag1
(g28
g3
Ntp3384
Rp3385
(lp3386
I0
aI0
abaS'shadowhandnew'
p3387
abag1
(g33
g3
Ntp3388
Rp3389
(lp3390
F0.960429138778732
aF-0.1920858277557464
aF0.2016901191435337
abababag1
(g2
g3
Ntp3391
Rp3392
(lp3393
I0
ag1
(g7
g3
Ntp3394
Rp3395
(lp3396
g1
(g11
g3
Ntp3397
Rp3398
(lp3399
F0.15399322898879764
aF0.07087558077641067
aF0.003719886544881632
abag1
(g15
g3
Ntp3400
Rp3401
(lp3402
F-0.1462154442997068
aF-0.4188881846680914
aF0.8935633874214136
aF-0.06854345522133336
ababa(F-0.3490658503988659
F0.9431250000000007
F0.09431250000000008
F1.5707963267948966
F-0.3490658503988659
F0.6249099090200338
F1.4849906657291378
F0.02906250000000002
F-0.3490658503988659
F1.287500000000001
F0.1287500000000001
F0.1287500000000001
F-0.07183329619598589
F1.065804460008862
F0.0
F-0.5067237755982987
F1.341671465384635
tp3403
aF-1.0
aF0.19280073609442475
ag1
(g20
g3
Ntp3404
Rp3405
(lp3406
g1
(g24
g3
Ntp3407
Rp3408
(lp3409
I0
ag1
(g28
g3
Ntp3410
Rp3411
(lp3412
I0
aI0
abaS'shadowhandnew'
p3413
abag1
(g33
g3
Ntp3414
Rp3415
(lp3416
F0.960429138778732
aF-0.1920858277557464
aF0.2016901191435337
abababag1
(g2
g3
Ntp3417
Rp3418
(lp3419
I0
ag1
(g7
g3
Ntp3420
Rp3421
(lp3422
g1
(g11
g3
Ntp3423
Rp3424
(lp3425
F0.1378695996605576
aF0.05761259255097164
aF-0.04621068494012869
abag1
(g15
g3
Ntp3426
Rp3427
(lp3428
F0.39885128700198924
aF0.29248193265550804
aF0.8584313808975146
aF-0.13589530609017406
ababa(F-0.3490658503988659
F1.5450291006880117
F1.5707963267948966
F1.5707963267948966
F-0.3490658503988659
F1.3600000000000008
F0.1360000000000001
F1.5707963267948966
F-0.3490658503988659
F1.5707963267948966
F1.5707963267948966
F1.5707963267948966
F0.314887789270714
F1.2217304763960306
F0.0
F0.5235987755982988
F1.0250000000000006
tp3429
aF-1.0
aF0.0
ag1
(g20
g3
Ntp3430
Rp3431
(lp3432
g1
(g24
g3
Ntp3433
Rp3434
(lp3435
I0
ag1
(g28
g3
Ntp3436
Rp3437
(lp3438
I0
aI0
abaS'shadowhandnew'
p3439
abag1
(g33
g3
Ntp3440
Rp3441
(lp3442
F0.960429138778732
aF-0.1920858277557464
aF0.2016901191435337
abababag1
(g2
g3
Ntp3443
Rp3444
(lp3445
I0
ag1
(g7
g3
Ntp3446
Rp3447
(lp3448
g1
(g11
g3
Ntp3449
Rp3450
(lp3451
F0.10631870869309117
aF0.040867298516320295
aF0.08242203832731611
abag1
(g15
g3
Ntp3452
Rp3453
(lp3454
F-0.1541186793611166
aF0.24601528006185838
aF0.9561126087380966
aF0.03965594608759613
ababa(F-0.3490658503988659
F1.5475000000000012
F0.4987500000000004
F0.4987500000000004
F-0.3490658503988659
F1.4988617907042059
F1.1882006654677089
F1.328938757525108
F-0.14257590353640853
F1.5707963267948966
F1.5707963267948966
F0.7450179087234787
F1.0471975511965976
F0.4075000000000002
F0.0
F-0.11609877559829848
F1.5707963267948966
tp3455
aF-1.0
aF0.0
ag1
(g20
g3
Ntp3456
Rp3457
(lp3458
g1
(g24
g3
Ntp3459
Rp3460
(lp3461
I0
ag1
(g28
g3
Ntp3462
Rp3463
(lp3464
I0
aI0
abaS'shadowhandnew'
p3465
abag1
(g33
g3
Ntp3466
Rp3467
(lp3468
F0.960429138778732
aF-0.1920858277557464
aF0.2016901191435337
abababag1
(g2
g3
Ntp3469
Rp3470
(lp3471
I0
ag1
(g7
g3
Ntp3472
Rp3473
(lp3474
g1
(g11
g3
Ntp3475
Rp3476
(lp3477
F0.12502798603324644
aF0.01775423537649749
aF0.020448172031054392
abag1
(g15
g3
Ntp3478
Rp3479
(lp3480
F-0.09260333847525766
aF0.06549721144484803
aF0.9935277896251103
aF0.006104771808045147
ababa(F-0.3490658503988659
F1.1712500000000008
F0.2531250000000002
F1.270383715827752
F-0.3490658503988659
F0.8812500000000005
F1.5707963267948966
F0.08812500000000006
F-0.12467940957906942
F1.5707963267948966
F0.036500000000000025
F1.5707963267948966
F-0.1653927928242349
F1.2217304763960306
F0.0
F0.5235987755982988
F0.8150000000000006
tp3481
aF-1.0
aF0.06589836247084134
ag1
(g20
g3
Ntp3482
Rp3483
(lp3484
g1
(g24
g3
Ntp3485
Rp3486
(lp3487
I0
ag1
(g28
g3
Ntp3488
Rp3489
(lp3490
I0
aI0
abaS'shadowhandnew'
p3491
abag1
(g33
g3
Ntp3492
Rp3493
(lp3494
F0.960429138778732
aF-0.1920858277557464
aF0.2016901191435337
abababag1
(g2
g3
Ntp3495
Rp3496
(lp3497
I0
ag1
(g7
g3
Ntp3498
Rp3499
(lp3500
g1
(g11
g3
Ntp3501
Rp3502
(lp3503
F0.11531364564462593
aF0.0493306560867461
aF0.07066644434671246
abag1
(g15
g3
Ntp3504
Rp3505
(lp3506
F-0.09016720338289598
aF0.33543862508169714
aF0.9371815536100073
aF0.03227289591191268
ababa(F-0.3490658503988659
F1.5439236260147007
F1.5707963267948966
F0.9555298708674242
F-0.3490658503988659
F1.278271811211321
F1.5707963267948966
F1.5707963267948966
F-0.3490658503988659
F1.5707963267948966
F0.39912500000000034
F0.39912500000000034
F0.13405244880340314
F1.1812500000000008
F0.0
F0.5235987755982988
F1.5707963267948966
tp3507
aF-1.0
aF0.0
ag1
(g20
g3
Ntp3508
Rp3509
(lp3510
g1
(g24
g3
Ntp3511
Rp3512
(lp3513
I0
ag1
(g28
g3
Ntp3514
Rp3515
(lp3516
I0
aI0
abaS'shadowhandnew'
p3517
abag1
(g33
g3
Ntp3518
Rp3519
(lp3520
F0.960429138778732
aF-0.1920858277557464
aF0.2016901191435337
abababag1
(g2
g3
Ntp3521
Rp3522
(lp3523
I0
ag1
(g7
g3
Ntp3524
Rp3525
(lp3526
g1
(g11
g3
Ntp3527
Rp3528
(lp3529
F0.09616525185391425
aF0.04037273976061548
aF0.08697476071993572
abag1
(g15
g3
Ntp3530
Rp3531
(lp3532
F-0.23709052107144094
aF0.31249676607073534
aF0.9162945987879835
aF0.08085829731928183
ababa(F-0.3490658503988659
F1.5427198094479686
F1.5707963267948966
F1.1209599954396325
F-0.3490658503988659
F1.4955325101227301
F1.5707963267948966
F1.5707963267948966
F-0.3490658503988659
F1.5707963267948966
F0.4977500000000004
F0.4977500000000004
F-0.3959913526090663
F0.07
F0.0
F0.5235987755982988
F1.0575000000000008
tp3533
aF-1.0
aF0.0
ag1
(g20
g3
Ntp3534
Rp3535
(lp3536
g1
(g24
g3
Ntp3537
Rp3538
(lp3539
I0
ag1
(g28
g3
Ntp3540
Rp3541
(lp3542
I0
aI0
abaS'shadowhandnew'
p3543
abag1
(g33
g3
Ntp3544
Rp3545
(lp3546
F0.960429138778732
aF-0.1920858277557464
aF0.2016901191435337
abababag1
(g2
g3
Ntp3547
Rp3548
(lp3549
I0
ag1
(g7
g3
Ntp3550
Rp3551
(lp3552
g1
(g11
g3
Ntp3553
Rp3554
(lp3555
F0.12721244138860868
aF0.018065964386305568
aF-0.02445015586164847
abag1
(g15
g3
Ntp3556
Rp3557
(lp3558
F-0.022952352983986422
aF0.009064200762763559
aF0.9996954468477103
aF0.00020810811540723247
ababa(F-0.005654943790048556
F0.792921227909395
F1.001079227653652
F0.022375000000000013
F-0.3490658503988659
F0.7800000000000005
F1.5707963267948966
F0.07800000000000006
F-0.3490658503988659
F1.5707963267948966
F1.5707963267948966
F1.5707963267948966
F-0.31674024427264147
F1.1789128237272883
F0.0
F0.5235987755982988
F0.00875
tp3559
aF-1.0
aF0.06885061507286298
ag1
(g20
g3
Ntp3560
Rp3561
(lp3562
g1
(g24
g3
Ntp3563
Rp3564
(lp3565
I0
ag1
(g28
g3
Ntp3566
Rp3567
(lp3568
I0
aI0
abaS'shadowhandnew'
p3569
abag1
(g33
g3
Ntp3570
Rp3571
(lp3572
F0.960429138778732
aF-0.1920858277557464
aF0.2016901191435337
abababag1
(g2
g3
Ntp3573
Rp3574
(lp3575
I0
ag1
(g7
g3
Ntp3576
Rp3577
(lp3578
g1
(g11
g3
Ntp3579
Rp3580
(lp3581
F0.06537273148120731
aF0.05683369007357401
aF-0.0943166027291251
abag1
(g15
g3
Ntp3582
Rp3583
(lp3584
F0.3478710287052862
aF-0.3617921908947908
aF0.8522220813416389
aF0.14768101458480817
ababa(F-0.3490658503988659
F0.37436478803020673
F1.3088799039596613
F0.037375000000000026
F-0.3490658503988659
F0.6112500000000003
F0.44516534289457604
F1.5707963267948966
F-0.3490658503988659
F0.6312500000000003
F0.06312500000000004
F1.5707963267948966
F0.7529050750407551
F0.4969471005012363
F0.0
F-0.4198487755982987
F0.10374999999999998
tp3585
aF-1.0
aF0.08199376144699812
ag1
(g20
g3
Ntp3586
Rp3587
(lp3588
g1
(g24
g3
Ntp3589
Rp3590
(lp3591
I0
ag1
(g28
g3
Ntp3592
Rp3593
(lp3594
I0
aI0
abaS'shadowhandnew'
p3595
abag1
(g33
g3
Ntp3596
Rp3597
(lp3598
F0.960429138778732
aF-0.1920858277557464
aF0.2016901191435337
abababag1
(g2
g3
Ntp3599
Rp3600
(lp3601
I0
ag1
(g7
g3
Ntp3602
Rp3603
(lp3604
g1
(g11
g3
Ntp3605
Rp3606
(lp3607
F0.07526794347134087
aF0.018194119698134358
aF0.10301259325061161
abag1
(g15
g3
Ntp3608
Rp3609
(lp3610
F-0.35252705112052896
aF-0.006606775176033748
aF0.9357749911375877
aF-0.002488917733730123
ababa(F-0.3490658503988659
F1.542500000000001
F0.4982500000000004
F1.5707963267948966
F-0.3490658503988659
F1.4946942044305387
F1.5707963267948966
F0.4982500000000004
F-0.3490658503988659
F1.5707963267948966
F1.5707963267948966
F1.5707963267948966
F1.0471975511965976
F0.3931709289073194
F0.0
F-0.08177090469848622
F1.5707963267948966
tp3611
aF-1.0
aF0.0
ag1
(g20
g3
Ntp3612
Rp3613
(lp3614
g1
(g24
g3
Ntp3615
Rp3616
(lp3617
I0
ag1
(g28
g3
Ntp3618
Rp3619
(lp3620
I0
aI0
abaS'shadowhandnew'
p3621
abag1
(g33
g3
Ntp3622
Rp3623
(lp3624
F0.960429138778732
aF-0.1920858277557464
aF0.2016901191435337
abababag1
(g2
g3
Ntp3625
Rp3626
(lp3627
I0
ag1
(g7
g3
Ntp3628
Rp3629
(lp3630
g1
(g11
g3
Ntp3631
Rp3632
(lp3633
F0.11792740709488
aF0.017788144098553716
aF0.06546270772249932
abag1
(g15
g3
Ntp3634
Rp3635
(lp3636
F-0.4619100969349455
aF0.009849740086921388
aF0.8868572189015227
aF0.0051301317747283045
ababa(F-0.3490658503988659
F1.548484996967243
F0.1462500000000001
F0.6659117752822917
F-0.3490658503988659
F1.1625000000000008
F1.4109803273637098
F0.11625000000000009
F-0.3490658503988659
F1.5707963267948966
F0.5280394108206846
F1.0751623805108128
F-0.367197551196597
F0.6800000000000004
F0.0
F0.5235987755982988
F1.402500000000001
tp3637
aF-1.0
aF0.012675945957312152
ag1
(g20
g3
Ntp3638
Rp3639
(lp3640
g1
(g24
g3
Ntp3641
Rp3642
(lp3643
I0
ag1
(g28
g3
Ntp3644
Rp3645
(lp3646
I0
aI0
abaS'shadowhandnew'
p3647
abag1
(g33
g3
Ntp3648
Rp3649
(lp3650
F0.960429138778732
aF-0.1920858277557464
aF0.2016901191435337
abababag1
(g2
g3
Ntp3651
Rp3652
(lp3653
I0
ag1
(g7
g3
Ntp3654
Rp3655
(lp3656
g1
(g11
g3
Ntp3657
Rp3658
(lp3659
F0.11970346977570344
aF0.017408543266993617
aF0.050913156721104566
abag1
(g15
g3
Ntp3660
Rp3661
(lp3662
F-0.3359728626493468
aF0.02336916403013004
aF0.9415447845120437
aF0.008338854472008923
ababa(F-0.3490658503988659
F0.7375000000000005
F1.5707963267948966
F1.5707963267948966
F-0.3490658503988659
F1.3225000000000011
F1.5707963267948966
F1.5707963267948966
F-0.3490658503988659
F1.5707963267948966
F0.7382652349782146
F0.4992500000000004
F-0.5010470789637794
F1.2217304763960306
F0.0
F0.5235987755982988
F1.5707963267948966
tp3663
aF-1.0
aF0.005137407487035185
ag1
(g20
g3
Ntp3664
Rp3665
(lp3666
g1
(g24
g3
Ntp3667
Rp3668
(lp3669
I0
ag1
(g28
g3
Ntp3670
Rp3671
(lp3672
I0
aI0
abaS'shadowhandnew'
p3673
abag1
(g33
g3
Ntp3674
Rp3675
(lp3676
F0.960429138778732
aF-0.1920858277557464
aF0.2016901191435337
abababag1
(g2
g3
Ntp3677
Rp3678
(lp3679
I0
ag1
(g7
g3
Ntp3680
Rp3681
(lp3682
g1
(g11
g3
Ntp3683
Rp3684
(lp3685
F0.11576494561951486
aF0.04897411251361342
aF0.07701886147069553
abag1
(g15
g3
Ntp3686
Rp3687
(lp3688
F-0.07683740684688863
aF0.2765184067461589
aF0.957674979290808
aF0.022185979355482548
ababa(F-0.3490658503988659
F1.5487500000000012
F0.8656047298737065
F0.4978750000000004
F-0.3490658503988659
F1.5004388499507761
F1.5707963267948966
F0.4978750000000004
F-0.3490658503988659
F1.5707963267948966
F1.5707963267948966
F0.4978750000000004
F1.0471975511965976
F0.4687500000000003
F0.0
F-0.0548487755982985
F0.7715789014060872
tp3689
aF-1.0
aF0.0
ag1
(g20
g3
Ntp3690
Rp3691
(lp3692
g1
(g24
g3
Ntp3693
Rp3694
(lp3695
I0
ag1
(g28
g3
Ntp3696
Rp3697
(lp3698
I0
aI0
abaS'shadowhandnew'
p3699
abag1
(g33
g3
Ntp3700
Rp3701
(lp3702
F0.960429138778732
aF-0.1920858277557464
aF0.2016901191435337
abababag1
(g2
g3
Ntp3703
Rp3704
(lp3705
I0
ag1
(g7
g3
Ntp3706
Rp3707
(lp3708
g1
(g11
g3
Ntp3709
Rp3710
(lp3711
F0.06335186361826284
aF0.01736035335854326
aF0.10287676380686095
abag1
(g15
g3
Ntp3712
Rp3713
(lp3714
F-0.4742546918150323
aF-0.028526986299884444
aF0.8797910140275503
aF-0.015377580448485563
ababa(F-0.3490658503988659
F1.5400000000000011
F1.5707963267948966
F0.1540000000000001
F-0.3490658503988659
F1.500000000000001
F1.5707963267948966
F0.4980000000000004
F-0.3490658503988659
F1.5707963267948966
F1.5707963267948966
F0.4980000000000004
F-0.6971975511965973
F1.2217304763960306
F0.0
F0.5235987755982988
F1.5707963267948966
tp3715
aF-1.0
aF0.0001194932365335302
ag1
(g20
g3
Ntp3716
Rp3717
(lp3718
g1
(g24
g3
Ntp3719
Rp3720
(lp3721
I0
ag1
(g28
g3
Ntp3722
Rp3723
(lp3724
I0
aI0
abaS'shadowhandnew'
p3725
abag1
(g33
g3
Ntp3726
Rp3727
(lp3728
F0.960429138778732
aF-0.1920858277557464
aF0.2016901191435337
abababag1
(g2
g3
Ntp3729
Rp3730
(lp3731
I0
ag1
(g7
g3
Ntp3732
Rp3733
(lp3734
g1
(g11
g3
Ntp3735
Rp3736
(lp3737
F0.05832692905533767
aF0.014675816649731423
aF-0.0934688479578227
abag1
(g15
g3
Ntp3738
Rp3739
(lp3740
F0.4365629906092209
aF0.047879085130024965
aF0.8980972516647903
aF-0.023273912210788967
ababa(F-0.3490658503988659
F0.23125000000000007
F1.3056326135078313
F0.023125000000000014
F-0.3490658503988659
F1.4091914742354368
F1.5707963267948966
F0.016000000000000007
F-0.3490658503988659
F1.1550000000000007
F0.1155000000000001
F0.1438654402538339
F0.8238972410054461
F1.2217304763960306
F0.0
F-0.3635987755982987
F0.2612500000000001
tp3741
aF-1.0
aF0.08552778149583737
ag1
(g20
g3
Ntp3742
Rp3743
(lp3744
g1
(g24
g3
Ntp3745
Rp3746
(lp3747
I0
ag1
(g28
g3
Ntp3748
Rp3749
(lp3750
I0
aI0
abaS'shadowhandnew'
p3751
abag1
(g33
g3
Ntp3752
Rp3753
(lp3754
F0.960429138778732
aF-0.1920858277557464
aF0.2016901191435337
abababag1
(g2
g3
Ntp3755
Rp3756
(lp3757
I0
ag1
(g7
g3
Ntp3758
Rp3759
(lp3760
g1
(g11
g3
Ntp3761
Rp3762
(lp3763
F0.10475102087713244
aF0.035850670688017984
aF0.08956056988769227
abag1
(g15
g3
Ntp3764
Rp3765
(lp3766
F-0.1501314961199352
aF0.16011788964861207
aF0.9753026698214783
aF0.024647464907394258
ababa(F-0.3490658503988659
F1.5462500000000012
F0.9499274901138992
F0.49862500000000043
F-0.3490658503988659
F1.4950694040675878
F1.5707963267948966
F0.49862500000000043
F-0.3490658503988659
F1.5707963267948966
F1.5707963267948966
F0.49862500000000043
F1.0471975511965976
F0.4062500000000002
F0.0
F-0.11734877559829848
F1.5707963267948966
tp3767
aF-1.0
aF0.0
ag1
(g20
g3
Ntp3768
Rp3769
(lp3770
g1
(g24
g3
Ntp3771
Rp3772
(lp3773
I0
ag1
(g28
g3
Ntp3774
Rp3775
(lp3776
I0
aI0
abaS'shadowhandnew'
p3777
abag1
(g33
g3
Ntp3778
Rp3779
(lp3780
F0.960429138778732
aF-0.1920858277557464
aF0.2016901191435337
abababag1
(g2
g3
Ntp3781
Rp3782
(lp3783
I0
ag1
(g7
g3
Ntp3784
Rp3785
(lp3786
g1
(g11
g3
Ntp3787
Rp3788
(lp3789
F0.09006205418051783
aF-0.005530584893968925
aF-0.07222187935659431
abag1
(g15
g3
Ntp3790
Rp3791
(lp3792
F0.3046411224193784
aF0.3077068108761237
aF0.8952918473391683
aF-0.10470345342693334
ababa(F-0.3490658503988659
F0.9542207379938656
F0.14922270976934882
F0.8988892570037217
F-0.3490658503988659
F1.310000000000001
F0.1310000000000001
F0.4990000000000004
F-0.3490658503988659
F1.5707963267948966
F0.4990000000000004
F0.4990000000000004
F1.0471975511965976
F1.2217304763960306
F0.0
F-0.0410987755982985
F0.48250000000000026
tp3793
aF-1.0
aF0.0
ag1
(g20
g3
Ntp3794
Rp3795
(lp3796
g1
(g24
g3
Ntp3797
Rp3798
(lp3799
I0
ag1
(g28
g3
Ntp3800
Rp3801
(lp3802
I0
aI0
abaS'shadowhandnew'
p3803
abag1
(g33
g3
Ntp3804
Rp3805
(lp3806
F0.960429138778732
aF-0.1920858277557464
aF0.2016901191435337
abababag1
(g2
g3
Ntp3807
Rp3808
(lp3809
I0
ag1
(g7
g3
Ntp3810
Rp3811
(lp3812
g1
(g11
g3
Ntp3813
Rp3814
(lp3815
F0.1012190687829104
aF0.018688253100216413
aF-0.05791377432568857
abag1
(g15
g3
Ntp3816
Rp3817
(lp3818
F0.2926691191313242
aF-0.3461466124026865
aF0.8839644142985165
aF0.11460464075647145
ababa(F-0.3490658503988659
F0.3275000000000001
F0.2726885432295946
F0.4971250000000004
F-0.3490658503988659
F0.2800000000000001
F0.11312500000000009
F1.5707963267948966
F-0.3490658503988659
F0.10499999999999998
F0.5412119115328299
F1.4422091171841418
F0.07701182167669002
F0.4412500000000002
F0.0
F-0.08234877559829848
F0.4412500000000002
tp3819
aF-1.0
aF0.142721662751935
ag1
(g20
g3
Ntp3820
Rp3821
(lp3822
g1
(g24
g3
Ntp3823
Rp3824
(lp3825
I0
ag1
(g28
g3
Ntp3826
Rp3827
(lp3828
I0
aI0
abaS'shadowhandnew'
p3829
abag1
(g33
g3
Ntp3830
Rp3831
(lp3832
F0.960429138778732
aF-0.1920858277557464
aF0.2016901191435337
abababag1
(g2
g3
Ntp3833
Rp3834
(lp3835
I0
ag1
(g7
g3
Ntp3836
Rp3837
(lp3838
g1
(g11
g3
Ntp3839
Rp3840
(lp3841
F0.11875944848166935
aF-0.03475920865631335
aF0.10075188949175759
abag1
(g15
g3
Ntp3842
Rp3843
(lp3844
F-0.037121352445619094
aF-0.26296710689825836
aF0.9640372259821737
aF-0.010125848249096086
ababa(F-0.3490658503988659
F1.545000000000001
F1.5707963267948966
F1.5707963267948966
F-0.22631778277848238
F1.501208086113882
F1.5707963267948966
F1.5707963267948966
F-0.3490658503988659
F1.5707963267948966
F1.5707963267948966
F1.2595648276498976
F1.0471975511965976
F0.19500000000000003
F0.0
F0.5235987755982988
F1.5707963267948966
tp3845
aF-1.0
aF0.0
ag1
(g20
g3
Ntp3846
Rp3847
(lp3848
g1
(g24
g3
Ntp3849
Rp3850
(lp3851
I0
ag1
(g28
g3
Ntp3852
Rp3853
(lp3854
I0
aI0
abaS'shadowhandnew'
p3855
abag1
(g33
g3
Ntp3856
Rp3857
(lp3858
F0.960429138778732
aF-0.1920858277557464
aF0.2016901191435337
abababag1
(g2
g3
Ntp3859
Rp3860
(lp3861
I0
ag1
(g7
g3
Ntp3862
Rp3863
(lp3864
g1
(g11
g3
Ntp3865
Rp3866
(lp3867
F0.1317978813253971
aF0.0380234120986127
aF0.04799216792196159
abag1
(g15
g3
Ntp3868
Rp3869
(lp3870
F-0.40636102416031017
aF-0.16699464727464627
aF0.8951179488551048
aF-0.07581136763329467
ababa(F-0.3490658503988659
F0.7350000000000004
F1.5707963267948966
F0.07350000000000005
F-0.3490658503988659
F0.9787500000000007
F1.5707963267948966
F0.09787500000000007
F-0.3490658503988659
F1.5707963267948966
F0.4808750000000004
F0.4808750000000004
F-0.6476976675113788
F1.2217304763960306
F0.0
F0.5235987755982988
F1.5707963267948966
tp3871
aF-1.0
aF0.041257660911845254
ag1
(g20
g3
Ntp3872
Rp3873
(lp3874
g1
(g24
g3
Ntp3875
Rp3876
(lp3877
I0
ag1
(g28
g3
Ntp3878
Rp3879
(lp3880
I0
aI0
abaS'shadowhandnew'
p3881
abag1
(g33
g3
Ntp3882
Rp3883
(lp3884
F0.960429138778732
aF-0.1920858277557464
aF0.2016901191435337
abababag1
(g2
g3
Ntp3885
Rp3886
(lp3887
I0
ag1
(g7
g3
Ntp3888
Rp3889
(lp3890
g1
(g11
g3
Ntp3891
Rp3892
(lp3893
F0.12220328096606738
aF0.018086124747498877
aF-0.017902090538894754
abag1
(g15
g3
Ntp3894
Rp3895
(lp3896
F0.12943246084104357
aF-0.1255985935656148
aF0.9834627567844058
aF0.016529893919445426
ababa(F-0.3490658503988659
F0.5300000000000002
F0.49812500000000043
F0.49812500000000043
F-0.3490658503988659
F0.8812500000000005
F0.08812500000000006
F1.5707963267948966
F-0.3490658503988659
F0.5716821809641967
F1.5707963267948966
F0.023000000000000013
F-0.06620323571025256
F0.7187500000000004
F0.0
F0.19515122440170155
F0.7187500000000004
tp3897
aF-1.0
aF0.06522864986965683
ag1
(g20
g3
Ntp3898
Rp3899
(lp3900
g1
(g24
g3
Ntp3901
Rp3902
(lp3903
I0
ag1
(g28
g3
Ntp3904
Rp3905
(lp3906
I0
aI0
abaS'shadowhandnew'
p3907
abag1
(g33
g3
Ntp3908
Rp3909
(lp3910
F0.960429138778732
aF-0.1920858277557464
aF0.2016901191435337
abababag1
(g2
g3
Ntp3911
Rp3912
(lp3913
I0
ag1
(g7
g3
Ntp3914
Rp3915
(lp3916
g1
(g11
g3
Ntp3917
Rp3918
(lp3919
F0.09002322653058208
aF0.030723631717920728
aF0.10765249892085589
abag1
(g15
g3
Ntp3920
Rp3921
(lp3922
F-0.2117185541670542
aF0.093199666882675
aF0.9726651677442971
aF0.0202866303591519
ababa(F0.15593347708598299
F1.555000000000001
F1.5707963267948966
F0.5575239593604936
F-0.3490658503988659
F1.495000000000001
F0.4985000000000004
F0.4985000000000004
F-0.3490658503988659
F1.5707963267948966
F1.5707963267948966
F1.0611117797231897
F1.0471975511965976
F0.19500000000000003
F0.0
F0.5235987755982988
F1.5707963267948966
tp3923
aF-1.0
aF0.0
ag1
(g20
g3
Ntp3924
Rp3925
(lp3926
g1
(g24
g3
Ntp3927
Rp3928
(lp3929
I0
ag1
(g28
g3
Ntp3930
Rp3931
(lp3932
I0
aI0
abaS'shadowhandnew'
p3933
abag1
(g33
g3
Ntp3934
Rp3935
(lp3936
F0.960429138778732
aF-0.1920858277557464
aF0.2016901191435337
abababag1
(g2
g3
Ntp3937
Rp3938
(lp3939
I0
ag1
(g7
g3
Ntp3940
Rp3941
(lp3942
g1
(g11
g3
Ntp3943
Rp3944
(lp3945
F0.06736636365107629
aF0.0021945590650580106
aF-0.09918096768282388
abag1
(g15
g3
Ntp3946
Rp3947
(lp3948
F0.49565222963717925
aF0.09504019329831613
aF0.8615722953863432
aF-0.054675485697152554
ababa(F-0.3490658503988659
F0.3869973318938055
F0.008625
F0.6840889637226826
F-0.3490658503988659
F0.4062500000000002
F1.5707963267948966
F1.5707963267948966
F-0.3490658503988659
F1.5707963267948966
F0.4736250000000004
F1.5707963267948966
F1.0471975511965976
F1.2217304763960306
F0.0
F-0.3524457695659817
F0.06625
tp3949
aF-1.0
aF0.02864475841287431
ag1
(g20
g3
Ntp3950
Rp3951
(lp3952
g1
(g24
g3
Ntp3953
Rp3954
(lp3955
I0
ag1
(g28
g3
Ntp3956
Rp3957
(lp3958
I0
aI0
abaS'shadowhandnew'
p3959
abag1
(g33
g3
Ntp3960
Rp3961
(lp3962
F0.960429138778732
aF-0.1920858277557464
aF0.2016901191435337
abababag1
(g2
g3
Ntp3963
Rp3964
(lp3965
I0
ag1
(g7
g3
Ntp3966
Rp3967
(lp3968
g1
(g11
g3
Ntp3969
Rp3970
(lp3971
F0.1462160741803925
aF-0.00620730977742112
aF-0.03233224297094568
abag1
(g15
g3
Ntp3972
Rp3973
(lp3974
F0.10430469641222553
aF0.3027666678965781
aF0.9467524727389339
aF-0.033356116078929784
ababa(F-0.3490658503988659
F0.140625
F1.5707963267948966
F0.014062500000000006
F-0.3490658503988659
F1.0231250000000007
F1.5707963267948966
F1.5707963267948966
F-0.3490658503988659
F0.8931250000000006
F1.5707963267948966
F0.08931250000000007
F0.9362307339083314
F1.2217304763960306
F0.0
F-0.48297377559829874
F0.040625
tp3975
aF-1.0
aF0.00689711573339044
ag1
(g20
g3
Ntp3976
Rp3977
(lp3978
g1
(g24
g3
Ntp3979
Rp3980
(lp3981
I0
ag1
(g28
g3
Ntp3982
Rp3983
(lp3984
I0
aI0
abaS'shadowhandnew'
p3985
abag1
(g33
g3
Ntp3986
Rp3987
(lp3988
F0.960429138778732
aF-0.1920858277557464
aF0.2016901191435337
abababag1
(g2
g3
Ntp3989
Rp3990
(lp3991
I0
ag1
(g7
g3
Ntp3992
Rp3993
(lp3994
g1
(g11
g3
Ntp3995
Rp3996
(lp3997
F0.15986531568803428
aF0.027123198980570407
aF-0.006818965240608632
abag1
(g15
g3
Ntp3998
Rp3999
(lp4000
F-0.12368954004363233
aF-0.1914529629600223
aF0.9733728902210352
aF-0.024328527295575567
ababa(F-0.3490658503988659
F0.31793191805765225
F1.3918926129874751
F0.00625
F-0.3490658503988659
F0.4106704488114571
F1.550159566062526
F0.0
F-0.3490658503988659
F0.9075000000000006
F1.5707963267948966
F1.5707963267948966
F0.28999635130272206
F1.2217304763960306
F0.0
F-0.5198487755982988
F0.08249999999999999
tp4001
aF-1.0
aF0.08049420338656872
ag1
(g20
g3
Ntp4002
Rp4003
(lp4004
g1
(g24
g3
Ntp4005
Rp4006
(lp4007
I0
ag1
(g28
g3
Ntp4008
Rp4009
(lp4010
I0
aI0
abaS'shadowhandnew'
p4011
abag1
(g33
g3
Ntp4012
Rp4013
(lp4014
F0.960429138778732
aF-0.1920858277557464
aF0.2016901191435337
abababag1
(g2
g3
Ntp4015
Rp4016
(lp4017
I0
ag1
(g7
g3
Ntp4018
Rp4019
(lp4020
g1
(g11
g3
Ntp4021
Rp4022
(lp4023
F0.13949671052838708
aF0.01134499051384714
aF0.062456329685193025
abag1
(g15
g3
Ntp4024
Rp4025
(lp4026
F-0.3794099300970711
aF0.011454509012787148
aF0.9251458435454457
aF0.004697588487435448
ababa(F-0.3490658503988659
F0.9816269829923085
F0.4992500000000004
F0.4992500000000004
F-0.3490658503988659
F0.7325000000000006
F1.5707963267948966
F0.07325000000000005
F-0.3490658503988659
F1.4268189152570918
F0.002875
F1.5707963267948966
F1.0471975511965976
F0.19625000000000004
F0.0
F0.5235987755982988
F1.5707963267948966
tp4027
aF-1.0
aF0.0034494075273378754
ag1
(g20
g3
Ntp4028
Rp4029
(lp4030
g1
(g24
g3
Ntp4031
Rp4032
(lp4033
I0
ag1
(g28
g3
Ntp4034
Rp4035
(lp4036
I0
aI0
abaS'shadowhandnew'
p4037
abag1
(g33
g3
Ntp4038
Rp4039
(lp4040
F0.960429138778732
aF-0.1920858277557464
aF0.2016901191435337
abababag1
(g2
g3
Ntp4041
Rp4042
(lp4043
I0
ag1
(g7
g3
Ntp4044
Rp4045
(lp4046
g1
(g11
g3
Ntp4047
Rp4048
(lp4049
F0.13354691914388628
aF-0.018179540001879504
aF-0.05202841575300071
abag1
(g15
g3
Ntp4050
Rp4051
(lp4052
F0.23104383733224318
aF0.4401018536584213
aF0.8596143577792699
aF-0.11828888171314712
ababa(F-0.3490658503988659
F0.155
F0.4988750000000004
F1.5707963267948966
F-0.3490658503988659
F1.258750000000001
F0.39595239020307277
F0.32333216319188507
F-0.3490658503988659
F1.468750000000001
F0.5460122324879059
F1.5707963267948966
F1.0471975511965976
F1.2217304763960306
F0.0
F-0.34359877559829866
F0.18000000000000002
tp4053
aF-1.0
aF0.00012097480175540386
ag1
(g20
g3
Ntp4054
Rp4055
(lp4056
g1
(g24
g3
Ntp4057
Rp4058
(lp4059
I0
ag1
(g28
g3
Ntp4060
Rp4061
(lp4062
I0
aI0
abaS'shadowhandnew'
p4063
abag1
(g33
g3
Ntp4064
Rp4065
(lp4066
F0.960429138778732
aF-0.1920858277557464
aF0.2016901191435337
abababag1
(g2
g3
Ntp4067
Rp4068
(lp4069
I0
ag1
(g7
g3
Ntp4070
Rp4071
(lp4072
g1
(g11
g3
Ntp4073
Rp4074
(lp4075
F0.13351036047343118
aF-0.018101293715181488
aF0.06729092079757397
abag1
(g15
g3
Ntp4076
Rp4077
(lp4078
F-0.2949753594644118
aF0.4679242435613739
aF0.8157238869249539
aF0.16920691444619615
ababa(F-0.3490658503988659
F0.19000000000000003
F1.5707963267948966
F1.276720308106846
F-0.3490658503988659
F0.7828531347726382
F1.5707963267948966
F0.8788759891897322
F-0.3490658503988659
F1.5707963267948966
F1.5707963267948966
F1.5707963267948966
F0.025302448803403165
F1.2204296009698725
F0.0
F0.5235987755982988
F1.0725000000000007
tp4079
aF-1.0
aF0.0026764998793199967
ag1
(g20
g3
Ntp4080
Rp4081
(lp4082
g1
(g24
g3
Ntp4083
Rp4084
(lp4085
I0
ag1
(g28
g3
Ntp4086
Rp4087
(lp4088
I0
aI0
abaS'shadowhandnew'
p4089
abag1
(g33
g3
Ntp4090
Rp4091
(lp4092
F0.960429138778732
aF-0.1920858277557464
aF0.2016901191435337
abababag1
(g2
g3
Ntp4093
Rp4094
(lp4095
I0
ag1
(g7
g3
Ntp4096
Rp4097
(lp4098
g1
(g11
g3
Ntp4099
Rp4100
(lp4101
F0.15368066387656046
aF0.0050722857573282844
aF0.0499433049320144
abag1
(g15
g3
Ntp4102
Rp4103
(lp4104
F-0.3925909812538681
aF0.06824964546047739
aF0.9167115119814307
aF0.029228601289889966
ababa(F-0.3490658503988659
F1.1262500000000006
F0.11262500000000009
F0.9624077980664565
F-0.3490658503988659
F0.7960183135280363
F1.525037211872815
F0.01762500000000001
F-0.3490658503988659
F1.447241232134889
F1.2390915623183587
F1.5707963267948966
F-0.386892475780046
F1.2217304763960306
F0.0
F0.5235987755982988
F0.08
tp4105
aF-1.0
aF0.09128061711987424
ag1
(g20
g3
Ntp4106
Rp4107
(lp4108
g1
(g24
g3
Ntp4109
Rp4110
(lp4111
I0
ag1
(g28
g3
Ntp4112
Rp4113
(lp4114
I0
aI0
abaS'shadowhandnew'
p4115
abag1
(g33
g3
Ntp4116
Rp4117
(lp4118
F0.960429138778732
aF-0.1920858277557464
aF0.2016901191435337
abababag1
(g2
g3
Ntp4119
Rp4120
(lp4121
I0
ag1
(g7
g3
Ntp4122
Rp4123
(lp4124
g1
(g11
g3
Ntp4125
Rp4126
(lp4127
F0.1344928974643646
aF0.0053717817398653235
aF-0.0642140981331536
abag1
(g15
g3
Ntp4128
Rp4129
(lp4130
F0.15542896127088357
aF0.07110380346006483
aF0.9852209182105253
aF-0.011217372784045368
ababa(F-0.3490658503988659
F0.8781896096806624
F0.024312500000000015
F0.024312500000000015
F-0.3490658503988659
F0.8181250000000005
F0.08181250000000007
F1.5707963267948966
F-0.3490658503988659
F1.5707963267948966
F0.0058125
F1.5707963267948966
F0.0654208672919429
F1.2217304763960306
F0.0
F0.24115549175353923
F0.6219663059132162
tp4131
aF-1.0
aF0.0001854455459182116
ag1
(g20
g3
Ntp4132
Rp4133
(lp4134
g1
(g24
g3
Ntp4135
Rp4136
(lp4137
I0
ag1
(g28
g3
Ntp4138
Rp4139
(lp4140
I0
aI0
abaS'shadowhandnew'
p4141
abag1
(g33
g3
Ntp4142
Rp4143
(lp4144
F0.960429138778732
aF-0.1920858277557464
aF0.2016901191435337
abababag1
(g2
g3
Ntp4145
Rp4146
(lp4147
I0
ag1
(g7
g3
Ntp4148
Rp4149
(lp4150
g1
(g11
g3
Ntp4151
Rp4152
(lp4153
F0.154290225192864
aF0.03721668283464597
aF0.05225943425835844
abag1
(g15
g3
Ntp4154
Rp4155
(lp4156
F-0.3997247443565096
aF-0.24344188112338297
aF0.8767192956481046
aF-0.11099304438802952
ababa(F0.0683385038828849
F0.42500000000000016
F1.5707963267948966
F0.04250000000000003
F-0.3490658503988659
F1.0750000000000006
F0.10750000000000008
F1.5707963267948966
F-0.3490658503988659
F1.1700000000000008
F1.5707963267948966
F1.5707963267948966
F-0.3185406007693341
F1.2217304763960306
F0.0
F-0.27484877559829857
F1.5707963267948966
tp4157
aF-1.0
aF0.15769478443916932
ag1
(g20
g3
Ntp4158
Rp4159
(lp4160
g1
(g24
g3
Ntp4161
Rp4162
(lp4163
I0
ag1
(g28
g3
Ntp4164
Rp4165
(lp4166
I0
aI0
abaS'shadowhandnew'
p4167
abag1
(g33
g3
Ntp4168
Rp4169
(lp4170
F0.960429138778732
aF-0.1920858277557464
aF0.2016901191435337
abababag1
(g2
g3
Ntp4171
Rp4172
(lp4173
I0
ag1
(g7
g3
Ntp4174
Rp4175
(lp4176
g1
(g11
g3
Ntp4177
Rp4178
(lp4179
F0.1414440072112896
aF0.028646637264179327
aF-0.04547754009417512
abag1
(g15
g3
Ntp4180
Rp4181
(lp4182
F0.13063281105842034
aF-0.3435613171361427
aF0.9287440480261445
aF0.04832373432035642
ababa(F-0.3490658503988659
F0.5387280188193152
F0.03775000000000003
F0.41525000000000034
F-0.3490658503988659
F0.2762500000000001
F0.6875739408194381
F0.5479162050520967
F-0.3490658503988659
F0.5825000000000004
F0.058250000000000045
F0.4982500000000004
F0.35432022444283695
F0.3125000000000001
F0.0
F-0.2110987755982985
F0.5869090358878213
tp4183
aF-1.0
aF0.15249153407286076
ag1
(g20
g3
Ntp4184
Rp4185
(lp4186
g1
(g24
g3
Ntp4187
Rp4188
(lp4189
I0
ag1
(g28
g3
Ntp4190
Rp4191
(lp4192
I0
aI0
abaS'shadowhandnew'
p4193
abag1
(g33
g3
Ntp4194
Rp4195
(lp4196
F0.960429138778732
aF-0.1920858277557464
aF0.2016901191435337
abababag1
(g2
g3
Ntp4197
Rp4198
(lp4199
I0
ag1
(g7
g3
Ntp4200
Rp4201
(lp4202
g1
(g11
g3
Ntp4203
Rp4204
(lp4205
F0.1594805788551726
aF0.0022575873084098477
aF-0.012790856543002976
abag1
(g15
g3
Ntp4206
Rp4207
(lp4208
F-0.10476517600328987
aF0.10515900199978964
aF0.9888587955245312
aF0.01114112692600808
ababa(F-0.3490658503988659
F0.4641221106430863
F1.3454862042608315
F0.004375
F-0.3490658503988659
F0.6383028399282117
F1.5707963267948966
F0.05187500000000004
F-0.3490658503988659
F1.5707963267948966
F1.5707963267948966
F1.5707963267948966
F0.3199062734797259
F1.2217304763960306
F0.0
F-0.5023487755982988
F1.0332952392621608
tp4209
aF-1.0
aF0.02733065767394284
ag1
(g20
g3
Ntp4210
Rp4211
(lp4212
g1
(g24
g3
Ntp4213
Rp4214
(lp4215
I0
ag1
(g28
g3
Ntp4216
Rp4217
(lp4218
I0
aI0
abaS'shadowhandnew'
p4219
abag1
(g33
g3
Ntp4220
Rp4221
(lp4222
F0.960429138778732
aF-0.1920858277557464
aF0.2016901191435337
abababag1
(g2
g3
Ntp4223
Rp4224
(lp4225
I0
ag1
(g7
g3
Ntp4226
Rp4227
(lp4228
g1
(g11
g3
Ntp4229
Rp4230
(lp4231
F0.10780964824685613
aF0.06181481548151159
aF0.10124131533563975
abag1
(g15
g3
Ntp4232
Rp4233
(lp4234
F-0.2756618449248443
aF0.46543999700660804
aF0.8266098123531764
aF0.15521718513285268
ababa(F-0.3490658503988659
F1.542500000000001
F1.5707963267948966
F0.4982500000000004
F-0.3490658503988659
F1.502500000000001
F1.5707963267948966
F1.2060017163307037
F-0.3490658503988659
F1.5707963267948966
F1.5707963267948966
F1.2428723209437562
F1.0471975511965976
F0.35250000000000015
F0.0
F0.014243220153892032
F1.5707963267948966
tp4235
aF-1.0
aF0.0
ag1
(g20
g3
Ntp4236
Rp4237
(lp4238
g1
(g24
g3
Ntp4239
Rp4240
(lp4241
I0
ag1
(g28
g3
Ntp4242
Rp4243
(lp4244
I0
aI0
abaS'shadowhandnew'
p4245
abag1
(g33
g3
Ntp4246
Rp4247
(lp4248
F0.960429138778732
aF-0.1920858277557464
aF0.2016901191435337
abababag1
(g2
g3
Ntp4249
Rp4250
(lp4251
I0
ag1
(g7
g3
Ntp4252
Rp4253
(lp4254
g1
(g11
g3
Ntp4255
Rp4256
(lp4257
F0.08623602018746615
aF0.05366453033069538
aF0.11252199915772075
abag1
(g15
g3
Ntp4258
Rp4259
(lp4260
F-0.3691316592066409
aF0.380278570385486
aF0.8310219177102264
aF0.16891595354536873
ababa(F-0.3490658503988659
F1.542500000000001
F1.5707963267948966
F0.4982500000000004
F-0.3490658503988659
F1.502500000000001
F1.5707963267948966
F1.5707963267948966
F-0.3490658503988659
F1.5707963267948966
F1.5707963267948966
F1.1888563684755196
F0.19400288278001168
F0.6651359099727707
F0.0
F-0.09109877559829849
F1.5707963267948966
tp4261
aF-1.0
aF0.0
ag1
(g20
g3
Ntp4262
Rp4263
(lp4264
g1
(g24
g3
Ntp4265
Rp4266
(lp4267
I0
ag1
(g28
g3
Ntp4268
Rp4269
(lp4270
I0
aI0
abaS'shadowhandnew'
p4271
abag1
(g33
g3
Ntp4272
Rp4273
(lp4274
F0.960429138778732
aF-0.1920858277557464
aF0.2016901191435337
abababag1
(g2
g3
Ntp4275
Rp4276
(lp4277
I0
ag1
(g7
g3
Ntp4278
Rp4279
(lp4280
g1
(g11
g3
Ntp4281
Rp4282
(lp4283
F0.14351194610202037
aF-0.0026660385629947835
aF0.05543926573229467
abag1
(g15
g3
Ntp4284
Rp4285
(lp4286
F-0.3320396630157962
aF0.22927797077251524
aF0.9111532298201549
aF0.08355277428723826
ababa(F-0.3490658503988659
F0.5388055224939988
F1.5707963267948966
F0.10763094107117337
F-0.3490658503988659
F0.8237500000000005
F0.4998750000000004
F1.5707963267948966
F-0.3490658503988659
F1.0387500000000007
F0.5740190046543141
F1.5707963267948966
F0.7077637952580428
F0.8237500000000005
F0.0
F0.30015122440170167
F1.514104539273855
tp4287
aF-1.0
aF0.0
ag1
(g20
g3
Ntp4288
Rp4289
(lp4290
g1
(g24
g3
Ntp4291
Rp4292
(lp4293
I0
ag1
(g28
g3
Ntp4294
Rp4295
(lp4296
I0
aI0
abaS'shadowhandnew'
p4297
abag1
(g33
g3
Ntp4298
Rp4299
(lp4300
F0.960429138778732
aF-0.1920858277557464
aF0.2016901191435337
abababa.