(lp0
ccopy_reg
_reconstructor
p1
(cgraspit_interface.msg._Grasp
Grasp
p2
c__builtin__
object
p3
Ntp4
Rp5
(lp6
I0
ag1
(cgeometry_msgs.msg._Pose
Pose
p7
g3
Ntp8
Rp9
(lp10
g1
(cgeometry_msgs.msg._Point
Point
p11
g3
Ntp12
Rp13
(lp14
F0.08358243117387712
aF-0.03344553110473949
aF-0.06625374632201891
abag1
(cgeometry_msgs.msg._Quaternion
Quaternion
p15
g3
Ntp16
Rp17
(lp18
F0.06410126947828666
aF0.2630910118749576
aF0.9624796776647135
aF-0.017521894997752488
ababa(F0.14840030431363088
F0.41965943421571505
F1.5707963267948966
F0.03062500000000002
F-0.3490658503988659
F0.8475000000000006
F0.4380403771047684
F1.5707963267948966
F-0.3490658503988659
F1.5707963267948966
F1.5707963267948966
F1.5707963267948966
F0.5426487244429614
F1.2217304763960306
F0.0
F-0.5198487755982988
F0.00375
tp19
aF-1.0
aF0.09226473752525802
ag1
(cgeometry_msgs.msg._Vector3Stamped
Vector3Stamped
p20
g3
Ntp21
Rp22
(lp23
g1
(cstd_msgs.msg._Header
Header
p24
g3
Ntp25
Rp26
(lp27
I0
ag1
(cgenpy.rostime
Time
p28
g3
Ntp29
Rp30
(lp31
I0
aI0
abaS'shadowhandnew'
p32
abag1
(cgeometry_msgs.msg._Vector3
Vector3
p33
g3
Ntp34
Rp35
(lp36
F0.960429138778732
aF-0.1920858277557464
aF0.2016901191435337
abababag1
(g2
g3
Ntp37
Rp38
(lp39
I0
ag1
(g7
g3
Ntp40
Rp41
(lp42
g1
(g11
g3
Ntp43
Rp44
(lp45
F0.06680949364418955
aF-0.0023063675823928984
aF0.035324058286852145
abag1
(g15
g3
Ntp46
Rp47
(lp48
F-0.4538325306404532
aF-0.2535766030844549
aF0.8432739603049799
aF-0.13646966099535127
ababa(F-0.3490658503988659
F1.4987500000000011
F0.14987500000000012
F1.5707963267948966
F-0.3490658503988659
F1.4987500000000011
F0.4998750000000004
F0.4998750000000004
F-0.3490658503988659
F1.5707963267948966
F0.35508530850510756
F1.5707963267948966
F0.13106860869052986
F1.2217304763960306
F0.0
F-0.13484877559829847
F1.5707963267948966
tp49
aF-1.0
aF0.0
ag1
(g20
g3
Ntp50
Rp51
(lp52
g1
(g24
g3
Ntp53
Rp54
(lp55
I0
ag1
(g28
g3
Ntp56
Rp57
(lp58
I0
aI0
abaS'shadowhandnew'
p59
abag1
(g33
g3
Ntp60
Rp61
(lp62
F0.960429138778732
aF-0.1920858277557464
aF0.2016901191435337
abababag1
(g2
g3
Ntp63
Rp64
(lp65
I0
ag1
(g7
g3
Ntp66
Rp67
(lp68
g1
(g11
g3
Ntp69
Rp70
(lp71
F0.043001129250707794
aF-0.010343222966010706
aF0.05435637514792148
abag1
(g15
g3
Ntp72
Rp73
(lp74
F-0.36745661875664015
aF0.1612641317541351
aF0.9136536421817003
aF0.06485780808534787
ababa(F-0.3490658503988659
F1.5412500000000011
F0.49812500000000043
F0.49812500000000043
F-0.3490658503988659
F1.0712500000000007
F1.5707963267948966
F0.10712500000000008
F-0.3490658503988659
F1.5707963267948966
F1.5707963267948966
F0.7589383315883453
F0.024052448803403167
F1.2217304763960306
F0.0
F0.5235987755982988
F1.5707963267948966
tp75
aF-1.0
aF0.006676150464727012
ag1
(g20
g3
Ntp76
Rp77
(lp78
g1
(g24
g3
Ntp79
Rp80
(lp81
I0
ag1
(g28
g3
Ntp82
Rp83
(lp84
I0
aI0
abaS'shadowhandnew'
p85
abag1
(g33
g3
Ntp86
Rp87
(lp88
F0.960429138778732
aF-0.1920858277557464
aF0.2016901191435337
abababag1
(g2
g3
Ntp89
Rp90
(lp91
I0
ag1
(g7
g3
Ntp92
Rp93
(lp94
g1
(g11
g3
Ntp95
Rp96
(lp97
F0.07267822102096418
aF-0.0288093164805703
aF0.020232281926445318
abag1
(g15
g3
Ntp98
Rp99
(lp100
F-0.25532948725791565
aF-0.47151981163106993
aF0.8315741117564511
aF-0.14477712814004767
ababa(F-0.3490658503988659
F1.5450000000000013
F1.444314016941594
F1.4785154021896731
F-0.3490658503988659
F1.325000000000001
F1.5707963267948966
F1.5707963267948966
F-0.3490658503988659
F1.5707963267948966
F1.5707963267948966
F0.5308802938863343
F-0.09719755119659683
F0.9500000000000006
F0.0
F0.42640122440170175
F1.5707963267948966
tp101
aF-1.0
aF0.0
ag1
(g20
g3
Ntp102
Rp103
(lp104
g1
(g24
g3
Ntp105
Rp106
(lp107
I0
ag1
(g28
g3
Ntp108
Rp109
(lp110
I0
aI0
abaS'shadowhandnew'
p111
abag1
(g33
g3
Ntp112
Rp113
(lp114
F0.960429138778732
aF-0.1920858277557464
aF0.2016901191435337
abababag1
(g2
g3
Ntp115
Rp116
(lp117
I0
ag1
(g7
g3
Ntp118
Rp119
(lp120
g1
(g11
g3
Ntp121
Rp122
(lp123
F0.03625920287825224
aF-0.014477116611748763
aF0.056200410077364205
abag1
(g15
g3
Ntp124
Rp125
(lp126
F-0.4436866036841627
aF0.13478012454862473
aF0.8833991984336075
aF0.06769321934086187
ababa(F0.3490658503988659
F1.5455289882270842
F0.09300000000000007
F1.5707963267948966
F-0.3490658503988659
F0.9300000000000006
F1.5707963267948966
F0.09300000000000007
F-0.3490658503988659
F1.5707963267948966
F1.4396195872846844
F0.5160129351862742
F0.21449260728643244
F1.2217304763960306
F0.0
F-0.4835987755982988
F1.5707963267948966
tp127
aF-1.0
aF0.0
ag1
(g20
g3
Ntp128
Rp129
(lp130
g1
(g24
g3
Ntp131
Rp132
(lp133
I0
ag1
(g28
g3
Ntp134
Rp135
(lp136
I0
aI0
abaS'shadowhandnew'
p137
abag1
(g33
g3
Ntp138
Rp139
(lp140
F0.960429138778732
aF-0.1920858277557464
aF0.2016901191435337
abababag1
(g2
g3
Ntp141
Rp142
(lp143
I0
ag1
(g7
g3
Ntp144
Rp145
(lp146
g1
(g11
g3
Ntp147
Rp148
(lp149
F0.0838382351686016
aF-0.011532205887945601
aF-0.0632451391656247
abag1
(g15
g3
Ntp150
Rp151
(lp152
F0.06875947928162711
aF-0.22264209586212497
aF0.9723449761245764
aF0.015744159689768857
ababa(F-0.3490658503988659
F0.412894934651863
F1.5707963267948966
F0.01850000000000001
F-0.3490658503988659
F0.5425000000000003
F1.5707963267948966
F0.05425000000000004
F-0.3490658503988659
F0.17500000000000002
F1.5707963267948966
F0.8327960748584011
F-0.8596975511965975
F0.18750000000000003
F0.0
F-0.33609877559829865
F1.32253504032521
tp153
aF-1.0
aF0.3047609068535877
ag1
(g20
g3
Ntp154
Rp155
(lp156
g1
(g24
g3
Ntp157
Rp158
(lp159
I0
ag1
(g28
g3
Ntp160
Rp161
(lp162
I0
aI0
abaS'shadowhandnew'
p163
abag1
(g33
g3
Ntp164
Rp165
(lp166
F0.960429138778732
aF-0.1920858277557464
aF0.2016901191435337
abababag1
(g2
g3
Ntp167
Rp168
(lp169
I0
ag1
(g7
g3
Ntp170
Rp171
(lp172
g1
(g11
g3
Ntp173
Rp174
(lp175
F0.04298968860205011
aF-0.018990914310346725
aF0.05107638980408748
abag1
(g15
g3
Ntp176
Rp177
(lp178
F-0.45621332504879136
aF-0.11225698918863018
aF0.8808447094670151
aF-0.05814093420473563
ababa(F0.3490658503988659
F1.5520593744483129
F0.016500000000000008
F1.5707963267948966
F-0.3490658503988659
F0.9470781389330171
F1.5707963267948966
F0.016500000000000008
F-0.3245962757914264
F1.5707963267948966
F1.5707963267948966
F0.9990938255117761
F0.12780244880340313
F1.2217304763960306
F0.0
F0.5235987755982988
F1.5707963267948966
tp179
aF-1.0
aF0.0
ag1
(g20
g3
Ntp180
Rp181
(lp182
g1
(g24
g3
Ntp183
Rp184
(lp185
I0
ag1
(g28
g3
Ntp186
Rp187
(lp188
I0
aI0
abaS'shadowhandnew'
p189
abag1
(g33
g3
Ntp190
Rp191
(lp192
F0.960429138778732
aF-0.1920858277557464
aF0.2016901191435337
abababag1
(g2
g3
Ntp193
Rp194
(lp195
I0
ag1
(g7
g3
Ntp196
Rp197
(lp198
g1
(g11
g3
Ntp199
Rp200
(lp201
F0.02775601887155866
aF-0.0058952655516945
aF0.06217101597346564
abag1
(g15
g3
Ntp202
Rp203
(lp204
F-0.4314079593173858
aF0.2796340737972126
aF0.8457823730265284
aF0.14263286748431553
ababa(F-0.3490658503988659
F1.5488926548066377
F1.5707963267948966
F1.5707963267948966
F0.25320817267261203
F1.202500000000001
F1.5707963267948966
F1.4954578058629746
F-0.3490658503988659
F1.2095023106852618
F1.5707963267948966
F0.6559773812256606
F0.0803024488034031
F1.2217304763960306
F0.0
F0.5235987755982988
F1.5707963267948966
tp205
aF-1.0
aF0.0
ag1
(g20
g3
Ntp206
Rp207
(lp208
g1
(g24
g3
Ntp209
Rp210
(lp211
I0
ag1
(g28
g3
Ntp212
Rp213
(lp214
I0
aI0
abaS'shadowhandnew'
p215
abag1
(g33
g3
Ntp216
Rp217
(lp218
F0.960429138778732
aF-0.1920858277557464
aF0.2016901191435337
abababag1
(g2
g3
Ntp219
Rp220
(lp221
I0
ag1
(g7
g3
Ntp222
Rp223
(lp224
g1
(g11
g3
Ntp225
Rp226
(lp227
F0.05866005367165628
aF-0.03439880886291983
aF0.038324085026871596
abag1
(g15
g3
Ntp228
Rp229
(lp230
F-0.31961114493800663
aF-0.37803589885112454
aF0.8573667201492521
aF-0.14092509496804706
ababa(F0.3490658503988659
F1.547795594039098
F1.5707963267948966
F0.9842336019260574
F-0.3490658503988659
F1.0987500000000008
F1.5707963267948966
F0.10987500000000008
F-0.3490658503988659
F1.5707963267948966
F0.07587500000000005
F1.5707963267948966
F-0.288447551196597
F1.2217304763960306
F0.0
F0.5235987755982988
F1.5707963267948966
tp231
aF-1.0
aF0.0
ag1
(g20
g3
Ntp232
Rp233
(lp234
g1
(g24
g3
Ntp235
Rp236
(lp237
I0
ag1
(g28
g3
Ntp238
Rp239
(lp240
I0
aI0
abaS'shadowhandnew'
p241
abag1
(g33
g3
Ntp242
Rp243
(lp244
F0.960429138778732
aF-0.1920858277557464
aF0.2016901191435337
abababag1
(g2
g3
Ntp245
Rp246
(lp247
I0
ag1
(g7
g3
Ntp248
Rp249
(lp250
g1
(g11
g3
Ntp251
Rp252
(lp253
F0.06943627488581827
aF-0.014173150893414548
aF0.03535628315692984
abag1
(g15
g3
Ntp254
Rp255
(lp256
F-0.49243059035253484
aF-0.04384740014468287
aF0.8688912504229309
aF-0.024849831469887916
ababa(F-0.34531990614683394
F1.5475000000000012
F0.4987500000000004
F0.4987500000000004
F-0.3490658503988659
F1.0275000000000007
F1.5707963267948966
F1.5707963267948966
F-0.3490658503988659
F1.5707963267948966
F0.08225000000000006
F1.5707963267948966
F-0.2246975511965969
F1.2217304763960306
F0.0
F0.5235987755982988
F1.067171861841086
tp257
aF-1.0
aF0.0
ag1
(g20
g3
Ntp258
Rp259
(lp260
g1
(g24
g3
Ntp261
Rp262
(lp263
I0
ag1
(g28
g3
Ntp264
Rp265
(lp266
I0
aI0
abaS'shadowhandnew'
p267
abag1
(g33
g3
Ntp268
Rp269
(lp270
F0.960429138778732
aF-0.1920858277557464
aF0.2016901191435337
abababag1
(g2
g3
Ntp271
Rp272
(lp273
I0
ag1
(g7
g3
Ntp274
Rp275
(lp276
g1
(g11
g3
Ntp277
Rp278
(lp279
F0.04648664365563651
aF-0.024175840474393955
aF0.048843891129950086
abag1
(g15
g3
Ntp280
Rp281
(lp282
F-0.42353315558533694
aF-0.41513022205563727
aF0.7723074008418709
aF-0.22765729388894582
ababa(F-0.3490658503988659
F1.5478296658239863
F1.5707963267948966
F1.5707963267948966
F-0.3490658503988659
F1.495714076500441
F1.5707963267948966
F0.9033263325057612
F-0.3490658503988659
F1.4450000000000007
F0.1445000000000001
F1.5707963267948966
F0.07530244880340317
F1.2217304763960306
F0.0
F0.5235987755982988
F1.5707963267948966
tp283
aF-1.0
aF0.0
ag1
(g20
g3
Ntp284
Rp285
(lp286
g1
(g24
g3
Ntp287
Rp288
(lp289
I0
ag1
(g28
g3
Ntp290
Rp291
(lp292
I0
aI0
abaS'shadowhandnew'
p293
abag1
(g33
g3
Ntp294
Rp295
(lp296
F0.960429138778732
aF-0.1920858277557464
aF0.2016901191435337
abababag1
(g2
g3
Ntp297
Rp298
(lp299
I0
ag1
(g7
g3
Ntp300
Rp301
(lp302
g1
(g11
g3
Ntp303
Rp304
(lp305
F0.0624985846144037
aF-0.03788348461257692
aF0.03607885914773251
abag1
(g15
g3
Ntp306
Rp307
(lp308
F-0.41138365773657914
aF0.3050848402861573
aF0.84597683808088
aF0.14835739214990223
ababa(F-0.3490658503988659
F1.5456034867856265
F0.3013750000000002
F1.5707963267948966
F-0.3490658503988659
F1.4788616386668292
F0.5794341602787833
F0.06387500000000004
F-0.3490658503988659
F0.9137500000000006
F0.6590241052410469
F0.4973750000000004
F0.5765162353815083
F0.7237500000000004
F0.0
F0.20015122440170155
F1.5707963267948966
tp309
aF-1.0
aF0.0
ag1
(g20
g3
Ntp310
Rp311
(lp312
g1
(g24
g3
Ntp313
Rp314
(lp315
I0
ag1
(g28
g3
Ntp316
Rp317
(lp318
I0
aI0
abaS'shadowhandnew'
p319
abag1
(g33
g3
Ntp320
Rp321
(lp322
F0.960429138778732
aF-0.1920858277557464
aF0.2016901191435337
abababag1
(g2
g3
Ntp323
Rp324
(lp325
I0
ag1
(g7
g3
Ntp326
Rp327
(lp328
g1
(g11
g3
Ntp329
Rp330
(lp331
F0.03638520725114755
aF-0.034508080428904804
aF0.055133648256773124
abag1
(g15
g3
Ntp332
Rp333
(lp334
F-0.44168288397601857
aF-0.39411765968426393
aF0.7739506654925389
aF-0.2249174686663576
ababa(F-0.3490658503988659
F1.542500000000001
F1.5707963267948966
F0.4972500000000004
F-0.3490658503988659
F1.502500000000001
F0.19025000000000014
F1.3109589362573808
F-0.3490658503988659
F1.5707963267948966
F1.5707963267948966
F0.8722984525819353
F0.22530244880340322
F1.2217304763960306
F0.0
F0.5235987755982988
F1.2725000000000009
tp335
aF-1.0
aF0.0
ag1
(g20
g3
Ntp336
Rp337
(lp338
g1
(g24
g3
Ntp339
Rp340
(lp341
I0
ag1
(g28
g3
Ntp342
Rp343
(lp344
I0
aI0
abaS'shadowhandnew'
p345
abag1
(g33
g3
Ntp346
Rp347
(lp348
F0.960429138778732
aF-0.1920858277557464
aF0.2016901191435337
abababag1
(g2
g3
Ntp349
Rp350
(lp351
I0
ag1
(g7
g3
Ntp352
Rp353
(lp354
g1
(g11
g3
Ntp355
Rp356
(lp357
F0.04991984726840017
aF-0.02606884424744522
aF0.04648596783731663
abag1
(g15
g3
Ntp358
Rp359
(lp360
F-0.37866108354375067
aF-0.23751158517187695
aF0.8887996954067159
aF-0.10118859700353716
ababa(F-0.03416298445383273
F1.5548587154663893
F0.4982500000000004
F1.5707963267948966
F-0.3490658503988659
F1.502083670394926
F1.5707963267948966
F0.4982500000000004
F0.08728036583600762
F1.5707963267948966
F1.5707963267948966
F1.1909096328144988
F0.07530244880340317
F1.2187640889549587
F0.0
F0.5235987755982988
F1.5707963267948966
tp361
aF-1.0
aF0.0
ag1
(g20
g3
Ntp362
Rp363
(lp364
g1
(g24
g3
Ntp365
Rp366
(lp367
I0
ag1
(g28
g3
Ntp368
Rp369
(lp370
I0
aI0
abaS'shadowhandnew'
p371
abag1
(g33
g3
Ntp372
Rp373
(lp374
F0.960429138778732
aF-0.1920858277557464
aF0.2016901191435337
abababag1
(g2
g3
Ntp375
Rp376
(lp377
I0
ag1
(g7
g3
Ntp378
Rp379
(lp380
g1
(g11
g3
Ntp381
Rp382
(lp383
F0.08869930338813889
aF0.007161346917446022
aF0.009700916285210859
abag1
(g15
g3
Ntp384
Rp385
(lp386
F-0.379725945358705
aF-0.25612250996964153
aF0.8820728117384367
aF-0.11025888218251323
ababa(F-0.3490658503988659
F1.1425000000000007
F0.9173854351715182
F0.11425000000000009
F-0.3490658503988659
F1.502500000000001
F0.3872500000000003
F0.3872500000000003
F0.06544055692175293
F1.5707963267948966
F0.002
F1.5707963267948966
F-0.2156227891871624
F1.2217304763960306
F0.0
F0.2901512244017016
F1.5707963267948966
tp387
aF-1.0
aF0.0577719295743875
ag1
(g20
g3
Ntp388
Rp389
(lp390
g1
(g24
g3
Ntp391
Rp392
(lp393
I0
ag1
(g28
g3
Ntp394
Rp395
(lp396
I0
aI0
abaS'shadowhandnew'
p397
abag1
(g33
g3
Ntp398
Rp399
(lp400
F0.960429138778732
aF-0.1920858277557464
aF0.2016901191435337
abababa.