(lp0
ccopy_reg
_reconstructor
p1
(cgeometry_msgs.msg._Pose
Pose
p2
c__builtin__
object
p3
Ntp4
Rp5
(lp6
g1
(cgeometry_msgs.msg._Point
Point
p7
g3
Ntp8
Rp9
(lp10
F0.07257757996044086
aF0.04651701046821589
aF0.10801855749384051
abag1
(cgeometry_msgs.msg._Quaternion
Quaternion
p11
g3
Ntp12
Rp13
(lp14
F-0.42587258988209126
aF0.4167410810340323
aF0.7692384158670422
aF0.2307198910368795
ababag1
(g2
g3
Ntp15
Rp16
(lp17
g1
(g7
g3
Ntp18
Rp19
(lp20
F0.09879132665023739
aF0.046497063085981526
aF0.10017402973200949
abag1
(g11
g3
Ntp21
Rp22
(lp23
F-0.3044762406602007
aF0.33292789354028135
aF0.885062419031664
aF0.11453275074877832
ababag1
(g2
g3
Ntp24
Rp25
(lp26
g1
(g7
g3
Ntp27
Rp28
(lp29
F0.05957706008364714
aF0.03209226790096831
aF-0.10191926945419484
abag1
(g11
g3
Ntp30
Rp31
(lp32
F0.4657134415375291
aF-0.12322541883087938
aF0.8738498928890921
aF0.06567230179418909
ababag1
(g2
g3
Ntp33
Rp34
(lp35
g1
(g7
g3
Ntp36
Rp37
(lp38
F0.12966441930553285
aF0.021715996546890312
aF0.0653193644780653
abag1
(g11
g3
Ntp39
Rp40
(lp41
F-0.40611499358692565
aF-0.05050413918692943
aF0.9121481938073661
aF-0.02248591654432919
ababag1
(g2
g3
Ntp42
Rp43
(lp44
g1
(g7
g3
Ntp45
Rp46
(lp47
F0.0805903549102226
aF0.03386241689567653
aF0.10917816669659666
abag1
(g11
g3
Ntp48
Rp49
(lp50
F-0.40163656376879153
aF0.17800735846647697
aF0.8947720874218714
aF0.07990220614283294
ababag1
(g2
g3
Ntp51
Rp52
(lp53
g1
(g7
g3
Ntp54
Rp55
(lp56
F0.13240642446291187
aF0.0002793818880644423
aF-0.0487640792386735
abag1
(g11
g3
Ntp57
Rp58
(lp59
F0.12393530878905684
aF0.22881900901656171
aF0.965100236098454
aF-0.02938425821334123
ababag1
(g2
g3
Ntp60
Rp61
(lp62
g1
(g7
g3
Ntp63
Rp64
(lp65
F0.14643565692149071
aF-0.006137632870474654
aF0.011023950998425111
abag1
(g11
g3
Ntp66
Rp67
(lp68
F-0.11968211122798988
aF0.3375080508444945
aF0.9326782990104072
aF0.04330933412342868
ababag1
(g2
g3
Ntp69
Rp70
(lp71
g1
(g7
g3
Ntp72
Rp73
(lp74
F0.06767728970755982
aF0.012986449295285998
aF-0.09424653909627856
abag1
(g11
g3
Ntp75
Rp76
(lp77
F0.4918360950613568
aF0.07684462126409146
aF0.8661918261748173
aF-0.04363347391062977
ababag1
(g2
g3
Ntp78
Rp79
(lp80
g1
(g7
g3
Ntp81
Rp82
(lp83
F0.14548137659968535
aF0.02791346653515688
aF0.007629675813135684
abag1
(g11
g3
Ntp84
Rp85
(lp86
F-0.08198158438903631
aF-0.3357536641279248
aF0.9379164215868543
aF-0.02934762279037744
ababag1
(g2
g3
Ntp87
Rp88
(lp89
g1
(g7
g3
Ntp90
Rp91
(lp92
F0.09435899141609502
aF0.04296774123971857
aF0.1057357833199712
abag1
(g11
g3
Ntp93
Rp94
(lp95
F-0.3144248372606421
aF0.2502048381971334
aF0.9116400678158574
aF0.08629569751189313
ababag1
(g2
g3
Ntp96
Rp97
(lp98
g1
(g7
g3
Ntp99
Rp100
(lp101
F0.144214017073478
aF0.005461811720429672
aF-0.010706236266070234
abag1
(g11
g3
Ntp102
Rp103
(lp104
F-0.00836966914950889
aF0.242410426749484
aF0.9701354337857108
aF0.002091352402588972
ababag1
(g2
g3
Ntp105
Rp106
(lp107
g1
(g7
g3
Ntp108
Rp109
(lp110
F0.15452021879921382
aF0.04691963089682821
aF-0.00187050048394957
abag1
(g11
g3
Ntp111
Rp112
(lp113
F-0.17221854865071948
aF-0.2823731282717126
aF0.9423072105007979
aF-0.05160725694019999
ababag1
(g2
g3
Ntp114
Rp115
(lp116
g1
(g7
g3
Ntp117
Rp118
(lp119
F0.12993079719213932
aF0.027541383204667726
aF0.07224862390816893
abag1
(g11
g3
Ntp120
Rp121
(lp122
F-0.48266313240795194
aF-0.09906267785836458
aF0.8684420545072323
aF-0.055057101566745835
ababag1
(g2
g3
Ntp123
Rp124
(lp125
g1
(g7
g3
Ntp126
Rp127
(lp128
F0.13464527253335587
aF-0.010820732664583915
aF-0.034850722879445795
abag1
(g11
g3
Ntp129
Rp130
(lp131
F0.15510428710193527
aF0.46848814894241536
aF0.8656880789864544
aF-0.08393845557223574
ababag1
(g2
g3
Ntp132
Rp133
(lp134
g1
(g7
g3
Ntp135
Rp136
(lp137
F0.12804565042108693
aF0.019816061073203342
aF-0.046286974272135996
abag1
(g11
g3
Ntp138
Rp139
(lp140
F0.25335167961439276
aF-0.12503181226645327
aF0.95869087909158
aF0.033041953703526764
ababag1
(g2
g3
Ntp141
Rp142
(lp143
g1
(g7
g3
Ntp144
Rp145
(lp146
F0.1325919033990929
aF0.04407170715635614
aF-0.046941398277688534
abag1
(g11
g3
Ntp147
Rp148
(lp149
F0.11910575618488525
aF-0.4269224061747253
aF0.8946062577200464
aF0.05683943699354693
ababag1
(g2
g3
Ntp150
Rp151
(lp152
g1
(g7
g3
Ntp153
Rp154
(lp155
F0.11871174730194278
aF0.04583159412254779
aF-0.06391418237316095
abag1
(g11
g3
Ntp156
Rp157
(lp158
F0.43297233385949047
aF0.4220381878869861
aF0.7592754358989734
aF-0.24066478454015475
ababag1
(g2
g3
Ntp159
Rp160
(lp161
g1
(g7
g3
Ntp162
Rp163
(lp164
F0.13045539596106642
aF0.0591080672532922
aF-0.055981485230161096
abag1
(g11
g3
Ntp165
Rp166
(lp167
F0.4345659246078265
aF0.3923123106939031
aF0.7807439563273635
aF-0.2183629609298504
ababag1
(g2
g3
Ntp168
Rp169
(lp170
g1
(g7
g3
Ntp171
Rp172
(lp173
F0.09993689627160435
aF0.046752397426375374
aF0.0989042650036537
abag1
(g11
g3
Ntp174
Rp175
(lp176
F-0.22407051685294413
aF0.40860846576671284
aF0.8786197789741008
aF0.10420561010103861
ababag1
(g2
g3
Ntp177
Rp178
(lp179
g1
(g7
g3
Ntp180
Rp181
(lp182
F0.0843177030926672
aF0.04673817970333696
aF0.10389170092987858
abag1
(g11
g3
Ntp183
Rp184
(lp185
F-0.3081520650257949
aF0.460739814429642
aF0.8138343741043397
aF0.17445555235037674
ababag1
(g2
g3
Ntp186
Rp187
(lp188
g1
(g7
g3
Ntp189
Rp190
(lp191
F0.09925358922987607
aF-0.023538577339457644
aF-0.06963768391144592
abag1
(g11
g3
Ntp192
Rp193
(lp194
F0.3492738685699671
aF0.4003906818055663
aF0.8302553393665368
aF-0.16843734179450834
ababag1
(g2
g3
Ntp195
Rp196
(lp197
g1
(g7
g3
Ntp198
Rp199
(lp200
F0.12831529807240247
aF-0.020810716353231225
aF0.0464727824234176
abag1
(g11
g3
Ntp201
Rp202
(lp203
F-0.2156940496549726
aF0.4037527799761367
aF0.8835981992581379
aF0.09855958539257287
ababag1
(g2
g3
Ntp204
Rp205
(lp206
g1
(g7
g3
Ntp207
Rp208
(lp209
F0.11622433300423383
aF0.05612702778156824
aF0.08734336383065824
abag1
(g11
g3
Ntp210
Rp211
(lp212
F-0.13001882373230883
aF0.43965916589358245
aF0.8863608697384059
aF0.06449288268951063
ababag1
(g2
g3
Ntp213
Rp214
(lp215
g1
(g7
g3
Ntp216
Rp217
(lp218
F0.12423730053777672
aF-0.018033315323863094
aF-0.04976377079636913
abag1
(g11
g3
Ntp219
Rp220
(lp221
F0.11961279697672406
aF0.21030797833483725
aF0.9699436616954732
aF-0.025935037784749277
ababag1
(g2
g3
Ntp222
Rp223
(lp224
g1
(g7
g3
Ntp225
Rp226
(lp227
F0.07311216433409223
aF0.019373571361555184
aF0.1154118275775929
abag1
(g11
g3
Ntp228
Rp229
(lp230
F-0.35437080966123063
aF0.1727767639673138
aF0.9165736689754227
aF0.06679991342778373
ababag1
(g2
g3
Ntp231
Rp232
(lp233
g1
(g7
g3
Ntp234
Rp235
(lp236
F0.13458385183641394
aF0.0013420962689575297
aF0.05901882392084798
abag1
(g11
g3
Ntp237
Rp238
(lp239
F-0.4489416470316418
aF-0.015631312116044113
aF0.8933898136559593
aF-0.007854966442839844
ababag1
(g2
g3
Ntp240
Rp241
(lp242
g1
(g7
g3
Ntp243
Rp244
(lp245
F0.10710654771499747
aF-0.03528501692626696
aF0.11642048052139148
abag1
(g11
g3
Ntp246
Rp247
(lp248
F-0.14472204622868062
aF-0.18815416122000067
aF0.971013457911119
aF-0.028042922573676674
ababag1
(g2
g3
Ntp249
Rp250
(lp251
g1
(g7
g3
Ntp252
Rp253
(lp254
F0.1353651797625763
aF-0.029489009374756316
aF0.02982641899381475
abag1
(g11
g3
Ntp255
Rp256
(lp257
F-0.1920475885935314
aF0.37558407631141555
aF0.9031477652670465
aF0.07986513275422713
ababag1
(g2
g3
Ntp258
Rp259
(lp260
g1
(g7
g3
Ntp261
Rp262
(lp263
F0.1111499692311617
aF0.050914294443926485
aF0.11325416369222913
abag1
(g11
g3
Ntp264
Rp265
(lp266
F-0.12368473198556473
aF0.28919706736928613
aF0.9484961687902715
aF0.03771155113278127
ababag1
(g2
g3
Ntp267
Rp268
(lp269
g1
(g7
g3
Ntp270
Rp271
(lp272
F0.1024512091643366
aF0.04143588130842364
aF-0.07940919120185869
abag1
(g11
g3
Ntp273
Rp274
(lp275
F0.2200431859062842
aF-0.3991442879644945
aF0.8845369335506291
aF0.09929374051962697
ababag1
(g2
g3
Ntp276
Rp277
(lp278
g1
(g7
g3
Ntp279
Rp280
(lp281
F0.11100999285658716
aF-0.049618916139110764
aF0.10499797436239526
abag1
(g11
g3
Ntp282
Rp283
(lp284
F-0.13881873180800253
aF-0.2772213364831598
aF0.9498611659199102
aF-0.040514883376079204
ababag1
(g2
g3
Ntp285
Rp286
(lp287
g1
(g7
g3
Ntp288
Rp289
(lp290
F0.0568569756090149
aF0.04223565361970515
aF0.12398926678035889
abag1
(g11
g3
Ntp291
Rp292
(lp293
F-0.38241205368935005
aF0.2932995212542697
aF0.8665938350350931
aF0.12942772927112556
ababag1
(g2
g3
Ntp294
Rp295
(lp296
g1
(g7
g3
Ntp297
Rp298
(lp299
F0.11100267569860725
aF0.03318919011142533
aF0.11706876351399091
abag1
(g11
g3
Ntp300
Rp301
(lp302
F-0.12223705058975995
aF0.18903747314097957
aF0.9740431966106826
aF0.023723160582712993
ababag1
(g2
g3
Ntp303
Rp304
(lp305
g1
(g7
g3
Ntp306
Rp307
(lp308
F0.1396703165103398
aF0.02928740998314096
aF0.048195821877031475
abag1
(g11
g3
Ntp309
Rp310
(lp311
F-0.24097884377641837
aF-0.03683273945357868
aF0.9697880073978631
aF-0.00915242393072824
ababag1
(g2
g3
Ntp312
Rp313
(lp314
g1
(g7
g3
Ntp315
Rp316
(lp317
F0.06597695558845625
aF0.021413686199674674
aF-0.099737962705114
abag1
(g11
g3
Ntp318
Rp319
(lp320
F0.4730578293114449
aF0.07033727451386132
aF0.8774000271908458
aF-0.037922951185381054
ababag1
(g2
g3
Ntp321
Rp322
(lp323
g1
(g7
g3
Ntp324
Rp325
(lp326
F0.13521705772447892
aF0.02805009324738151
aF0.0596795935650512
abag1
(g11
g3
Ntp327
Rp328
(lp329
F-0.34701117443330026
aF0.018814824751252974
aF0.9376463949689853
aF0.006963130737472713
ababag1
(g2
g3
Ntp330
Rp331
(lp332
g1
(g7
g3
Ntp333
Rp334
(lp335
F0.10527455044973427
aF0.05600685651678929
aF0.09949045814829297
abag1
(g11
g3
Ntp336
Rp337
(lp338
F-0.2884304366409663
aF0.3162352439586517
aF0.8980463795498128
aF0.1015669920544422
ababag1
(g2
g3
Ntp339
Rp340
(lp341
g1
(g7
g3
Ntp342
Rp343
(lp344
F0.07843855365639385
aF0.04520839332665254
aF0.10685841189903686
abag1
(g11
g3
Ntp345
Rp346
(lp347
F-0.4538978491478348
aF0.3020561386189901
aF0.8215147886409202
aF0.1668900347708612
ababag1
(g2
g3
Ntp348
Rp349
(lp350
g1
(g7
g3
Ntp351
Rp352
(lp353
F0.146503753097023
aF0.016414146875777722
aF0.0445908602882422
abag1
(g11
g3
Ntp354
Rp355
(lp356
F-0.3255963056921263
aF0.1545946976656123
aF0.9312173512666146
aF0.05405339835114725
ababag1
(g2
g3
Ntp357
Rp358
(lp359
g1
(g7
g3
Ntp360
Rp361
(lp362
F0.09565725355778396
aF0.05910932529066824
aF0.10261643689450994
abag1
(g11
g3
Ntp363
Rp364
(lp365
F-0.3386055241773597
aF0.38722290026099826
aF0.8433466315719531
aF0.15547084461813748
ababag1
(g2
g3
Ntp366
Rp367
(lp368
g1
(g7
g3
Ntp369
Rp370
(lp371
F0.08819660316710258
aF0.050385180114265585
aF-0.09269482851762789
abag1
(g11
g3
Ntp372
Rp373
(lp374
F0.37162195195814524
aF-0.2430350151785532
aF0.8902463858134767
aF0.10145185442376457
ababag1
(g2
g3
Ntp375
Rp376
(lp377
g1
(g7
g3
Ntp378
Rp379
(lp380
F0.14602198246169387
aF0.02007180721925581
aF-0.035390527673800166
abag1
(g11
g3
Ntp381
Rp382
(lp383
F0.02141986165302919
aF0.10386786069054554
aF0.9943579088129512
aF-0.002237459154766082
ababag1
(g2
g3
Ntp384
Rp385
(lp386
g1
(g7
g3
Ntp387
Rp388
(lp389
F0.14634413700375604
aF0.028133694652078926
aF0.02518812353024871
abag1
(g11
g3
Ntp390
Rp391
(lp392
F-0.09694170479256181
aF-0.1981808754567933
aF0.9751607574848449
aF-0.019701358751982482
ababag1
(g2
g3
Ntp393
Rp394
(lp395
g1
(g7
g3
Ntp396
Rp397
(lp398
F0.15242359305251243
aF0.05155629327765729
aF0.05136192136106267
abag1
(g11
g3
Ntp399
Rp400
(lp401
F-0.4164782021523912
aF-0.19621230282413243
aF0.8828814019765592
aF-0.09255846474671223
ababag1
(g2
g3
Ntp402
Rp403
(lp404
g1
(g7
g3
Ntp405
Rp406
(lp407
F0.14212093128439698
aF0.027359627618309318
aF-0.02523984196442764
abag1
(g11
g3
Ntp408
Rp409
(lp410
F0.15900917575981371
aF-0.2084785605388434
aF0.9644020037942896
aF0.03437363666235696
ababag1
(g2
g3
Ntp411
Rp412
(lp413
g1
(g7
g3
Ntp414
Rp415
(lp416
F0.14020103268143946
aF0.025710862938101098
aF0.06881906095647077
abag1
(g11
g3
Ntp417
Rp418
(lp419
F-0.4896339470699823
aF0.027830169339254578
aF0.8713435106961673
aF0.015638603482934228
ababag1
(g2
g3
Ntp420
Rp421
(lp422
g1
(g7
g3
Ntp423
Rp424
(lp425
F0.15658504515020577
aF0.04216673452639975
aF-0.01818827505331315
abag1
(g11
g3
Ntp426
Rp427
(lp428
F-0.11317881569031991
aF-0.13624416194051478
aF0.9840642996139687
aF-0.015669659898440175
ababag1
(g2
g3
Ntp429
Rp430
(lp431
g1
(g7
g3
Ntp432
Rp433
(lp434
F0.11699369462039515
aF0.008201520753598458
aF-0.07209095798130238
abag1
(g11
g3
Ntp435
Rp436
(lp437
F0.2518271501549659
aF0.22935661171903357
aF0.9381836281348045
aF-0.061563877439677714
ababag1
(g2
g3
Ntp438
Rp439
(lp440
g1
(g7
g3
Ntp441
Rp442
(lp443
F0.11565692092025949
aF0.0022491215146015014
aF-0.045929315262622776
abag1
(g11
g3
Ntp444
Rp445
(lp446
F0.08260876954676004
aF0.1109493380880218
aF0.990343569201725
aF-0.009254756214418396
ababag1
(g2
g3
Ntp447
Rp448
(lp449
g1
(g7
g3
Ntp450
Rp451
(lp452
F0.10629060143167418
aF0.03663056768783112
aF0.07703713652475967
abag1
(g11
g3
Ntp453
Rp454
(lp455
F-0.14563656727759264
aF0.3104079542701915
aF0.938144373524816
aF0.04818741143830441
ababag1
(g2
g3
Ntp456
Rp457
(lp458
g1
(g7
g3
Ntp459
Rp460
(lp461
F0.1192140067233837
aF0.05059036753616898
aF0.06943358987663636
abag1
(g11
g3
Ntp462
Rp463
(lp464
F-0.03325641528573069
aF0.33922084678719355
aF0.9400421312083702
aF0.012000812495319447
ababag1
(g2
g3
Ntp465
Rp466
(lp467
g1
(g7
g3
Ntp468
Rp469
(lp470
F0.06482618477556275
aF-0.00365576832126103
aF-0.08605752706268582
abag1
(g11
g3
Ntp471
Rp472
(lp473
F0.4315409343826175
aF0.2132911450722208
aF0.8701086046431246
aF-0.10578433490811921
ababag1
(g2
g3
Ntp474
Rp475
(lp476
g1
(g7
g3
Ntp477
Rp478
(lp479
F0.10985092973541606
aF0.06207641751053976
aF0.07671220951676323
abag1
(g11
g3
Ntp480
Rp481
(lp482
F-0.10296458221943967
aF0.4511841276289102
aF0.8849153481907416
aF0.05249766014380349
ababag1
(g2
g3
Ntp483
Rp484
(lp485
g1
(g7
g3
Ntp486
Rp487
(lp488
F0.10462494133753111
aF0.03956332032407394
aF0.08592527961490035
abag1
(g11
g3
Ntp489
Rp490
(lp491
F-0.13727557726586836
aF0.2680024953245288
aF0.9528059377514303
aF0.03861247689239923
ababag1
(g2
g3
Ntp492
Rp493
(lp494
g1
(g7
g3
Ntp495
Rp496
(lp497
F0.12408320427162912
aF0.014380135206679575
aF0.022308680421008645
abag1
(g11
g3
Ntp498
Rp499
(lp500
F-0.16277976455686502
aF-0.08580935882224575
aF0.9828212025909866
aF-0.014212175306187081
ababag1
(g2
g3
Ntp501
Rp502
(lp503
g1
(g7
g3
Ntp504
Rp505
(lp506
F0.11753921375871122
aF-0.018950697325150357
aF0.04424314801067967
abag1
(g11
g3
Ntp507
Rp508
(lp509
F-0.22437241797307042
aF0.4250375882774106
aF0.8700491697626432
aF0.10961071480277586
ababag1
(g2
g3
Ntp510
Rp511
(lp512
g1
(g7
g3
Ntp513
Rp514
(lp515
F0.12574696151001433
aF0.008929115627919568
aF0.049002092728233373
abag1
(g11
g3
Ntp516
Rp517
(lp518
F-0.3970989231256185
aF0.02358466674347295
aF0.9174159335649851
aF0.01020850567715401
ababag1
(g2
g3
Ntp519
Rp520
(lp521
g1
(g7
g3
Ntp522
Rp523
(lp524
F0.12971900878031137
aF0.05496441199842022
aF0.0785502824818494
abag1
(g11
g3
Ntp525
Rp526
(lp527
F0.041167398341019415
aF0.26316226308454665
aF0.9638073039092078
aF-0.011240530828915813
ababag1
(g2
g3
Ntp528
Rp529
(lp530
g1
(g7
g3
Ntp531
Rp532
(lp533
F0.1280166423466498
aF0.024793118844055887
aF0.03410123010344156
abag1
(g11
g3
Ntp534
Rp535
(lp536
F-0.30488778677929784
aF-0.16471051821177593
aF0.9365033070451033
aF-0.053623115881256594
ababag1
(g2
g3
Ntp537
Rp538
(lp539
g1
(g7
g3
Ntp540
Rp541
(lp542
F0.12937721308738287
aF0.05938182156908473
aF0.06921357274087221
abag1
(g11
g3
Ntp543
Rp544
(lp545
F0.04355180474838353
aF0.3159718600634816
aF0.9476571943125572
aF-0.014521226492086963
ababag1
(g2
g3
Ntp546
Rp547
(lp548
g1
(g7
g3
Ntp549
Rp550
(lp551
F0.06743420174638111
aF0.03442930566170524
aF0.1113610552345454
abag1
(g11
g3
Ntp552
Rp553
(lp554
F-0.33090691888977447
aF0.21429703580785991
aF0.9157406152734343
aF0.07743718107907294
ababag1
(g2
g3
Ntp555
Rp556
(lp557
g1
(g7
g3
Ntp558
Rp559
(lp560
F0.060254462499109866
aF-0.02884407242491783
aF0.10287206695500463
abag1
(g11
g3
Ntp561
Rp562
(lp563
F-0.4314801830224534
aF-0.39674751003678727
aF0.7798941831845266
aF-0.21950245550667424
ababag1
(g2
g3
Ntp564
Rp565
(lp566
g1
(g7
g3
Ntp567
Rp568
(lp569
F0.05711990168476065
aF0.05501548838191148
aF-0.09389871718338651
abag1
(g11
g3
Ntp570
Rp571
(lp572
F0.37324280105888175
aF-0.433108982847182
aF0.7948213150957714
aF0.20338509656370618
ababag1
(g2
g3
Ntp573
Rp574
(lp575
g1
(g7
g3
Ntp576
Rp577
(lp578
F0.09761825539696332
aF-0.01671694630784769
aF-0.060314504483442354
abag1
(g11
g3
Ntp579
Rp580
(lp581
F0.27041320593608825
aF0.407091440387156
aF0.8630669945525493
aF-0.12754850110019844
ababag1
(g2
g3
Ntp582
Rp583
(lp584
g1
(g7
g3
Ntp585
Rp586
(lp587
F0.12970430805390773
aF0.05481051689348676
aF0.035990614363830165
abag1
(g11
g3
Ntp588
Rp589
(lp590
F-0.30536100411295763
aF-0.39752221019961387
aF0.8535246848189421
aF-0.14221941488371395
ababag1
(g2
g3
Ntp591
Rp592
(lp593
g1
(g7
g3
Ntp594
Rp595
(lp596
F0.1009711163002247
aF0.038674347362879245
aF0.08901478289653403
abag1
(g11
g3
Ntp597
Rp598
(lp599
F-0.24702460512658259
aF0.33675596198366964
aF0.9039387420383405
aF0.09202726320309666
ababag1
(g2
g3
Ntp600
Rp601
(lp602
g1
(g7
g3
Ntp603
Rp604
(lp605
F0.08874037639140434
aF0.00981435901070963
aF-0.08667621852341688
abag1
(g11
g3
Ntp606
Rp607
(lp608
F0.2979415701041994
aF0.050638466199014145
aF0.9531085935478624
aF-0.015829575170276822
ababag1
(g2
g3
Ntp609
Rp610
(lp611
g1
(g7
g3
Ntp612
Rp613
(lp614
F0.10967033738545162
aF0.04547203185295167
aF0.08723039627624062
abag1
(g11
g3
Ntp615
Rp616
(lp617
F-0.16997285155492894
aF0.3148288127850218
aF0.932038435080919
aF0.05741431795790386
ababag1
(g2
g3
Ntp618
Rp619
(lp620
g1
(g7
g3
Ntp621
Rp622
(lp623
F0.1059809772681046
aF0.053288485873773675
aF0.08678822585666271
abag1
(g11
g3
Ntp624
Rp625
(lp626
F-0.19744627195944212
aF0.4281705968574323
aF0.8765748096702066
aF0.09644435041882614
ababag1
(g2
g3
Ntp627
Rp628
(lp629
g1
(g7
g3
Ntp630
Rp631
(lp632
F0.1327402644517411
aF0.016318180397638927
aF0.0010426802674294037
abag1
(g11
g3
Ntp633
Rp634
(lp635
F-0.003903507231101666
aF-0.159966981537217
aF0.9871144448782709
aF-0.0006325834581876037
ababag1
(g2
g3
Ntp636
Rp637
(lp638
g1
(g7
g3
Ntp639
Rp640
(lp641
F0.09758191593260318
aF-0.0018344427184125323
aF-0.07029690214974181
abag1
(g11
g3
Ntp642
Rp643
(lp644
F0.3259354389878196
aF0.2753490904731443
aF0.8988773403463363
aF-0.09984235073016984
ababag1
(g2
g3
Ntp645
Rp646
(lp647
g1
(g7
g3
Ntp648
Rp649
(lp650
F0.10794838228562775
aF0.05816427573597991
aF-0.0702191930763481
abag1
(g11
g3
Ntp651
Rp652
(lp653
F0.1796840869956157
aF-0.4403127504423013
aF0.8750217158460871
aF0.09041740693172659
ababag1
(g2
g3
Ntp654
Rp655
(lp656
g1
(g7
g3
Ntp657
Rp658
(lp659
F0.12733871545248188
aF0.018032840718627402
aF0.05194652027545948
abag1
(g11
g3
Ntp660
Rp661
(lp662
F-0.3539519825870667
aF-0.05206050206937591
aF0.9336049131466961
aF-0.019737383193310483
ababag1
(g2
g3
Ntp663
Rp664
(lp665
g1
(g7
g3
Ntp666
Rp667
(lp668
F0.13975140835757138
aF0.02247548690731676
aF-0.019411033730711173
abag1
(g11
g3
Ntp669
Rp670
(lp671
F-0.09416481253620874
aF-0.08309431509018052
aF0.9920514674777481
aF-0.007887252687791642
ababag1
(g2
g3
Ntp672
Rp673
(lp674
g1
(g7
g3
Ntp675
Rp676
(lp677
F0.08367853217759741
aF-0.007462168058763247
aF-0.0832488364387704
abag1
(g11
g3
Ntp678
Rp679
(lp680
F0.35935480980541024
aF0.2531064504880434
aF0.8924201134790277
aF-0.1019195096590467
ababag1
(g2
g3
Ntp681
Rp682
(lp683
g1
(g7
g3
Ntp684
Rp685
(lp686
F0.10116965807016536
aF0.029347593395964676
aF-0.07772876502170072
abag1
(g11
g3
Ntp687
Rp688
(lp689
F0.23079075675564004
aF-0.16190619514321963
aF0.9586462843852933
aF0.0389783530267269
ababag1
(g2
g3
Ntp690
Rp691
(lp692
g1
(g7
g3
Ntp693
Rp694
(lp695
F0.13232749471914282
aF-0.005327394133540537
aF0.0276368226999502
abag1
(g11
g3
Ntp696
Rp697
(lp698
F-0.17345062168331637
aF0.32849502517193957
aF0.9264033341849583
aF0.06150416803721679
ababag1
(g2
g3
Ntp699
Rp700
(lp701
g1
(g7
g3
Ntp702
Rp703
(lp704
F0.13359719122715535
aF0.018582707232592387
aF0.054769409513157286
abag1
(g11
g3
Ntp705
Rp706
(lp707
F-0.42883712641194616
aF-0.035405672786394594
aF0.9025309659195263
aF-0.016822987298757024
ababag1
(g2
g3
Ntp708
Rp709
(lp710
g1
(g7
g3
Ntp711
Rp712
(lp713
F0.13027315855103472
aF0.04984823436844651
aF0.05948472382503866
abag1
(g11
g3
Ntp714
Rp715
(lp716
F-0.4152765289732354
aF-0.320652809100481
aF0.8362857298845694
aF-0.15922737984198887
ababag1
(g2
g3
Ntp717
Rp718
(lp719
g1
(g7
g3
Ntp720
Rp721
(lp722
F0.1238741101314223
aF0.015323138850992976
aF0.051429504050850866
abag1
(g11
g3
Ntp723
Rp724
(lp725
F-0.2886236093457897
aF-0.017452205109116076
aF0.9572691076017239
aF-0.005261966974214558
ababag1
(g2
g3
Ntp726
Rp727
(lp728
g1
(g7
g3
Ntp729
Rp730
(lp731
F0.13280102667101487
aF-0.0170182924476164
aF0.015022866381549036
abag1
(g11
g3
Ntp732
Rp733
(lp734
F-0.0677755472075032
aF0.4853000406749084
aF0.8708983736049907
aF0.03776729502940134
ababag1
(g2
g3
Ntp735
Rp736
(lp737
g1
(g7
g3
Ntp738
Rp739
(lp740
F0.13983239506515496
aF0.04881264473635274
aF-0.022725170190282896
abag1
(g11
g3
Ntp741
Rp742
(lp743
F-0.08398338547911471
aF-0.33132538353379415
aF0.9393043743762178
aF-0.029623866515912905
ababag1
(g2
g3
Ntp744
Rp745
(lp746
g1
(g7
g3
Ntp747
Rp748
(lp749
F0.13224097066793747
aF0.029136609007106025
aF0.0629619357800325
abag1
(g11
g3
Ntp750
Rp751
(lp752
F-0.33656672870918014
aF0.004116018431143896
aF0.9416494736436403
aF0.0014711576838846662
ababag1
(g2
g3
Ntp753
Rp754
(lp755
g1
(g7
g3
Ntp756
Rp757
(lp758
F0.08869608430948926
aF0.04707572528707425
aF0.10340735718944229
abag1
(g11
g3
Ntp759
Rp760
(lp761
F-0.4056795123898795
aF0.3218745368960527
aF0.8412662709957085
aF0.15521590450091283
ababag1
(g2
g3
Ntp762
Rp763
(lp764
g1
(g7
g3
Ntp765
Rp766
(lp767
F0.09947556073442695
aF0.031527525921437795
aF-0.07896107604536158
abag1
(g11
g3
Ntp768
Rp769
(lp770
F0.4294064613696643
aF-0.07988044478122162
aF0.8987617278982643
aF0.03816493077242157
ababag1
(g2
g3
Ntp771
Rp772
(lp773
g1
(g7
g3
Ntp774
Rp775
(lp776
F0.11326582763546403
aF0.01870911350761467
aF-0.07439573858908
abag1
(g11
g3
Ntp777
Rp778
(lp779
F0.2865205296550326
aF0.13811704535982489
aF0.9471451601565729
aF-0.04178173595306478
ababag1
(g2
g3
Ntp780
Rp781
(lp782
g1
(g7
g3
Ntp783
Rp784
(lp785
F0.1336758965653964
aF0.03151638336324291
aF-0.04445377596296123
abag1
(g11
g3
Ntp786
Rp787
(lp788
F0.21360138730516512
aF-0.3017200173931871
aF0.9265534913310995
aF0.06955649608565687
ababag1
(g2
g3
Ntp789
Rp790
(lp791
g1
(g7
g3
Ntp792
Rp793
(lp794
F0.07694089001916775
aF0.03792357956348244
aF0.1072825939770271
abag1
(g11
g3
Ntp795
Rp796
(lp797
F-0.48400524518256094
aF0.15850749915995704
aF0.8559089073778583
aF0.08963390885745352
ababag1
(g2
g3
Ntp798
Rp799
(lp800
g1
(g7
g3
Ntp801
Rp802
(lp803
F0.09867560154640537
aF0.028954909045345957
aF-0.08198048756685868
abag1
(g11
g3
Ntp804
Rp805
(lp806
F0.3918950542693427
aF0.004931741197407173
aF0.9199943103101623
aF-0.0021008010185939604
ababag1
(g2
g3
Ntp807
Rp808
(lp809
g1
(g7
g3
Ntp810
Rp811
(lp812
F0.1023332402370737
aF0.05743127366393666
aF0.09860363407466087
abag1
(g11
g3
Ntp813
Rp814
(lp815
F-0.31374778431513667
aF0.38422502372320844
aF0.8568188250855807
aF0.14069456265686825
ababag1
(g2
g3
Ntp816
Rp817
(lp818
g1
(g7
g3
Ntp819
Rp820
(lp821
F0.12638321797193494
aF0.0295186033572146
aF0.07458423870606758
abag1
(g11
g3
Ntp822
Rp823
(lp824
F-0.45296455593215723
aF-0.005326303082935271
aF0.8915085069068128
aF-0.002706229376422586
ababag1
(g2
g3
Ntp825
Rp826
(lp827
g1
(g7
g3
Ntp828
Rp829
(lp830
F0.09971598679439751
aF0.047236863398151994
aF0.10029655389191754
abag1
(g11
g3
Ntp831
Rp832
(lp833
F-0.3419151503738271
aF0.25755770716936016
aF0.8984153219378962
aF0.09802023632766732
ababag1
(g2
g3
Ntp834
Rp835
(lp836
g1
(g7
g3
Ntp837
Rp838
(lp839
F0.14262197664847862
aF0.008382706603956763
aF-0.03618923391670366
abag1
(g11
g3
Ntp840
Rp841
(lp842
F0.06955868879994068
aF0.26140178685131904
aF0.9625351130273078
aF-0.018890495834642314
ababag1
(g2
g3
Ntp843
Rp844
(lp845
g1
(g7
g3
Ntp846
Rp847
(lp848
F0.14131172117408125
aF0.034654832646802435
aF0.06469542311163753
abag1
(g11
g3
Ntp849
Rp850
(lp851
F-0.4605001415433375
aF-0.0561445365849316
aF0.8854008774735319
aF-0.029200972917512145
ababag1
(g2
g3
Ntp852
Rp853
(lp854
g1
(g7
g3
Ntp855
Rp856
(lp857
F0.1452699380963226
aF0.06480976637409376
aF0.054528599689274884
abag1
(g11
g3
Ntp858
Rp859
(lp860
F-0.36723604463368836
aF-0.37701553986162123
aF0.83392577873797
aF-0.1660264008551777
ababag1
(g2
g3
Ntp861
Rp862
(lp863
g1
(g7
g3
Ntp864
Rp865
(lp866
F0.09764116831280911
aF0.004507276920987415
aF-0.08281432226181841
abag1
(g11
g3
Ntp867
Rp868
(lp869
F0.3739605531553884
aF0.2885583469795604
aF0.8726958773233681
aF-0.12365068044671904
ababag1
(g2
g3
Ntp870
Rp871
(lp872
g1
(g7
g3
Ntp873
Rp874
(lp875
F0.07212070033052921
aF0.055392741622226196
aF0.11550390005482743
abag1
(g11
g3
Ntp876
Rp877
(lp878
F-0.42432513215035406
aF0.25444518976523456
aF0.8599076988222722
aF0.1255570672527146
ababag1
(g2
g3
Ntp879
Rp880
(lp881
g1
(g7
g3
Ntp882
Rp883
(lp884
F0.15477553951529097
aF0.026284622392518157
aF-0.0009293687519175134
abag1
(g11
g3
Ntp885
Rp886
(lp887
F-0.14147205110391672
aF0.03709555353419749
aF0.9892327504286932
aF0.00530510543958821
ababag1
(g2
g3
Ntp888
Rp889
(lp890
g1
(g7
g3
Ntp891
Rp892
(lp893
F0.06500690067909404
aF0.04567061535884713
aF0.11789285256855711
abag1
(g11
g3
Ntp894
Rp895
(lp896
F-0.45670044568028345
aF0.1540088433140018
aF0.8724717217652821
aF0.08061683333174183
ababag1
(g2
g3
Ntp897
Rp898
(lp899
g1
(g7
g3
Ntp900
Rp901
(lp902
F0.10313469685744282
aF0.05378685792981537
aF0.10691535387432143
abag1
(g11
g3
Ntp903
Rp904
(lp905
F-0.2751657168715571
aF0.22322970586128701
aF0.9328001208633039
aF0.06585029382661214
ababag1
(g2
g3
Ntp906
Rp907
(lp908
g1
(g7
g3
Ntp909
Rp910
(lp911
F0.0962033024597941
aF0.040625983701093715
aF0.09149318127460293
abag1
(g11
g3
Ntp912
Rp913
(lp914
F-0.2749907972784083
aF0.3268784432878469
aF0.8986237901025482
aF0.10002913869283626
ababag1
(g2
g3
Ntp915
Rp916
(lp917
g1
(g7
g3
Ntp918
Rp919
(lp920
F0.08273517228894872
aF0.04664540891257438
aF0.0989461863804381
abag1
(g11
g3
Ntp921
Rp922
(lp923
F-0.3339748238886912
aF0.43676029949133355
aF0.8159296169410648
aF0.17877392985322435
ababag1
(g2
g3
Ntp924
Rp925
(lp926
g1
(g7
g3
Ntp927
Rp928
(lp929
F0.10581195642293395
aF0.04491090791284082
aF0.08790732644598163
abag1
(g11
g3
Ntp930
Rp931
(lp932
F-0.19797635548693687
aF0.2978499889589982
aF0.9317109109503968
aF0.06328921836471464
ababag1
(g2
g3
Ntp933
Rp934
(lp935
g1
(g7
g3
Ntp936
Rp937
(lp938
F0.07328631540180691
aF0.0008776468218465325
aF-0.08841818070966673
abag1
(g11
g3
Ntp939
Rp940
(lp941
F0.40511321969399505
aF0.20684770050086082
aF0.885518175093241
aF-0.09463017281082853
ababag1
(g2
g3
Ntp942
Rp943
(lp944
g1
(g7
g3
Ntp945
Rp946
(lp947
F0.09587032385245918
aF0.03741765245779807
aF0.09796464103910658
abag1
(g11
g3
Ntp948
Rp949
(lp950
F-0.24964069883927867
aF0.1972856266071608
aF0.9465996505575222
aF0.0520288821870464
ababag1
(g2
g3
Ntp951
Rp952
(lp953
g1
(g7
g3
Ntp954
Rp955
(lp956
F0.11979940404246585
aF0.056141345524524745
aF0.07623636293886847
abag1
(g11
g3
Ntp957
Rp958
(lp959
F-0.0961059540945155
aF0.35836010500939003
aF0.9278814471172627
aF0.037117392430183714
ababag1
(g2
g3
Ntp960
Rp961
(lp962
g1
(g7
g3
Ntp963
Rp964
(lp965
F0.10880117072459444
aF0.06083675211632366
aF0.08476903083579479
abag1
(g11
g3
Ntp966
Rp967
(lp968
F-0.1710133241130061
aF0.43086462380123547
aF0.8821183660590592
aF0.083530277107977
ababag1
(g2
g3
Ntp969
Rp970
(lp971
g1
(g7
g3
Ntp972
Rp973
(lp974
F0.1294108983034996
aF0.017052907007200017
aF0.03217530225057506
abag1
(g11
g3
Ntp975
Rp976
(lp977
F-0.16723735138888624
aF0.080199424527543
aF0.9825545201376444
aF0.01365047848848149
ababag1
(g2
g3
Ntp978
Rp979
(lp980
g1
(g7
g3
Ntp981
Rp982
(lp983
F0.12886807661941688
aF0.017504746169518554
aF0.048932769993298424
abag1
(g11
g3
Ntp984
Rp985
(lp986
F-0.3504568362625816
aF0.01928261132907782
aF0.9363525515005264
aF0.007217071123948155
ababag1
(g2
g3
Ntp987
Rp988
(lp989
g1
(g7
g3
Ntp990
Rp991
(lp992
F0.1315160653189365
aF0.017226106484805985
aF-0.0013233135655248275
abag1
(g11
g3
Ntp993
Rp994
(lp995
F0.03277063304118357
aF-0.2597387662016884
aF0.9650824164910916
aF0.008819768807635171
ababag1
(g2
g3
Ntp996
Rp997
(lp998
g1
(g7
g3
Ntp999
Rp1000
(lp1001
F0.10191755654263233
aF0.02655521526921679
aF-0.07634320450168448
abag1
(g11
g3
Ntp1002
Rp1003
(lp1004
F0.22528638386064595
aF-0.08579596351642996
aF0.9703031909372053
aF0.019920229626151257
ababag1
(g2
g3
Ntp1005
Rp1006
(lp1007
g1
(g7
g3
Ntp1008
Rp1009
(lp1010
F0.11938823728994946
aF-0.0040059661583653075
aF-0.04916395785819168
abag1
(g11
g3
Ntp1011
Rp1012
(lp1013
F0.13619226772443324
aF0.2758157580488397
aF0.9506924412797525
aF-0.039512224912863735
ababag1
(g2
g3
Ntp1014
Rp1015
(lp1016
g1
(g7
g3
Ntp1017
Rp1018
(lp1019
F0.13796509757197764
aF0.009101551842082228
aF-0.008263244823848432
abag1
(g11
g3
Ntp1020
Rp1021
(lp1022
F-0.10828591709889916
aF0.11546971104535268
aF0.9873097373523464
aF0.012664458867003583
ababag1
(g2
g3
Ntp1023
Rp1024
(lp1025
g1
(g7
g3
Ntp1026
Rp1027
(lp1028
F0.13802459341263068
aF0.036992443220309916
aF-0.021841004173943475
abag1
(g11
g3
Ntp1029
Rp1030
(lp1031
F-0.07823860775813661
aF-0.20055836141192643
aF0.9764204054231093
aF-0.01607033905064981
ababag1
(g2
g3
Ntp1032
Rp1033
(lp1034
g1
(g7
g3
Ntp1035
Rp1036
(lp1037
F0.060494103520183244
aF0.0187349485916429
aF0.10701603291194774
abag1
(g11
g3
Ntp1038
Rp1039
(lp1040
F-0.4993371472890197
aF-0.0023852388646401555
aF0.8664033899939142
aF-0.0013746926478215668
ababag1
(g2
g3
Ntp1041
Rp1042
(lp1043
g1
(g7
g3
Ntp1044
Rp1045
(lp1046
F0.0694924845851612
aF0.020582548201529466
aF0.11324306158588689
abag1
(g11
g3
Ntp1047
Rp1048
(lp1049
F-0.37328306571481257
aF0.01600699047204606
aF0.9275570237438502
aF0.006441801768861615
ababag1
(g2
g3
Ntp1050
Rp1051
(lp1052
g1
(g7
g3
Ntp1053
Rp1054
(lp1055
F0.1409130330400356
aF0.03641933054579975
aF0.04258561948762609
abag1
(g11
g3
Ntp1056
Rp1057
(lp1058
F-0.16332490189853388
aF0.028862183818486094
aF0.9861384794760469
aF0.004780173818221028
ababag1
(g2
g3
Ntp1059
Rp1060
(lp1061
g1
(g7
g3
Ntp1062
Rp1063
(lp1064
F0.12154105561109527
aF0.0363084392123276
aF0.07683468625352262
abag1
(g11
g3
Ntp1065
Rp1066
(lp1067
F-0.4411468399620687
aF0.0
aF0.897434936689831
aF0.0
ababag1
(g2
g3
Ntp1068
Rp1069
(lp1070
g1
(g7
g3
Ntp1071
Rp1072
(lp1073
F0.1385744442451828
aF0.025967153895065948
aF-0.03344853436551165
abag1
(g11
g3
Ntp1074
Rp1075
(lp1076
F0.15657575286447495
aF0.2831407643021803
aF0.9450474662767152
aF-0.04691084831103689
ababag1
(g2
g3
Ntp1077
Rp1078
(lp1079
g1
(g7
g3
Ntp1080
Rp1081
(lp1082
F0.08370345353507304
aF0.0402310880579346
aF0.10251964508653938
abag1
(g11
g3
Ntp1083
Rp1084
(lp1085
F-0.4903967666608888
aF0.11926231105306474
aF0.8606214404298216
aF0.06795769774887138
ababag1
(g2
g3
Ntp1086
Rp1087
(lp1088
g1
(g7
g3
Ntp1089
Rp1090
(lp1091
F0.07291349073718839
aF0.04800503331499059
aF-0.10112898925196392
abag1
(g11
g3
Ntp1092
Rp1093
(lp1094
F0.41767896058662946
aF-0.10732815469651372
aF0.9008599687943711
aF0.04976213135024246
ababag1
(g2
g3
Ntp1095
Rp1096
(lp1097
g1
(g7
g3
Ntp1098
Rp1099
(lp1100
F0.09885887754386484
aF0.04838351470710815
aF0.09772168635495052
abag1
(g11
g3
Ntp1101
Rp1102
(lp1103
F-0.3693879978799372
aF0.22997548641228346
aF0.8953556918181194
aF0.0948787004579122
ababag1
(g2
g3
Ntp1104
Rp1105
(lp1106
g1
(g7
g3
Ntp1107
Rp1108
(lp1109
F0.08627686476967766
aF0.044876982891264676
aF0.10556887469767395
abag1
(g11
g3
Ntp1110
Rp1111
(lp1112
F-0.41906928362892054
aF0.1268028204717629
aF0.8971027193682146
aF0.059234205838381127
ababag1
(g2
g3
Ntp1113
Rp1114
(lp1115
g1
(g7
g3
Ntp1116
Rp1117
(lp1118
F0.09822957918337634
aF0.023491041611538418
aF-0.08214014017080672
abag1
(g11
g3
Ntp1119
Rp1120
(lp1121
F0.37665629392775224
aF0.17867693040392338
aF0.9059170579561859
aF-0.07428913036273084
ababag1
(g2
g3
Ntp1122
Rp1123
(lp1124
g1
(g7
g3
Ntp1125
Rp1126
(lp1127
F0.1434750173879673
aF0.04015678663960009
aF-0.043346212412569654
abag1
(g11
g3
Ntp1128
Rp1129
(lp1130
F0.037456859076820316
aF-0.04449581720089176
aF0.9983057240756911
aF0.0016695021517029727
ababag1
(g2
g3
Ntp1131
Rp1132
(lp1133
g1
(g7
g3
Ntp1134
Rp1135
(lp1136
F0.08086058017994849
aF0.05363018038055941
aF0.10522481163814115
abag1
(g11
g3
Ntp1137
Rp1138
(lp1139
F-0.4361952368155177
aF0.3592195737492484
aF0.8015491901586221
aF0.1954837818616156
ababag1
(g2
g3
Ntp1140
Rp1141
(lp1142
g1
(g7
g3
Ntp1143
Rp1144
(lp1145
F0.1259545989213241
aF0.031401989032127264
aF0.07696949203249678
abag1
(g11
g3
Ntp1146
Rp1147
(lp1148
F-0.4877348102004754
aF0.06463851753932971
aF0.869840786561044
aF0.03624393747771518
ababag1
(g2
g3
Ntp1149
Rp1150
(lp1151
g1
(g7
g3
Ntp1152
Rp1153
(lp1154
F0.1241008481325261
aF0.04988257873156262
aF-0.060258025817589
abag1
(g11
g3
Ntp1155
Rp1156
(lp1157
F0.43889678882438937
aF0.285969315058481
aF0.8385635982288046
aF-0.14967381644824435
ababag1
(g2
g3
Ntp1158
Rp1159
(lp1160
g1
(g7
g3
Ntp1161
Rp1162
(lp1163
F0.09541094744672757
aF0.05968048582781558
aF0.10182797022084077
abag1
(g11
g3
Ntp1164
Rp1165
(lp1166
F-0.35043780932386437
aF0.3304750116813968
aF0.866082601280416
aF0.1337181222191652
ababag1
(g2
g3
Ntp1167
Rp1168
(lp1169
g1
(g7
g3
Ntp1170
Rp1171
(lp1172
F0.11941343829899613
aF0.009406174909744276
aF-0.06328684546747662
abag1
(g11
g3
Ntp1173
Rp1174
(lp1175
F0.2729661296947793
aF0.3708320339415312
aF0.8801974805351341
aF-0.11500212998828539
ababag1
(g2
g3
Ntp1176
Rp1177
(lp1178
g1
(g7
g3
Ntp1179
Rp1180
(lp1181
F0.15399322898879764
aF0.07087558077641067
aF0.003719886544881632
abag1
(g11
g3
Ntp1182
Rp1183
(lp1184
F-0.1462154442997068
aF-0.4188881846680914
aF0.8935633874214136
aF-0.06854345522133336
ababag1
(g2
g3
Ntp1185
Rp1186
(lp1187
g1
(g7
g3
Ntp1188
Rp1189
(lp1190
F0.1378695996605576
aF0.05761259255097164
aF-0.04621068494012869
abag1
(g11
g3
Ntp1191
Rp1192
(lp1193
F0.39885128700198924
aF0.29248193265550804
aF0.8584313808975146
aF-0.13589530609017406
ababag1
(g2
g3
Ntp1194
Rp1195
(lp1196
g1
(g7
g3
Ntp1197
Rp1198
(lp1199
F0.10631870869309117
aF0.040867298516320295
aF0.08242203832731611
abag1
(g11
g3
Ntp1200
Rp1201
(lp1202
F-0.1541186793611166
aF0.24601528006185838
aF0.9561126087380966
aF0.03965594608759613
ababag1
(g2
g3
Ntp1203
Rp1204
(lp1205
g1
(g7
g3
Ntp1206
Rp1207
(lp1208
F0.12502798603324644
aF0.01775423537649749
aF0.020448172031054392
abag1
(g11
g3
Ntp1209
Rp1210
(lp1211
F-0.09260333847525766
aF0.06549721144484803
aF0.9935277896251103
aF0.006104771808045147
ababag1
(g2
g3
Ntp1212
Rp1213
(lp1214
g1
(g7
g3
Ntp1215
Rp1216
(lp1217
F0.11531364564462593
aF0.0493306560867461
aF0.07066644434671246
abag1
(g11
g3
Ntp1218
Rp1219
(lp1220
F-0.09016720338289598
aF0.33543862508169714
aF0.9371815536100073
aF0.03227289591191268
ababag1
(g2
g3
Ntp1221
Rp1222
(lp1223
g1
(g7
g3
Ntp1224
Rp1225
(lp1226
F0.09616525185391425
aF0.04037273976061548
aF0.08697476071993572
abag1
(g11
g3
Ntp1227
Rp1228
(lp1229
F-0.23709052107144094
aF0.31249676607073534
aF0.9162945987879835
aF0.08085829731928183
ababag1
(g2
g3
Ntp1230
Rp1231
(lp1232
g1
(g7
g3
Ntp1233
Rp1234
(lp1235
F0.12721244138860868
aF0.018065964386305568
aF-0.02445015586164847
abag1
(g11
g3
Ntp1236
Rp1237
(lp1238
F-0.022952352983986422
aF0.009064200762763559
aF0.9996954468477103
aF0.00020810811540723247
ababag1
(g2
g3
Ntp1239
Rp1240
(lp1241
g1
(g7
g3
Ntp1242
Rp1243
(lp1244
F0.06537273148120731
aF0.05683369007357401
aF-0.0943166027291251
abag1
(g11
g3
Ntp1245
Rp1246
(lp1247
F0.3478710287052862
aF-0.3617921908947908
aF0.8522220813416389
aF0.14768101458480817
ababag1
(g2
g3
Ntp1248
Rp1249
(lp1250
g1
(g7
g3
Ntp1251
Rp1252
(lp1253
F0.07526794347134087
aF0.018194119698134358
aF0.10301259325061161
abag1
(g11
g3
Ntp1254
Rp1255
(lp1256
F-0.35252705112052896
aF-0.006606775176033748
aF0.9357749911375877
aF-0.002488917733730123
ababag1
(g2
g3
Ntp1257
Rp1258
(lp1259
g1
(g7
g3
Ntp1260
Rp1261
(lp1262
F0.11792740709488
aF0.017788144098553716
aF0.06546270772249932
abag1
(g11
g3
Ntp1263
Rp1264
(lp1265
F-0.4619100969349455
aF0.009849740086921388
aF0.8868572189015227
aF0.0051301317747283045
ababag1
(g2
g3
Ntp1266
Rp1267
(lp1268
g1
(g7
g3
Ntp1269
Rp1270
(lp1271
F0.11970346977570344
aF0.017408543266993617
aF0.050913156721104566
abag1
(g11
g3
Ntp1272
Rp1273
(lp1274
F-0.3359728626493468
aF0.02336916403013004
aF0.9415447845120437
aF0.008338854472008923
ababag1
(g2
g3
Ntp1275
Rp1276
(lp1277
g1
(g7
g3
Ntp1278
Rp1279
(lp1280
F0.11576494561951486
aF0.04897411251361342
aF0.07701886147069553
abag1
(g11
g3
Ntp1281
Rp1282
(lp1283
F-0.07683740684688863
aF0.2765184067461589
aF0.957674979290808
aF0.022185979355482548
ababag1
(g2
g3
Ntp1284
Rp1285
(lp1286
g1
(g7
g3
Ntp1287
Rp1288
(lp1289
F0.06335186361826284
aF0.01736035335854326
aF0.10287676380686095
abag1
(g11
g3
Ntp1290
Rp1291
(lp1292
F-0.4742546918150323
aF-0.028526986299884444
aF0.8797910140275503
aF-0.015377580448485563
ababag1
(g2
g3
Ntp1293
Rp1294
(lp1295
g1
(g7
g3
Ntp1296
Rp1297
(lp1298
F0.05832692905533767
aF0.014675816649731423
aF-0.0934688479578227
abag1
(g11
g3
Ntp1299
Rp1300
(lp1301
F0.4365629906092209
aF0.047879085130024965
aF0.8980972516647903
aF-0.023273912210788967
ababag1
(g2
g3
Ntp1302
Rp1303
(lp1304
g1
(g7
g3
Ntp1305
Rp1306
(lp1307
F0.10475102087713244
aF0.035850670688017984
aF0.08956056988769227
abag1
(g11
g3
Ntp1308
Rp1309
(lp1310
F-0.1501314961199352
aF0.16011788964861207
aF0.9753026698214783
aF0.024647464907394258
ababag1
(g2
g3
Ntp1311
Rp1312
(lp1313
g1
(g7
g3
Ntp1314
Rp1315
(lp1316
F0.09006205418051783
aF-0.005530584893968925
aF-0.07222187935659431
abag1
(g11
g3
Ntp1317
Rp1318
(lp1319
F0.3046411224193784
aF0.3077068108761237
aF0.8952918473391683
aF-0.10470345342693334
ababag1
(g2
g3
Ntp1320
Rp1321
(lp1322
g1
(g7
g3
Ntp1323
Rp1324
(lp1325
F0.1012190687829104
aF0.018688253100216413
aF-0.05791377432568857
abag1
(g11
g3
Ntp1326
Rp1327
(lp1328
F0.2926691191313242
aF-0.3461466124026865
aF0.8839644142985165
aF0.11460464075647145
ababag1
(g2
g3
Ntp1329
Rp1330
(lp1331
g1
(g7
g3
Ntp1332
Rp1333
(lp1334
F0.11875944848166935
aF-0.03475920865631335
aF0.10075188949175759
abag1
(g11
g3
Ntp1335
Rp1336
(lp1337
F-0.037121352445619094
aF-0.26296710689825836
aF0.9640372259821737
aF-0.010125848249096086
ababag1
(g2
g3
Ntp1338
Rp1339
(lp1340
g1
(g7
g3
Ntp1341
Rp1342
(lp1343
F0.1317978813253971
aF0.0380234120986127
aF0.04799216792196159
abag1
(g11
g3
Ntp1344
Rp1345
(lp1346
F-0.40636102416031017
aF-0.16699464727464627
aF0.8951179488551048
aF-0.07581136763329467
ababag1
(g2
g3
Ntp1347
Rp1348
(lp1349
g1
(g7
g3
Ntp1350
Rp1351
(lp1352
F0.12220328096606738
aF0.018086124747498877
aF-0.017902090538894754
abag1
(g11
g3
Ntp1353
Rp1354
(lp1355
F0.12943246084104357
aF-0.1255985935656148
aF0.9834627567844058
aF0.016529893919445426
ababag1
(g2
g3
Ntp1356
Rp1357
(lp1358
g1
(g7
g3
Ntp1359
Rp1360
(lp1361
F0.09002322653058208
aF0.030723631717920728
aF0.10765249892085589
abag1
(g11
g3
Ntp1362
Rp1363
(lp1364
F-0.2117185541670542
aF0.093199666882675
aF0.9726651677442971
aF0.0202866303591519
ababag1
(g2
g3
Ntp1365
Rp1366
(lp1367
g1
(g7
g3
Ntp1368
Rp1369
(lp1370
F0.06736636365107629
aF0.0021945590650580106
aF-0.09918096768282388
abag1
(g11
g3
Ntp1371
Rp1372
(lp1373
F0.49565222963717925
aF0.09504019329831613
aF0.8615722953863432
aF-0.054675485697152554
ababag1
(g2
g3
Ntp1374
Rp1375
(lp1376
g1
(g7
g3
Ntp1377
Rp1378
(lp1379
F0.1462160741803925
aF-0.00620730977742112
aF-0.03233224297094568
abag1
(g11
g3
Ntp1380
Rp1381
(lp1382
F0.10430469641222553
aF0.3027666678965781
aF0.9467524727389339
aF-0.033356116078929784
ababag1
(g2
g3
Ntp1383
Rp1384
(lp1385
g1
(g7
g3
Ntp1386
Rp1387
(lp1388
F0.15986531568803428
aF0.027123198980570407
aF-0.006818965240608632
abag1
(g11
g3
Ntp1389
Rp1390
(lp1391
F-0.12368954004363233
aF-0.1914529629600223
aF0.9733728902210352
aF-0.024328527295575567
ababag1
(g2
g3
Ntp1392
Rp1393
(lp1394
g1
(g7
g3
Ntp1395
Rp1396
(lp1397
F0.13949671052838708
aF0.01134499051384714
aF0.062456329685193025
abag1
(g11
g3
Ntp1398
Rp1399
(lp1400
F-0.3794099300970711
aF0.011454509012787148
aF0.9251458435454457
aF0.004697588487435448
ababag1
(g2
g3
Ntp1401
Rp1402
(lp1403
g1
(g7
g3
Ntp1404
Rp1405
(lp1406
F0.13354691914388628
aF-0.018179540001879504
aF-0.05202841575300071
abag1
(g11
g3
Ntp1407
Rp1408
(lp1409
F0.23104383733224318
aF0.4401018536584213
aF0.8596143577792699
aF-0.11828888171314712
ababag1
(g2
g3
Ntp1410
Rp1411
(lp1412
g1
(g7
g3
Ntp1413
Rp1414
(lp1415
F0.13351036047343118
aF-0.018101293715181488
aF0.06729092079757397
abag1
(g11
g3
Ntp1416
Rp1417
(lp1418
F-0.2949753594644118
aF0.4679242435613739
aF0.8157238869249539
aF0.16920691444619615
ababag1
(g2
g3
Ntp1419
Rp1420
(lp1421
g1
(g7
g3
Ntp1422
Rp1423
(lp1424
F0.15368066387656046
aF0.0050722857573282844
aF0.0499433049320144
abag1
(g11
g3
Ntp1425
Rp1426
(lp1427
F-0.3925909812538681
aF0.06824964546047739
aF0.9167115119814307
aF0.029228601289889966
ababag1
(g2
g3
Ntp1428
Rp1429
(lp1430
g1
(g7
g3
Ntp1431
Rp1432
(lp1433
F0.1344928974643646
aF0.0053717817398653235
aF-0.0642140981331536
abag1
(g11
g3
Ntp1434
Rp1435
(lp1436
F0.15542896127088357
aF0.07110380346006483
aF0.9852209182105253
aF-0.011217372784045368
ababag1
(g2
g3
Ntp1437
Rp1438
(lp1439
g1
(g7
g3
Ntp1440
Rp1441
(lp1442
F0.154290225192864
aF0.03721668283464597
aF0.05225943425835844
abag1
(g11
g3
Ntp1443
Rp1444
(lp1445
F-0.3997247443565096
aF-0.24344188112338297
aF0.8767192956481046
aF-0.11099304438802952
ababag1
(g2
g3
Ntp1446
Rp1447
(lp1448
g1
(g7
g3
Ntp1449
Rp1450
(lp1451
F0.1414440072112896
aF0.028646637264179327
aF-0.04547754009417512
abag1
(g11
g3
Ntp1452
Rp1453
(lp1454
F0.13063281105842034
aF-0.3435613171361427
aF0.9287440480261445
aF0.04832373432035642
ababag1
(g2
g3
Ntp1455
Rp1456
(lp1457
g1
(g7
g3
Ntp1458
Rp1459
(lp1460
F0.1594805788551726
aF0.0022575873084098477
aF-0.012790856543002976
abag1
(g11
g3
Ntp1461
Rp1462
(lp1463
F-0.10476517600328987
aF0.10515900199978964
aF0.9888587955245312
aF0.01114112692600808
ababag1
(g2
g3
Ntp1464
Rp1465
(lp1466
g1
(g7
g3
Ntp1467
Rp1468
(lp1469
F0.10780964824685613
aF0.06181481548151159
aF0.10124131533563975
abag1
(g11
g3
Ntp1470
Rp1471
(lp1472
F-0.2756618449248443
aF0.46543999700660804
aF0.8266098123531764
aF0.15521718513285268
ababag1
(g2
g3
Ntp1473
Rp1474
(lp1475
g1
(g7
g3
Ntp1476
Rp1477
(lp1478
F0.08623602018746615
aF0.05366453033069538
aF0.11252199915772075
abag1
(g11
g3
Ntp1479
Rp1480
(lp1481
F-0.3691316592066409
aF0.380278570385486
aF0.8310219177102264
aF0.16891595354536873
ababag1
(g2
g3
Ntp1482
Rp1483
(lp1484
g1
(g7
g3
Ntp1485
Rp1486
(lp1487
F0.14351194610202037
aF-0.0026660385629947835
aF0.05543926573229467
abag1
(g11
g3
Ntp1488
Rp1489
(lp1490
F-0.3320396630157962
aF0.22927797077251524
aF0.9111532298201549
aF0.08355277428723826
ababa.