(lp0
ccopy_reg
_reconstructor
p1
(cgeometry_msgs.msg._Pose
Pose
p2
c__builtin__
object
p3
Ntp4
Rp5
(lp6
g1
(cgeometry_msgs.msg._Point
Point
p7
g3
Ntp8
Rp9
(lp10
F0.05491162272500632
aF0.08070143764203168
aF-0.07008793671937263
abag1
(cgeometry_msgs.msg._Quaternion
Quaternion
p11
g3
Ntp12
Rp13
(lp14
F0.381937099738611
aF-0.08378527192919852
aF0.9197246721062637
aF0.03479378637104955
ababag1
(g2
g3
Ntp15
Rp16
(lp17
g1
(g7
g3
Ntp18
Rp19
(lp20
F0.03864036072614418
aF0.0815035713215304
aF-0.08600727368207768
abag1
(g11
g3
Ntp21
Rp22
(lp23
F0.38618182760206404
aF-0.03422640785622002
aF0.9216759132331317
aF0.014340850778884771
ababag1
(g2
g3
Ntp24
Rp25
(lp26
g1
(g7
g3
Ntp27
Rp28
(lp29
F0.09153451297724448
aF0.05482845299936107
aF0.03205213172451989
abag1
(g11
g3
Ntp30
Rp31
(lp32
F-0.2196626307918436
aF0.3196118667917895
aF0.9185612924443631
aF0.07643124532817078
ababag1
(g2
g3
Ntp33
Rp34
(lp35
g1
(g7
g3
Ntp36
Rp37
(lp38
F0.02249677862357875
aF0.05320926186891769
aF-0.09048900749104609
abag1
(g11
g3
Ntp39
Rp40
(lp41
F0.4593574596293988
aF0.2882630958272904
aF0.8246903839818837
aF-0.16056426263245832
ababag1
(g2
g3
Ntp42
Rp43
(lp44
g1
(g7
g3
Ntp45
Rp46
(lp47
F0.08004362552408505
aF0.11221426237822389
aF-0.06133968816444131
abag1
(g11
g3
Ntp48
Rp49
(lp50
F0.09061201262864123
aF-0.3117459011714645
aF0.9453629523209274
aF0.029880506174401484
ababag1
(g2
g3
Ntp51
Rp52
(lp53
g1
(g7
g3
Ntp54
Rp55
(lp56
F0.06805911429848667
aF0.073901310339861
aF-0.06819972378931687
abag1
(g11
g3
Ntp57
Rp58
(lp59
F0.29208028687557835
aF-0.09945215759063564
aF0.9507180664742729
aF0.030553763248859167
ababag1
(g2
g3
Ntp60
Rp61
(lp62
g1
(g7
g3
Ntp63
Rp64
(lp65
F0.1092218146448485
aF0.06835798453807619
aF-0.004207017451302434
abag1
(g11
g3
Ntp66
Rp67
(lp68
F-0.16837431972627448
aF0.00876711912133883
aF0.9856830034431734
aF0.001497598835384344
ababag1
(g2
g3
Ntp69
Rp70
(lp71
g1
(g7
g3
Ntp72
Rp73
(lp74
F0.061373541467377196
aF0.08350117036236963
aF-0.0829847568621214
abag1
(g11
g3
Ntp75
Rp76
(lp77
F0.2597815968332097
aF-0.1524623766986633
aF0.9526490530571889
aF0.04157556190147962
ababag1
(g2
g3
Ntp78
Rp79
(lp80
g1
(g7
g3
Ntp81
Rp82
(lp83
F0.029180401843709076
aF0.08642558519264736
aF-0.09832399810859656
abag1
(g11
g3
Ntp84
Rp85
(lp86
F0.41288428160868
aF-0.19678513016209656
aF0.8845136089657325
aF0.09185781459400424
ababag1
(g2
g3
Ntp87
Rp88
(lp89
g1
(g7
g3
Ntp90
Rp91
(lp92
F0.09534821895462102
aF0.040606721392954494
aF-0.028051005361359824
abag1
(g11
g3
Ntp93
Rp94
(lp95
F0.08576925460373847
aF0.38192861846502596
aF0.9195134689906214
aF-0.035625071325534885
ababag1
(g2
g3
Ntp96
Rp97
(lp98
g1
(g7
g3
Ntp99
Rp100
(lp101
F0.11028055846375007
aF0.06549615429757824
aF-0.008697654417782476
abag1
(g11
g3
Ntp102
Rp103
(lp104
F-0.15003567457549702
aF0.014015329241735552
aF0.9885789510080849
aF0.002127093010666667
ababag1
(g2
g3
Ntp105
Rp106
(lp107
g1
(g7
g3
Ntp108
Rp109
(lp110
F0.08035368856712778
aF0.09481719490019838
aF-0.07873337313869601
abag1
(g11
g3
Ntp111
Rp112
(lp113
F0.3360764765018106
aF-0.11184166517053014
aF0.9343048580989433
aF0.040230287181731134
ababag1
(g2
g3
Ntp114
Rp115
(lp116
g1
(g7
g3
Ntp117
Rp118
(lp119
F0.06582123083562598
aF0.10453163171190903
aF-0.09629161413347836
abag1
(g11
g3
Ntp120
Rp121
(lp122
F0.33430361466578085
aF-0.15005393601458508
aF0.9288748062100299
aF0.05400466550404102
ababag1
(g2
g3
Ntp123
Rp124
(lp125
g1
(g7
g3
Ntp126
Rp127
(lp128
F0.12307822335697548
aF0.07985463930728717
aF0.04620317262597952
abag1
(g11
g3
Ntp129
Rp130
(lp131
F-0.3620139135353982
aF0.0902841432951003
aF0.9271202184612382
aF0.035253374258946146
ababag1
(g2
g3
Ntp132
Rp133
(lp134
g1
(g7
g3
Ntp135
Rp136
(lp137
F0.10018923895176064
aF0.060379910761074004
aF-0.057901845990179834
abag1
(g11
g3
Ntp138
Rp139
(lp140
F0.23022934207494952
aF0.3656215769383867
aF0.8969435713823706
aF-0.09384850707742617
ababag1
(g2
g3
Ntp141
Rp142
(lp143
g1
(g7
g3
Ntp144
Rp145
(lp146
F0.09414167079867257
aF0.07217806529490292
aF-0.04445634084764156
abag1
(g11
g3
Ntp147
Rp148
(lp149
F0.13302879204991716
aF-0.0764338482527556
aF0.9881069361920217
aF0.01029028552716767
ababag1
(g2
g3
Ntp150
Rp151
(lp152
g1
(g7
g3
Ntp153
Rp154
(lp155
F0.11043504698986495
aF0.05272935924723814
aF0.008443681120704937
abag1
(g11
g3
Ntp156
Rp157
(lp158
F-0.1618238615004672
aF0.19030430190085407
aF0.9677730708815792
aF0.0318212790997521
ababag1
(g2
g3
Ntp159
Rp160
(lp161
g1
(g7
g3
Ntp162
Rp163
(lp164
F0.08436356017879029
aF0.0969695846320277
aF-0.08587666690284629
abag1
(g11
g3
Ntp165
Rp166
(lp167
F0.2766840757384046
aF0.0032555692267990286
aF0.9609549650484979
aF-0.0009373635552981629
ababag1
(g2
g3
Ntp168
Rp169
(lp170
g1
(g7
g3
Ntp171
Rp172
(lp173
F0.06820363127363506
aF0.08654615620060102
aF-0.08192398976021284
abag1
(g11
g3
Ntp174
Rp175
(lp176
F0.41669082570130916
aF-0.029462002885649916
aF0.9084702160457673
aF0.013513427399602656
ababag1
(g2
g3
Ntp177
Rp178
(lp179
g1
(g7
g3
Ntp180
Rp181
(lp182
F0.11889755515947166
aF0.10383726906059208
aF-0.04588103498368524
abag1
(g11
g3
Ntp183
Rp184
(lp185
F0.004504435959103635
aF-0.17985788300701847
aF0.9836819474116322
aF0.0008235978284209063
ababag1
(g2
g3
Ntp186
Rp187
(lp188
g1
(g7
g3
Ntp189
Rp190
(lp191
F0.11714522256323519
aF0.10638592780175563
aF0.06508013172933443
abag1
(g11
g3
Ntp192
Rp193
(lp194
F-0.4764083948162343
aF-0.17746654664338576
aF0.8554369870472955
aF-0.09883434303183966
ababag1
(g2
g3
Ntp195
Rp196
(lp197
g1
(g7
g3
Ntp198
Rp199
(lp200
F0.06350356069973025
aF0.07465275534729676
aF-0.0733001925532618
abag1
(g11
g3
Ntp201
Rp202
(lp203
F0.34439136298063877
aF-0.1110432602454513
aF0.9313312483758577
aF0.04106201720648299
ababag1
(g2
g3
Ntp204
Rp205
(lp206
g1
(g7
g3
Ntp207
Rp208
(lp209
F0.04888757658233871
aF0.09425714157241044
aF-0.09273038567091385
abag1
(g11
g3
Ntp210
Rp211
(lp212
F0.32098551967373334
aF-0.23571201103734368
aF0.9135364252229399
aF0.08282115553049611
ababag1
(g2
g3
Ntp213
Rp214
(lp215
g1
(g7
g3
Ntp216
Rp217
(lp218
F0.056858564727177596
aF0.08244694218996776
aF-0.0633602878433601
abag1
(g11
g3
Ntp219
Rp220
(lp221
F0.37873927887193726
aF0.0016896979083926523
aF0.9255016074714386
aF-0.0006914682396765077
ababag1
(g2
g3
Ntp222
Rp223
(lp224
g1
(g7
g3
Ntp225
Rp226
(lp227
F0.00923383789368704
aF0.09695327886076745
aF-0.0954871048593074
abag1
(g11
g3
Ntp228
Rp229
(lp230
F0.47688610280170446
aF-0.19305638851902637
aF0.8506438493497854
aF0.1082308522093982
ababag1
(g2
g3
Ntp231
Rp232
(lp233
g1
(g7
g3
Ntp234
Rp235
(lp236
F0.0866633564911074
aF0.06891012437088534
aF-0.01084843041688939
abag1
(g11
g3
Ntp237
Rp238
(lp239
F0.00307754532826248
aF0.2579794973161391
aF0.966145140433196
aF-0.0008217643121372031
ababag1
(g2
g3
Ntp240
Rp241
(lp242
g1
(g7
g3
Ntp243
Rp244
(lp245
F0.08810371544566829
aF0.09408109859701987
aF0.01644391925480946
abag1
(g11
g3
Ntp246
Rp247
(lp248
F0.04314967925133677
aF0.4815359478421522
aF0.8750413685887771
aF-0.023745302157413672
ababag1
(g2
g3
Ntp249
Rp250
(lp251
g1
(g7
g3
Ntp252
Rp253
(lp254
F0.08579996400844196
aF0.08196180049291571
aF-0.06949293202991212
abag1
(g11
g3
Ntp255
Rp256
(lp257
F0.22748330137700323
aF-0.14277762581769915
aF0.962666904770523
aF0.03373911113265393
ababa.