(lp0
ccopy_reg
_reconstructor
p1
(cgraspit_interface.msg._Grasp
Grasp
p2
c__builtin__
object
p3
Ntp4
Rp5
(lp6
I0
ag1
(cgeometry_msgs.msg._Pose
Pose
p7
g3
Ntp8
Rp9
(lp10
g1
(cgeometry_msgs.msg._Point
Point
p11
g3
Ntp12
Rp13
(lp14
F0.06262186137824566
aF-0.0335711930003063
aF0.011885675400622091
abag1
(cgeometry_msgs.msg._Quaternion
Quaternion
p15
g3
Ntp16
Rp17
(lp18
F-0.2539659492820282
aF0.3705906332096094
aF0.8870778099115428
aF0.1060982485487846
ababa(F0.06573074520048806
F0.7665561111492429
F1.4600406371502055
F0.004125
F-0.3490658503988659
F1.4262500000000011
F0.1426250000000001
F0.1426250000000001
F-0.3490658503988659
F1.1300000000000008
F0.11300000000000007
F1.5707963267948966
F-0.496021011533743
F1.2217304763960306
F0.0
F0.06765045515353996
F0.03125
tp19
aF0.016880810288514063
aF0.0216390071898121
ag1
(cgeometry_msgs.msg._Vector3Stamped
Vector3Stamped
p20
g3
Ntp21
Rp22
(lp23
g1
(cstd_msgs.msg._Header
Header
p24
g3
Ntp25
Rp26
(lp27
I0
ag1
(cgenpy.rostime
Time
p28
g3
Ntp29
Rp30
(lp31
I0
aI0
abaS'shadowhandnew'
p32
abag1
(cgeometry_msgs.msg._Vector3
Vector3
p33
g3
Ntp34
Rp35
(lp36
F0.960429138778732
aF-0.1920858277557464
aF0.2016901191435337
abababag1
(g2
g3
Ntp37
Rp38
(lp39
I0
ag1
(g7
g3
Ntp40
Rp41
(lp42
g1
(g11
g3
Ntp43
Rp44
(lp45
F0.03776949493166916
aF-0.027549029298009977
aF-0.10771596281530264
abag1
(g15
g3
Ntp46
Rp47
(lp48
F0.3594770388310871
aF0.3372991177271935
aF0.858521337940286
aF-0.1412327017192243
ababa(F-0.23397850785261887
F0.3187500000000001
F0.874570916468255
F0.03187500000000002
F-0.3490658503988659
F0.8637500000000005
F0.08637500000000006
F0.16837500000000014
F-0.3490658503988659
F0.7512500000000004
F0.07512500000000005
F1.397688996230083
F-0.12351094671427894
F1.2217304763960306
F0.0
F0.5235987755982988
F0.3462500000000001
tp49
aF0.03049751803394877
aF0.015518040769362588
ag1
(g20
g3
Ntp50
Rp51
(lp52
g1
(g24
g3
Ntp53
Rp54
(lp55
I0
ag1
(g28
g3
Ntp56
Rp57
(lp58
I0
aI0
abaS'shadowhandnew'
p59
abag1
(g33
g3
Ntp60
Rp61
(lp62
F0.960429138778732
aF-0.1920858277557464
aF0.2016901191435337
abababag1
(g2
g3
Ntp63
Rp64
(lp65
I0
ag1
(g7
g3
Ntp66
Rp67
(lp68
g1
(g11
g3
Ntp69
Rp70
(lp71
F0.07083299845649735
aF-0.031969997757104684
aF-0.035568044474409304
abag1
(g15
g3
Ntp72
Rp73
(lp74
F-0.015615398832025023
aF0.3585961099572043
aF0.9333429138590873
aF0.00599953264062586
ababa(F-0.3490658503988659
F0.9321761479987676
F0.00425
F1.5707963267948966
F-0.3490658503988659
F0.5112500000000002
F1.5707963267948966
F0.05112500000000004
F-0.3490658503988659
F0.9637500000000006
F0.7167090762134142
F0.09637500000000007
F0.026356979521652932
F1.2217304763960306
F0.0
F-0.4698487755982988
F0.05375
tp75
aF0.010593416816909236
aF0.015559911309478237
ag1
(g20
g3
Ntp76
Rp77
(lp78
g1
(g24
g3
Ntp79
Rp80
(lp81
I0
ag1
(g28
g3
Ntp82
Rp83
(lp84
I0
aI0
abaS'shadowhandnew'
p85
abag1
(g33
g3
Ntp86
Rp87
(lp88
F0.960429138778732
aF-0.1920858277557464
aF0.2016901191435337
abababag1
(g2
g3
Ntp89
Rp90
(lp91
I0
ag1
(g7
g3
Ntp92
Rp93
(lp94
g1
(g11
g3
Ntp95
Rp96
(lp97
F0.07117951949341067
aF-0.058485801049422345
aF-0.012160670862573148
abag1
(g15
g3
Ntp98
Rp99
(lp100
F-0.15963702553733103
aF0.34872583109603794
aF0.9215514778701319
aF0.060408512970829754
ababa(F-0.3490658503988659
F0.5560714496076615
F1.5707963267948966
F0.0017500000000000003
F-0.3490658503988659
F0.6112500000000003
F1.5707963267948966
F0.061125000000000054
F-0.3490658503988659
F1.0975000000000006
F0.10975000000000007
F1.5707963267948966
F-0.09400517341956854
F1.2217304763960306
F0.0
F-0.4710987755982988
F0.052500000000000005
tp101
aF0.008602677166521121
aF0.016846159047541505
ag1
(g20
g3
Ntp102
Rp103
(lp104
g1
(g24
g3
Ntp105
Rp106
(lp107
I0
ag1
(g28
g3
Ntp108
Rp109
(lp110
I0
aI0
abaS'shadowhandnew'
p111
abag1
(g33
g3
Ntp112
Rp113
(lp114
F0.960429138778732
aF-0.1920858277557464
aF0.2016901191435337
abababag1
(g2
g3
Ntp115
Rp116
(lp117
I0
ag1
(g7
g3
Ntp118
Rp119
(lp120
g1
(g11
g3
Ntp121
Rp122
(lp123
F0.0516212060544013
aF-0.06017550666203353
aF0.029810020149279217
abag1
(g15
g3
Ntp124
Rp125
(lp126
F-0.394084615451551
aF0.29177828197324435
aF0.8612418598623878
aF0.13351108138997442
ababa(F-0.3490658503988659
F1.4525000000000012
F0.4522500000000004
F0.4972500000000004
F-0.3490658503988659
F1.2852700095483751
F0.09150000000000007
F1.5532610729183094
F-0.3490658503988659
F1.494387270715721
F0.009500000000000001
F0.2572500000000002
F-0.9296975511965975
F1.2217304763960306
F0.0
F-0.18644273267864253
F1.5707963267948966
tp127
aF0.03152097609627365
aF0.018216663719797136
ag1
(g20
g3
Ntp128
Rp129
(lp130
g1
(g24
g3
Ntp131
Rp132
(lp133
I0
ag1
(g28
g3
Ntp134
Rp135
(lp136
I0
aI0
abaS'shadowhandnew'
p137
abag1
(g33
g3
Ntp138
Rp139
(lp140
F0.960429138778732
aF-0.1920858277557464
aF0.2016901191435337
abababag1
(g2
g3
Ntp141
Rp142
(lp143
I0
ag1
(g7
g3
Ntp144
Rp145
(lp146
g1
(g11
g3
Ntp147
Rp148
(lp149
F0.0059999408660427345
aF-0.007707989632420503
aF-0.12921022504353308
abag1
(g15
g3
Ntp150
Rp151
(lp152
F0.4659235274764117
aF-0.14307276292167698
aF0.8698114770204062
aF0.07663840745653923
ababa(F-0.08229218065571303
F0.28500000000000014
F0.02850000000000002
F1.5707963267948966
F-0.3490658503988659
F0.29250000000000015
F0.02925000000000002
F0.4982500000000004
F-0.3490658503988659
F0.035
F0.06625000000000004
F1.5707963267948966
F0.46001810972438334
F0.036250000000000004
F0.0
F-0.48734877559829876
F0.036250000000000004
tp153
aF0.01076423350473385
aF0.02347398441365083
ag1
(g20
g3
Ntp154
Rp155
(lp156
g1
(g24
g3
Ntp157
Rp158
(lp159
I0
ag1
(g28
g3
Ntp160
Rp161
(lp162
I0
aI0
abaS'shadowhandnew'
p163
abag1
(g33
g3
Ntp164
Rp165
(lp166
F0.960429138778732
aF-0.1920858277557464
aF0.2016901191435337
abababag1
(g2
g3
Ntp167
Rp168
(lp169
I0
ag1
(g7
g3
Ntp170
Rp171
(lp172
g1
(g11
g3
Ntp173
Rp174
(lp175
F0.0488908918442185
aF0.00034558121253491867
aF-0.10732574253043191
abag1
(g15
g3
Ntp176
Rp177
(lp178
F0.23325566029785968
aF-0.17290073538849668
aF0.9559902797510892
aF0.042186700067212014
ababa(F-0.3490658503988659
F0.29562500000000014
F1.5707963267948966
F1.5707963267948966
F-0.3490658503988659
F0.7356250000000005
F0.07356250000000006
F0.4985625000000004
F-0.3490658503988659
F0.020625000000000004
F1.4364324399117407
F0.0020625
F-0.15390141780286945
F0.018125000000000002
F0.0
F-0.5054737755982988
F0.018125000000000002
tp179
aF0.0033151236691038033
aF0.03156724802124219
ag1
(g20
g3
Ntp180
Rp181
(lp182
g1
(g24
g3
Ntp183
Rp184
(lp185
I0
ag1
(g28
g3
Ntp186
Rp187
(lp188
I0
aI0
abaS'shadowhandnew'
p189
abag1
(g33
g3
Ntp190
Rp191
(lp192
F0.960429138778732
aF-0.1920858277557464
aF0.2016901191435337
abababa.