(lp0
ccopy_reg
_reconstructor
p1
(cgraspit_interface.msg._Grasp
Grasp
p2
c__builtin__
object
p3
Ntp4
Rp5
(lp6
I0
ag1
(cgeometry_msgs.msg._Pose
Pose
p7
g3
Ntp8
Rp9
(lp10
g1
(cgeometry_msgs.msg._Point
Point
p11
g3
Ntp12
Rp13
(lp14
F0.0661083398978495
aF-0.020990297902219332
aF-0.0002416357577391963
abag1
(cgeometry_msgs.msg._Quaternion
Quaternion
p15
g3
Ntp16
Rp17
(lp18
F-0.22796725160342202
aF0.18101110980181964
aF0.9557205165448147
aF0.0431764354713119
ababa(F-0.31666439585640016
F1.5475000000000012
F0.4957500000000004
F0.4957500000000004
F-0.2973964724498458
F1.5002652460772843
F0.43575000000000036
F1.5707963267948966
F-0.3490658503988659
F1.5707963267948966
F0.07275000000000005
F1.5707963267948966
F-0.5396975511965971
F1.2217304763960306
F0.0
F0.5235987755982988
F1.277500000000001
tp19
aF0.05097588564388582
aF0.048014755592434386
ag1
(cgeometry_msgs.msg._Vector3Stamped
Vector3Stamped
p20
g3
Ntp21
Rp22
(lp23
g1
(cstd_msgs.msg._Header
Header
p24
g3
Ntp25
Rp26
(lp27
I0
ag1
(cgenpy.rostime
Time
p28
g3
Ntp29
Rp30
(lp31
I0
aI0
abaS'shadowhandnew'
p32
abag1
(cgeometry_msgs.msg._Vector3
Vector3
p33
g3
Ntp34
Rp35
(lp36
F0.960429138778732
aF-0.1920858277557464
aF0.2016901191435337
abababag1
(g2
g3
Ntp37
Rp38
(lp39
I0
ag1
(g7
g3
Ntp40
Rp41
(lp42
g1
(g11
g3
Ntp43
Rp44
(lp45
F0.075322434711729
aF-0.034157184668323654
aF0.022499542171793258
abag1
(g15
g3
Ntp46
Rp47
(lp48
F-0.417312393484093
aF0.033324221557314106
aF0.9080227448158655
aF0.015315266868008937
ababa(F-0.3490658503988659
F0.9800000000000006
F1.5707963267948966
F1.5707963267948966
F-0.3490658503988659
F1.0650000000000008
F1.5707963267948966
F1.5707963267948966
F-0.3490658503988659
F1.5707963267948966
F0.05200000000000004
F1.5707963267948966
F-0.48719755119659713
F1.2217304763960306
F0.0
F0.5235987755982988
F1.5707963267948966
tp49
aF0.03264599165159922
aF0.20818574301923023
ag1
(g20
g3
Ntp50
Rp51
(lp52
g1
(g24
g3
Ntp53
Rp54
(lp55
I0
ag1
(g28
g3
Ntp56
Rp57
(lp58
I0
aI0
abaS'shadowhandnew'
p59
abag1
(g33
g3
Ntp60
Rp61
(lp62
F0.960429138778732
aF-0.1920858277557464
aF0.2016901191435337
abababag1
(g2
g3
Ntp63
Rp64
(lp65
I0
ag1
(g7
g3
Ntp66
Rp67
(lp68
g1
(g11
g3
Ntp69
Rp70
(lp71
F0.05970640096120427
aF-0.05865589011483579
aF0.033911954749440205
abag1
(g15
g3
Ntp72
Rp73
(lp74
F-0.3647812061324772
aF0.3319217910056283
aF0.8584098399212038
aF0.14105014368870625
ababa(F-0.16401362193229568
F1.2156008641344973
F1.5707963267948966
F0.016750000000000008
F-0.3490658503988659
F1.0858296288179656
F1.5707963267948966
F1.5707963267948966
F-0.3490658503988659
F1.1695218588548855
F1.5707963267948966
F1.5707963267948966
F-0.5934475511965971
F1.2217304763960306
F0.0
F-0.06984877559829844
F1.5707963267948966
tp75
aF0.02240885475130696
aF0.5697016628159618
ag1
(g20
g3
Ntp76
Rp77
(lp78
g1
(g24
g3
Ntp79
Rp80
(lp81
I0
ag1
(g28
g3
Ntp82
Rp83
(lp84
I0
aI0
abaS'shadowhandnew'
p85
abag1
(g33
g3
Ntp86
Rp87
(lp88
F0.960429138778732
aF-0.1920858277557464
aF0.2016901191435337
abababag1
(g2
g3
Ntp89
Rp90
(lp91
I0
ag1
(g7
g3
Ntp92
Rp93
(lp94
g1
(g11
g3
Ntp95
Rp96
(lp97
F0.0636960300368629
aF-0.01837506921552904
aF0.007800638331267827
abag1
(g15
g3
Ntp98
Rp99
(lp100
F-0.3423435344902367
aF0.05293732199650866
aF0.9378833428331549
aF0.019323032077728758
ababa(F-0.3490658503988659
F1.267500000000001
F1.5707963267948966
F0.12675000000000008
F-0.3490658503988659
F1.3929061543587662
F0.903944288980282
F1.5707963267948966
F-0.3490658503988659
F1.5707963267948966
F0.36554117946118864
F1.5707963267948966
F-0.8321975511965974
F1.2217304763960306
F0.0
F0.5235987755982988
F1.5707963267948966
tp101
aF0.02535110943283428
aF0.08900591387254038
ag1
(g20
g3
Ntp102
Rp103
(lp104
g1
(g24
g3
Ntp105
Rp106
(lp107
I0
ag1
(g28
g3
Ntp108
Rp109
(lp110
I0
aI0
abaS'shadowhandnew'
p111
abag1
(g33
g3
Ntp112
Rp113
(lp114
F0.960429138778732
aF-0.1920858277557464
aF0.2016901191435337
abababag1
(g2
g3
Ntp115
Rp116
(lp117
I0
ag1
(g7
g3
Ntp118
Rp119
(lp120
g1
(g11
g3
Ntp121
Rp122
(lp123
F0.0008451181552726297
aF-0.011164421444978952
aF-0.11286075471554748
abag1
(g15
g3
Ntp124
Rp125
(lp126
F0.4697705045196349
aF-0.27801726358922824
aF0.8226905040856414
aF0.15875266522814305
ababa(F-0.3490658503988659
F0.6125000000000003
F1.5707963267948966
F1.5707963267948966
F-0.3490658503988659
F0.9241910492869432
F0.08225000000000006
F1.5707963267948966
F-0.3490658503988659
F0.01
F0.4966250000000004
F1.5707963267948966
F-0.12565560407525378
F0.8662500000000005
F0.0
F0.41483299008072055
F0.8662500000000005
tp127
aF0.05914913737656066
aF0.3006728562132191
ag1
(g20
g3
Ntp128
Rp129
(lp130
g1
(g24
g3
Ntp131
Rp132
(lp133
I0
ag1
(g28
g3
Ntp134
Rp135
(lp136
I0
aI0
abaS'shadowhandnew'
p137
abag1
(g33
g3
Ntp138
Rp139
(lp140
F0.960429138778732
aF-0.1920858277557464
aF0.2016901191435337
abababag1
(g2
g3
Ntp141
Rp142
(lp143
I0
ag1
(g7
g3
Ntp144
Rp145
(lp146
g1
(g11
g3
Ntp147
Rp148
(lp149
F0.062408919848242976
aF-0.041794837765120774
aF0.051329153803642294
abag1
(g15
g3
Ntp150
Rp151
(lp152
F-0.4448298015097347
aF0.2904078695859038
aF0.8329071908887787
aF0.15509780248975266
ababa(F-0.3490658503988659
F1.164375000000001
F0.4984375000000004
F1.2073050145153372
F-0.3490658503988659
F1.2730556981008925
F0.4587897180124618
F1.1627664147442927
F-0.3490658503988659
F1.1575036699774375
F0.07793750000000006
F1.5707963267948966
F-0.099003333353753
F1.2217304763960306
F0.0
F0.06170424689240453
F0.35687500000000016
tp153
aF0.07625558898447693
aF0.22092682570975344
ag1
(g20
g3
Ntp154
Rp155
(lp156
g1
(g24
g3
Ntp157
Rp158
(lp159
I0
ag1
(g28
g3
Ntp160
Rp161
(lp162
I0
aI0
abaS'shadowhandnew'
p163
abag1
(g33
g3
Ntp164
Rp165
(lp166
F0.960429138778732
aF-0.1920858277557464
aF0.2016901191435337
abababag1
(g2
g3
Ntp167
Rp168
(lp169
I0
ag1
(g7
g3
Ntp170
Rp171
(lp172
g1
(g11
g3
Ntp173
Rp174
(lp175
F0.08854278357725076
aF-0.051965122895669964
aF-0.05543319958599475
abag1
(g15
g3
Ntp176
Rp177
(lp178
F0.06240496081027657
aF0.3903021590617363
aF0.9181863428502741
aF-0.026527067332328833
ababa(F0.045139660659076986
F0.4031250000000002
F1.5707963267948966
F0.04031250000000003
F-0.3490658503988659
F0.9656250000000007
F0.7129583462583237
F0.09656250000000008
F-0.3490658503988659
F0.8476957657916959
F1.3041608417607717
F0.046812500000000035
F0.4675063337463629
F1.2217304763960306
F0.0
F-0.3892237755982987
F0.13437499999999997
tp179
aF0.008786899395867367
aF0.2591273001112665
ag1
(g20
g3
Ntp180
Rp181
(lp182
g1
(g24
g3
Ntp183
Rp184
(lp185
I0
ag1
(g28
g3
Ntp186
Rp187
(lp188
I0
aI0
abaS'shadowhandnew'
p189
abag1
(g33
g3
Ntp190
Rp191
(lp192
F0.960429138778732
aF-0.1920858277557464
aF0.2016901191435337
abababag1
(g2
g3
Ntp193
Rp194
(lp195
I0
ag1
(g7
g3
Ntp196
Rp197
(lp198
g1
(g11
g3
Ntp199
Rp200
(lp201
F0.08416892531480485
aF-0.0022518418610343255
aF0.038757228461845865
abag1
(g15
g3
Ntp202
Rp203
(lp204
F-0.47528101679083057
aF-0.19337800250401793
aF0.8515060399683555
aF-0.10793686637678464
ababa(F-0.3490658503988659
F0.46000000000000024
F1.5707963267948966
F1.0829551043060306
F-0.3490658503988659
F1.0101992985824735
F0.8261296256235764
F1.2527501922397175
F-0.3490658503988659
F1.0350000000000006
F0.843158194531263
F1.415535839180553
F-0.007000248890190146
F1.2217304763960306
F0.0
F0.2664012244017016
F1.5707963267948966
tp205
aF0.004734278170775097
aF0.07118307095931355
ag1
(g20
g3
Ntp206
Rp207
(lp208
g1
(g24
g3
Ntp209
Rp210
(lp211
I0
ag1
(g28
g3
Ntp212
Rp213
(lp214
I0
aI0
abaS'shadowhandnew'
p215
abag1
(g33
g3
Ntp216
Rp217
(lp218
F0.960429138778732
aF-0.1920858277557464
aF0.2016901191435337
abababag1
(g2
g3
Ntp219
Rp220
(lp221
I0
ag1
(g7
g3
Ntp222
Rp223
(lp224
g1
(g11
g3
Ntp225
Rp226
(lp227
F0.06547344352129202
aF-0.05379113362348878
aF0.046893694855171905
abag1
(g15
g3
Ntp228
Rp229
(lp230
F-0.369629851190583
aF0.4246465455158376
aF0.8030210105417069
aF0.19546442417705825
ababa(F-0.3490658503988659
F0.7400000000000004
F0.4973750000000004
F0.4973750000000004
F-0.11658553078038573
F1.4777965612749373
F0.02100000000000001
F0.33837500000000026
F-0.3490658503988659
F1.0237500000000006
F0.4810078096180668
F1.5707963267948966
F0.20440321870034922
F1.2217304763960306
F0.0
F-0.48609877559829884
F0.5607319433080606
tp231
aF0.06071567021634544
aF0.15264180173251343
ag1
(g20
g3
Ntp232
Rp233
(lp234
g1
(g24
g3
Ntp235
Rp236
(lp237
I0
ag1
(g28
g3
Ntp238
Rp239
(lp240
I0
aI0
abaS'shadowhandnew'
p241
abag1
(g33
g3
Ntp242
Rp243
(lp244
F0.960429138778732
aF-0.1920858277557464
aF0.2016901191435337
abababag1
(g2
g3
Ntp245
Rp246
(lp247
I0
ag1
(g7
g3
Ntp248
Rp249
(lp250
g1
(g11
g3
Ntp251
Rp252
(lp253
F0.06540787948487754
aF-0.046595879484669624
aF-0.09167463510422255
abag1
(g15
g3
Ntp254
Rp255
(lp256
F0.278075436197593
aF0.3742986598999979
aF0.8766284479930463
aF-0.11873133179530587
ababa(F-0.3490658503988659
F0.848918122517482
F0.36276509893469433
F0.27862500000000023
F-0.3490658503988659
F0.32375000000000015
F1.5707963267948966
F0.8878639480032585
F-0.3490658503988659
F1.0162500000000005
F0.10162500000000008
F1.5707963267948966
F0.054890598858415615
F1.2217304763960306
F0.0
F0.5235987755982988
F0.09375
tp257
aF1.6805925909267605e-05
aF0.2682895091048087
ag1
(g20
g3
Ntp258
Rp259
(lp260
g1
(g24
g3
Ntp261
Rp262
(lp263
I0
ag1
(g28
g3
Ntp264
Rp265
(lp266
I0
aI0
abaS'shadowhandnew'
p267
abag1
(g33
g3
Ntp268
Rp269
(lp270
F0.960429138778732
aF-0.1920858277557464
aF0.2016901191435337
abababag1
(g2
g3
Ntp271
Rp272
(lp273
I0
ag1
(g7
g3
Ntp274
Rp275
(lp276
g1
(g11
g3
Ntp277
Rp278
(lp279
F0.029584499049461813
aF0.016612236225416577
aF-0.12432733132247904
abag1
(g15
g3
Ntp280
Rp281
(lp282
F0.3599000473742039
aF-0.3787265186360521
aF0.8369687951595678
aF0.1628539711244506
ababa(F-0.3490658503988659
F0.6950000000000004
F0.06950000000000005
F1.5707963267948966
F-0.3490658503988659
F0.28750000000000003
F0.7813939424985721
F1.325087682200493
F-0.3490658503988659
F0.01
F0.4985000000000004
F0.4985000000000004
F0.6169122663192047
F0.26375000000000004
F0.0
F-0.25984877559829855
F0.26375000000000004
tp283
aF0.0019470247449294154
aF0.1757473551943609
ag1
(g20
g3
Ntp284
Rp285
(lp286
g1
(g24
g3
Ntp287
Rp288
(lp289
I0
ag1
(g28
g3
Ntp290
Rp291
(lp292
I0
aI0
abaS'shadowhandnew'
p293
abag1
(g33
g3
Ntp294
Rp295
(lp296
F0.960429138778732
aF-0.1920858277557464
aF0.2016901191435337
abababag1
(g2
g3
Ntp297
Rp298
(lp299
I0
ag1
(g7
g3
Ntp300
Rp301
(lp302
g1
(g11
g3
Ntp303
Rp304
(lp305
F0.03490987744998504
aF-0.0031196836448835973
aF-0.12056285211963211
abag1
(g15
g3
Ntp306
Rp307
(lp308
F0.37116573020141275
aF-0.23457132350504187
aF0.8931459754460839
aF0.09748108256276465
ababa(F-0.3490658503988659
F0.3000000000000001
F0.7109234943897266
F1.5707963267948966
F-0.3490658503988659
F0.7325000000000005
F0.07325000000000005
F1.4885178964191563
F-0.3490658503988659
F0.3850000000000002
F0.4632500000000004
F1.5707963267948966
F0.08568205635202833
F0.1625
F0.0
F0.06876467778882131
F0.1625
tp309
aF0.014883138563837241
aF0.5299062715216927
ag1
(g20
g3
Ntp310
Rp311
(lp312
g1
(g24
g3
Ntp313
Rp314
(lp315
I0
ag1
(g28
g3
Ntp316
Rp317
(lp318
I0
aI0
abaS'shadowhandnew'
p319
abag1
(g33
g3
Ntp320
Rp321
(lp322
F0.960429138778732
aF-0.1920858277557464
aF0.2016901191435337
abababag1
(g2
g3
Ntp323
Rp324
(lp325
I0
ag1
(g7
g3
Ntp326
Rp327
(lp328
g1
(g11
g3
Ntp329
Rp330
(lp331
F0.09615007405413512
aF-0.0012901824210083106
aF-0.058255078305592914
abag1
(g15
g3
Ntp332
Rp333
(lp334
F-0.046826434112102557
aF-0.23289126116598885
aF0.9713098819664917
aF-0.011227588124805944
ababa(F-0.3490658503988659
F0.8312500000000005
F1.5707963267948966
F1.5707963267948966
F-0.3490658503988659
F0.6137500000000004
F1.5707963267948966
F1.4255849790177821
F-0.3490658503988659
F0.5337500000000003
F1.5183114428074147
F0.05337500000000004
F0.06264633533442128
F1.2217304763960306
F0.0
F-0.1998487755982985
F1.5707963267948966
tp335
aF0.07619308570042818
aF0.21050627511658718
ag1
(g20
g3
Ntp336
Rp337
(lp338
g1
(g24
g3
Ntp339
Rp340
(lp341
I0
ag1
(g28
g3
Ntp342
Rp343
(lp344
I0
aI0
abaS'shadowhandnew'
p345
abag1
(g33
g3
Ntp346
Rp347
(lp348
F0.960429138778732
aF-0.1920858277557464
aF0.2016901191435337
abababag1
(g2
g3
Ntp349
Rp350
(lp351
I0
ag1
(g7
g3
Ntp352
Rp353
(lp354
g1
(g11
g3
Ntp355
Rp356
(lp357
F0.05421887637118272
aF-0.04095873306237357
aF-0.04627950621719925
abag1
(g15
g3
Ntp358
Rp359
(lp360
F0.018198456195887062
aF0.32834777606364474
aF0.9443603746062323
aF-0.006327481309455334
ababa(F0.3490658503988659
F1.5457932177413336
F0.41241449862004415
F0.33400000000000024
F-0.3490658503988659
F0.9150000000000006
F1.5707963267948966
F0.09150000000000007
F-0.3490658503988659
F1.1600000000000006
F1.5707963267948966
F0.11600000000000009
F-0.42237356739976695
F1.2217304763960306
F0.0
F0.5235987755982988
F0.05500000000000001
tp361
aF0.04795703382811672
aF0.1625530266503557
ag1
(g20
g3
Ntp362
Rp363
(lp364
g1
(g24
g3
Ntp365
Rp366
(lp367
I0
ag1
(g28
g3
Ntp368
Rp369
(lp370
I0
aI0
abaS'shadowhandnew'
p371
abag1
(g33
g3
Ntp372
Rp373
(lp374
F0.960429138778732
aF-0.1920858277557464
aF0.2016901191435337
abababag1
(g2
g3
Ntp375
Rp376
(lp377
I0
ag1
(g7
g3
Ntp378
Rp379
(lp380
g1
(g11
g3
Ntp381
Rp382
(lp383
F0.04108620535637693
aF-0.013386208483063593
aF-0.06850900691824045
abag1
(g15
g3
Ntp384
Rp385
(lp386
F0.33135833491662076
aF0.017260026799152988
aF0.9433276139322574
aF-0.006062849911647235
ababa(F-0.3490658503988659
F0.5575000000000003
F1.5707963267948966
F1.5707963267948966
F-0.3490658503988659
F1.4179506533821482
F0.47943070609271776
F1.5707963267948966
F-0.3490658503988659
F1.327500000000001
F0.4977500000000004
F1.5707963267948966
F0.10661008025289906
F1.2217304763960306
F0.0
F-0.46609877559829876
F1.5707963267948966
tp387
aF0.03950412309080459
aF0.06242032063029444
ag1
(g20
g3
Ntp388
Rp389
(lp390
g1
(g24
g3
Ntp391
Rp392
(lp393
I0
ag1
(g28
g3
Ntp394
Rp395
(lp396
I0
aI0
abaS'shadowhandnew'
p397
abag1
(g33
g3
Ntp398
Rp399
(lp400
F0.960429138778732
aF-0.1920858277557464
aF0.2016901191435337
abababag1
(g2
g3
Ntp401
Rp402
(lp403
I0
ag1
(g7
g3
Ntp404
Rp405
(lp406
g1
(g11
g3
Ntp407
Rp408
(lp409
F0.036302846486710325
aF-0.01994327854823062
aF-0.07432867310867647
abag1
(g15
g3
Ntp410
Rp411
(lp412
F0.3228613053474511
aF-0.16552362473008128
aF0.9300865838452653
aF0.057458278051117945
ababa(F-0.3490658503988659
F0.6650000000000004
F1.5707963267948966
F1.5707963267948966
F-0.3490658503988659
F1.4516564781650785
F0.3229553262908667
F1.5707963267948966
F-0.3490658503988659
F1.1450000000000007
F0.4975000000000004
F1.5707963267948966
F0.1613632241102881
F1.2217304763960306
F0.0
F-0.11859877559829847
F1.5707963267948966
tp413
aF0.054672675089129846
aF0.07759328329440672
ag1
(g20
g3
Ntp414
Rp415
(lp416
g1
(g24
g3
Ntp417
Rp418
(lp419
I0
ag1
(g28
g3
Ntp420
Rp421
(lp422
I0
aI0
abaS'shadowhandnew'
p423
abag1
(g33
g3
Ntp424
Rp425
(lp426
F0.960429138778732
aF-0.1920858277557464
aF0.2016901191435337
abababa.