(lp0
ccopy_reg
_reconstructor
p1
(cgraspit_interface.msg._Grasp
Grasp
p2
c__builtin__
object
p3
Ntp4
Rp5
(lp6
I0
ag1
(cgeometry_msgs.msg._Pose
Pose
p7
g3
Ntp8
Rp9
(lp10
g1
(cgeometry_msgs.msg._Point
Point
p11
g3
Ntp12
Rp13
(lp14
F-0.006716276894490107
aF-0.025502746581357972
aF-0.1849045619904567
abag1
(cgeometry_msgs.msg._Quaternion
Quaternion
p15
g3
Ntp16
Rp17
(lp18
F0.4312836510108881
aF0.13354530207476592
aF0.8899277600703331
aF-0.06471975371304861
ababa(F0.2763017444663647
F0.01
F1.5707963267948966
F0.001
F-0.3490658503988659
F0.21875000000000006
F1.5707963267948966
F0.021875000000000012
F-0.3490658503988659
F1.0212500000000007
F0.10212500000000008
F1.5707963267948966
F1.0471975511965976
F1.2217304763960306
F0.0
F-0.38109877559829874
F0.1425
tp19
aF0.08929894275758299
aF0.03756032192941711
ag1
(cgeometry_msgs.msg._Vector3Stamped
Vector3Stamped
p20
g3
Ntp21
Rp22
(lp23
g1
(cstd_msgs.msg._Header
Header
p24
g3
Ntp25
Rp26
(lp27
I0
ag1
(cgenpy.rostime
Time
p28
g3
Ntp29
Rp30
(lp31
I0
aI0
abaS'shadowhandnew'
p32
abag1
(cgeometry_msgs.msg._Vector3
Vector3
p33
g3
Ntp34
Rp35
(lp36
F0.960429138778732
aF-0.1920858277557464
aF0.2016901191435337
abababag1
(g2
g3
Ntp37
Rp38
(lp39
I0
ag1
(g7
g3
Ntp40
Rp41
(lp42
g1
(g11
g3
Ntp43
Rp44
(lp45
F0.007550363213393809
aF-0.044275926651927845
aF-0.17179138019051182
abag1
(g15
g3
Ntp46
Rp47
(lp48
F0.4218978978458
aF0.413017152425336
aF0.775169698754596
aF-0.22479086664824885
ababa(F-0.3490658503988659
F0.042499999999999996
F1.5707963267948966
F0.00425
F-0.3490658503988659
F0.5337500000000003
F1.1799114286426757
F0.05337500000000004
F-0.3490658503988659
F1.2887500000000007
F1.5707963267948966
F1.5707963267948966
F1.0471975511965976
F1.2217304763960306
F0.0
F-0.4085987755982987
F0.11499999999999996
tp49
aF0.008316101767755602
aF0.00814908696428811
ag1
(g20
g3
Ntp50
Rp51
(lp52
g1
(g24
g3
Ntp53
Rp54
(lp55
I0
ag1
(g28
g3
Ntp56
Rp57
(lp58
I0
aI0
abaS'shadowhandnew'
p59
abag1
(g33
g3
Ntp60
Rp61
(lp62
F0.960429138778732
aF-0.1920858277557464
aF0.2016901191435337
abababag1
(g2
g3
Ntp63
Rp64
(lp65
I0
ag1
(g7
g3
Ntp66
Rp67
(lp68
g1
(g11
g3
Ntp69
Rp70
(lp71
F0.06904806024534461
aF-0.01840426788680063
aF-0.10491220268836104
abag1
(g15
g3
Ntp72
Rp73
(lp74
F-0.10095932344972808
aF0.06468152695015258
aF0.9927639435535878
aF0.006577800536558536
ababa(F-0.3490658503988659
F0.46750000000000025
F1.5707963267948966
F0.046750000000000035
F-0.3490658503988659
F0.4337500000000002
F1.5707963267948966
F0.04337500000000003
F-0.3490658503988659
F0.9600000000000007
F0.09600000000000007
F1.5707963267948966
F0.6503792309455193
F0.8048656837959838
F0.0
F-0.0757318621696672
F0.09
tp75
aF0.010733817550863556
aF0.009970348730503328
ag1
(g20
g3
Ntp76
Rp77
(lp78
g1
(g24
g3
Ntp79
Rp80
(lp81
I0
ag1
(g28
g3
Ntp82
Rp83
(lp84
I0
aI0
abaS'shadowhandnew'
p85
abag1
(g33
g3
Ntp86
Rp87
(lp88
F0.960429138778732
aF-0.1920858277557464
aF0.2016901191435337
abababag1
(g2
g3
Ntp89
Rp90
(lp91
I0
ag1
(g7
g3
Ntp92
Rp93
(lp94
g1
(g11
g3
Ntp95
Rp96
(lp97
F0.06929605373587211
aF0.024896247724224985
aF-0.07233624099378691
abag1
(g15
g3
Ntp98
Rp99
(lp100
F-0.20770999604182827
aF-0.42255177505377095
aF0.8765157846257671
aF-0.10013308267045
ababa(F-0.3490658503988659
F0.8612500000000005
F0.08612500000000006
F1.5707963267948966
F-0.3490658503988659
F0.9762500000000006
F0.49862500000000043
F0.49862500000000043
F-0.3490658503988659
F0.7193672867896882
F1.5707963267948966
F0.015875000000000007
F-0.9434475511965976
F1.2217304763960306
F0.0
F-0.4198487755982987
F1.5707963267948966
tp101
aF0.029892274626665244
aF0.1683431578016842
ag1
(g20
g3
Ntp102
Rp103
(lp104
g1
(g24
g3
Ntp105
Rp106
(lp107
I0
ag1
(g28
g3
Ntp108
Rp109
(lp110
I0
aI0
abaS'shadowhandnew'
p111
abag1
(g33
g3
Ntp112
Rp113
(lp114
F0.960429138778732
aF-0.1920858277557464
aF0.2016901191435337
abababag1
(g2
g3
Ntp115
Rp116
(lp117
I0
ag1
(g7
g3
Ntp118
Rp119
(lp120
g1
(g11
g3
Ntp121
Rp122
(lp123
F0.027445839070597763
aF-0.06177526634935922
aF-0.15483891007540826
abag1
(g15
g3
Ntp124
Rp125
(lp126
F0.26981248504578187
aF0.33867810673848864
aF0.8955935162894361
aF-0.10203242871644497
ababa(F0.2696158628730244
F0.24500000000000005
F1.5707963267948966
F0.024500000000000015
F-0.3490658503988659
F1.153750000000001
F0.11537500000000009
F0.11537500000000009
F-0.3490658503988659
F0.5375000000000003
F1.5707963267948966
F0.05375000000000004
F0.9151179563020145
F1.2217304763960306
F0.0
F-0.48609877559829884
F0.0375
tp127
aF0.06958911913615728
aF0.06632055902526596
ag1
(g20
g3
Ntp128
Rp129
(lp130
g1
(g24
g3
Ntp131
Rp132
(lp133
I0
ag1
(g28
g3
Ntp134
Rp135
(lp136
I0
aI0
abaS'shadowhandnew'
p137
abag1
(g33
g3
Ntp138
Rp139
(lp140
F0.960429138778732
aF-0.1920858277557464
aF0.2016901191435337
abababag1
(g2
g3
Ntp141
Rp142
(lp143
I0
ag1
(g7
g3
Ntp144
Rp145
(lp146
g1
(g11
g3
Ntp147
Rp148
(lp149
F0.05337986110739431
aF-0.06380591667882664
aF-0.050077166844503
abag1
(g15
g3
Ntp150
Rp151
(lp152
F-0.2524484831821616
aF0.34028075842053096
aF0.9007685347103922
aF0.09536674296350456
ababa(F-0.3490658503988659
F0.9100000000000007
F0.4592582827514232
F1.5707963267948966
F-0.3490658503988659
F1.0200000000000007
F0.10200000000000008
F1.5707963267948966
F0.12453886618778451
F1.3771385322864567
F0.009250000000000001
F0.009250000000000001
F-0.051945896796517496
F1.2217304763960306
F0.0
F0.5235987755982988
F0.03875000000000001
tp153
aF0.02736717729116911
aF0.047837584323556975
ag1
(g20
g3
Ntp154
Rp155
(lp156
g1
(g24
g3
Ntp157
Rp158
(lp159
I0
ag1
(g28
g3
Ntp160
Rp161
(lp162
I0
aI0
abaS'shadowhandnew'
p163
abag1
(g33
g3
Ntp164
Rp165
(lp166
F0.960429138778732
aF-0.1920858277557464
aF0.2016901191435337
abababag1
(g2
g3
Ntp167
Rp168
(lp169
I0
ag1
(g7
g3
Ntp170
Rp171
(lp172
g1
(g11
g3
Ntp173
Rp174
(lp175
F-0.007657883113917094
aF-0.02457651047478977
aF-0.188791887855369
abag1
(g15
g3
Ntp176
Rp177
(lp178
F0.3675675015961773
aF-0.10813926405417225
aF0.9226831587097811
aF0.04307922902637893
ababa(F0.10334361740484595
F1.3803163961564984
F0.07487500000000005
F1.5707963267948966
F-0.3490658503988659
F0.9600000000000007
F0.09600000000000007
F0.09600000000000007
F-0.3490658503988659
F0.21875000000000006
F1.5707963267948966
F0.021875000000000012
F0.9963832979310026
F1.2217304763960306
F0.0
F-0.4985987755982988
F0.025
tp179
aF0.07715810950161106
aF0.07818510226841051
ag1
(g20
g3
Ntp180
Rp181
(lp182
g1
(g24
g3
Ntp183
Rp184
(lp185
I0
ag1
(g28
g3
Ntp186
Rp187
(lp188
I0
aI0
abaS'shadowhandnew'
p189
abag1
(g33
g3
Ntp190
Rp191
(lp192
F0.960429138778732
aF-0.1920858277557464
aF0.2016901191435337
abababag1
(g2
g3
Ntp193
Rp194
(lp195
I0
ag1
(g7
g3
Ntp196
Rp197
(lp198
g1
(g11
g3
Ntp199
Rp200
(lp201
F-0.015309328472389219
aF-0.04124570502425551
aF-0.18222921629907066
abag1
(g15
g3
Ntp202
Rp203
(lp204
F0.47839168060455173
aF0.06650715025442779
aF0.8748689222498294
aF-0.036367124918113815
ababa(F-0.3490658503988659
F0.45875000000000027
F0.045875000000000034
F1.5707963267948966
F-0.3490658503988659
F0.7253381138020321
F0.009125000000000001
F0.30260115243287977
F-0.3490658503988659
F0.14875
F1.5707963267948966
F0.014875000000000006
F1.0471975511965976
F1.2217304763960306
F0.0
F-0.3449180411310011
F0.11124999999999999
tp205
aF0.033013996855529096
aF0.0748842291892057
ag1
(g20
g3
Ntp206
Rp207
(lp208
g1
(g24
g3
Ntp209
Rp210
(lp211
I0
ag1
(g28
g3
Ntp212
Rp213
(lp214
I0
aI0
abaS'shadowhandnew'
p215
abag1
(g33
g3
Ntp216
Rp217
(lp218
F0.960429138778732
aF-0.1920858277557464
aF0.2016901191435337
abababag1
(g2
g3
Ntp219
Rp220
(lp221
I0
ag1
(g7
g3
Ntp222
Rp223
(lp224
g1
(g11
g3
Ntp225
Rp226
(lp227
F0.05783662215097069
aF-0.032480717868879405
aF-0.07719692264660319
abag1
(g15
g3
Ntp228
Rp229
(lp230
F-0.12639884014241712
aF-0.10233774807070813
aF0.986599421453106
aF-0.013111068563037082
ababa(F-0.3490658503988659
F0.6412500000000004
F1.5707963267948966
F1.5413209640175851
F-0.3490658503988659
F1.0833662894810834
F0.6970274561372951
F1.3557868197022647
F-0.3490658503988659
F0.5600000000000003
F0.4961250000000004
F1.5707963267948966
F-0.4509475511965971
F0.5962500000000004
F0.0
F0.0726512244017015
F1.5707963267948966
tp231
aF0.013507056877095913
aF0.08439054322359721
ag1
(g20
g3
Ntp232
Rp233
(lp234
g1
(g24
g3
Ntp235
Rp236
(lp237
I0
ag1
(g28
g3
Ntp238
Rp239
(lp240
I0
aI0
abaS'shadowhandnew'
p241
abag1
(g33
g3
Ntp242
Rp243
(lp244
F0.960429138778732
aF-0.1920858277557464
aF0.2016901191435337
abababag1
(g2
g3
Ntp245
Rp246
(lp247
I0
ag1
(g7
g3
Ntp248
Rp249
(lp250
g1
(g11
g3
Ntp251
Rp252
(lp253
F0.0267513570190375
aF-0.06529193573582089
aF-0.16079514071502488
abag1
(g15
g3
Ntp254
Rp255
(lp256
F0.33104338433622915
aF0.4134182958205481
aF0.8321333012036953
aF-0.16446811057432878
ababa(F0.2952712445949917
F0.47995617037612404
F0.5739347275048253
F0.011500000000000003
F-0.3490658503988659
F0.7437500000000005
F0.7737448901010652
F0.07437500000000005
F-0.27687742126833925
F1.0487500000000005
F1.5707963267948966
F0.10487500000000008
F1.0471975511965976
F1.2217304763960306
F0.0
F-0.4248487755982987
F0.09874999999999999
tp257
aF0.00790108320426941
aF0.05601347556327859
ag1
(g20
g3
Ntp258
Rp259
(lp260
g1
(g24
g3
Ntp261
Rp262
(lp263
I0
ag1
(g28
g3
Ntp264
Rp265
(lp266
I0
aI0
abaS'shadowhandnew'
p267
abag1
(g33
g3
Ntp268
Rp269
(lp270
F0.960429138778732
aF-0.1920858277557464
aF0.2016901191435337
abababag1
(g2
g3
Ntp271
Rp272
(lp273
I0
ag1
(g7
g3
Ntp274
Rp275
(lp276
g1
(g11
g3
Ntp277
Rp278
(lp279
F0.01240843975997226
aF-0.009954646225650088
aF-0.1796150516388545
abag1
(g15
g3
Ntp280
Rp281
(lp282
F0.3274102092404427
aF-0.2608752152774535
aF0.9032187269052158
aF0.09456536526019117
ababa(F-0.3490658503988659
F0.7500000000000006
F0.07500000000000005
F0.4990000000000004
F-0.3490658503988659
F0.08249999999999999
F1.5707963267948966
F0.00825
F-0.3490658503988659
F0.04
F0.4990000000000004
F1.5707963267948966
F1.0471975511965976
F0.6253468734428937
F0.0
F-0.4460987755982988
F0.0775
tp283
aF0.006050500591272254
aF0.018393198231139052
ag1
(g20
g3
Ntp284
Rp285
(lp286
g1
(g24
g3
Ntp287
Rp288
(lp289
I0
ag1
(g28
g3
Ntp290
Rp291
(lp292
I0
aI0
abaS'shadowhandnew'
p293
abag1
(g33
g3
Ntp294
Rp295
(lp296
F0.960429138778732
aF-0.1920858277557464
aF0.2016901191435337
abababag1
(g2
g3
Ntp297
Rp298
(lp299
I0
ag1
(g7
g3
Ntp300
Rp301
(lp302
g1
(g11
g3
Ntp303
Rp304
(lp305
F0.049353172715004105
aF-0.0350791872109732
aF-0.028231166511344854
abag1
(g15
g3
Ntp306
Rp307
(lp308
F-0.34914736810286695
aF0.03552171114635712
aF0.9363006273513907
aF0.013246078871424604
ababa(F0.22853385015622257
F0.9150000000000006
F0.4970000000000004
F1.5707963267948966
F-0.3490658503988659
F1.2056674022976732
F0.6581407195383336
F1.5707963267948966
F-0.3490658503988659
F0.07500000000000001
F1.5707963267948966
F1.5707963267948966
F-1.0471975511965976
F1.2217304763960306
F0.0
F0.4067502774956663
F1.1500000000000008
tp309
aF0.0288624678732343
aF0.33077368760911835
ag1
(g20
g3
Ntp310
Rp311
(lp312
g1
(g24
g3
Ntp313
Rp314
(lp315
I0
ag1
(g28
g3
Ntp316
Rp317
(lp318
I0
aI0
abaS'shadowhandnew'
p319
abag1
(g33
g3
Ntp320
Rp321
(lp322
F0.960429138778732
aF-0.1920858277557464
aF0.2016901191435337
abababag1
(g2
g3
Ntp323
Rp324
(lp325
I0
ag1
(g7
g3
Ntp326
Rp327
(lp328
g1
(g11
g3
Ntp329
Rp330
(lp331
F0.047535094956491476
aF-0.04883939599676839
aF-0.13640229321754788
abag1
(g15
g3
Ntp332
Rp333
(lp334
F0.251314781737752
aF0.4432108808620842
aF0.8504415891125123
aF-0.13097365793680082
ababa(F0.019390428632878456
F0.42554833378780177
F0.3512500000000003
F1.5707963267948966
F-0.3490658503988659
F0.2500000000000001
F1.5707963267948966
F0.025000000000000015
F-0.3490658503988659
F0.3825000000000002
F1.5707963267948966
F0.03825000000000003
F1.0471975511965976
F1.1586857110207478
F0.0
F-0.4885987755982988
F0.035
tp335
aF0.05652228052290481
aF0.0614807700316758
ag1
(g20
g3
Ntp336
Rp337
(lp338
g1
(g24
g3
Ntp339
Rp340
(lp341
I0
ag1
(g28
g3
Ntp342
Rp343
(lp344
I0
aI0
abaS'shadowhandnew'
p345
abag1
(g33
g3
Ntp346
Rp347
(lp348
F0.960429138778732
aF-0.1920858277557464
aF0.2016901191435337
abababag1
(g2
g3
Ntp349
Rp350
(lp351
I0
ag1
(g7
g3
Ntp352
Rp353
(lp354
g1
(g11
g3
Ntp355
Rp356
(lp357
F0.06860698767405682
aF-0.035262231285435416
aF-0.057117407322941446
abag1
(g15
g3
Ntp358
Rp359
(lp360
F-0.30381418980344205
aF0.016527135460063163
aF0.9525733602251302
aF0.0052711722574145135
ababa(F0.17735118894508323
F1.1983973637226375
F0.03262500000000002
F1.5707963267948966
F-0.3490658503988659
F0.9037500000000007
F1.5707963267948966
F1.5707963267948966
F-0.3490658503988659
F0.6037500000000005
F1.5707963267948966
F1.5707963267948966
F-0.8109475511965973
F1.2217304763960306
F0.0
F0.5235987755982988
F0.23625000000000007
tp361
aF0.07726254206528615
aF0.6367111170243351
ag1
(g20
g3
Ntp362
Rp363
(lp364
g1
(g24
g3
Ntp365
Rp366
(lp367
I0
ag1
(g28
g3
Ntp368
Rp369
(lp370
I0
aI0
abaS'shadowhandnew'
p371
abag1
(g33
g3
Ntp372
Rp373
(lp374
F0.960429138778732
aF-0.1920858277557464
aF0.2016901191435337
abababag1
(g2
g3
Ntp375
Rp376
(lp377
I0
ag1
(g7
g3
Ntp378
Rp379
(lp380
g1
(g11
g3
Ntp381
Rp382
(lp383
F0.0626342110807276
aF-0.0179048259134857
aF-0.13630268341872676
abag1
(g15
g3
Ntp384
Rp385
(lp386
F0.00919567437657151
aF-0.15572300670216968
aF0.9877568947101142
aF0.0014497272256389264
ababa(F-0.3490658503988659
F0.24375000000000008
F1.5707963267948966
F0.024375000000000015
F-0.3490658503988659
F1.0787500000000008
F0.10787500000000008
F0.8368638157921456
F-0.3490658503988659
F0.2962500000000001
F1.5707963267948966
F0.02962500000000002
F0.5608849697971117
F0.7739890951762163
F0.0
F-0.38734877559829867
F0.28032807817232014
tp387
aF0.05416707372545371
aF0.08614684665823072
ag1
(g20
g3
Ntp388
Rp389
(lp390
g1
(g24
g3
Ntp391
Rp392
(lp393
I0
ag1
(g28
g3
Ntp394
Rp395
(lp396
I0
aI0
abaS'shadowhandnew'
p397
abag1
(g33
g3
Ntp398
Rp399
(lp400
F0.960429138778732
aF-0.1920858277557464
aF0.2016901191435337
abababag1
(g2
g3
Ntp401
Rp402
(lp403
I0
ag1
(g7
g3
Ntp404
Rp405
(lp406
g1
(g11
g3
Ntp407
Rp408
(lp409
F0.04407863201583184
aF-0.022380838623250632
aF-0.15212817443858956
abag1
(g15
g3
Ntp410
Rp411
(lp412
F0.214706568026747
aF0.1676436481981373
aF0.9614547058206537
aF-0.03743722105492469
ababa(F0.1460546496635237
F0.12249999999999997
F1.5707963267948966
F0.012250000000000004
F-0.3490658503988659
F0.25500000000000006
F1.5707963267948966
F0.025500000000000016
F-0.3490658503988659
F1.0150000000000006
F0.28239500165764003
F0.4985000000000004
F1.0471975511965976
F0.9028738831027414
F0.0
F-0.4560987755982987
F0.09486805510319206
tp413
aF0.0299574660713528
aF0.024795164748573278
ag1
(g20
g3
Ntp414
Rp415
(lp416
g1
(g24
g3
Ntp417
Rp418
(lp419
I0
ag1
(g28
g3
Ntp420
Rp421
(lp422
I0
aI0
abaS'shadowhandnew'
p423
abag1
(g33
g3
Ntp424
Rp425
(lp426
F0.960429138778732
aF-0.1920858277557464
aF0.2016901191435337
abababag1
(g2
g3
Ntp427
Rp428
(lp429
I0
ag1
(g7
g3
Ntp430
Rp431
(lp432
g1
(g11
g3
Ntp433
Rp434
(lp435
F-0.01651902153208121
aF0.007942162509346793
aF-0.1904102110656856
abag1
(g15
g3
Ntp436
Rp437
(lp438
F0.4103583326581287
aF-0.29878592908150187
aF0.8494098601563999
aF0.14434644737585134
ababa(F-0.3490658503988659
F0.2912500000000001
F1.2550312192465714
F0.02912500000000002
F-0.3490658503988659
F0.10124999999999998
F1.5707963267948966
F0.010125000000000002
F-0.3490658503988659
F0.15375
F1.5707963267948966
F0.015375000000000007
F1.0471975511965976
F0.7279550653376378
F0.0
F-0.45859877559829876
F0.065
tp439
aF0.03315832944189154
aF0.023948546739393527
ag1
(g20
g3
Ntp440
Rp441
(lp442
g1
(g24
g3
Ntp443
Rp444
(lp445
I0
ag1
(g28
g3
Ntp446
Rp447
(lp448
I0
aI0
abaS'shadowhandnew'
p449
abag1
(g33
g3
Ntp450
Rp451
(lp452
F0.960429138778732
aF-0.1920858277557464
aF0.2016901191435337
abababag1
(g2
g3
Ntp453
Rp454
(lp455
I0
ag1
(g7
g3
Ntp456
Rp457
(lp458
g1
(g11
g3
Ntp459
Rp460
(lp461
F0.04313172728661183
aF-0.046622224051021045
aF-0.13708081703377373
abag1
(g15
g3
Ntp462
Rp463
(lp464
F0.22216937447417423
aF0.4099927989716861
aF0.8785194567996477
aF-0.10368335383063527
ababa(F0.049254976015021795
F0.49390453135450263
F1.150587989003585
F0.11687500000000009
F-0.3490658503988659
F0.3437500000000001
F1.5707963267948966
F0.034375000000000024
F-0.3490658503988659
F1.231210392551993
F0.09787500000000007
F0.32922775121911974
F0.843029819236135
F1.2217304763960306
F0.0
F-0.28750216861272954
F0.05750000000000001
tp465
aF0.03965798674842721
aF0.06428235612505566
ag1
(g20
g3
Ntp466
Rp467
(lp468
g1
(g24
g3
Ntp469
Rp470
(lp471
I0
ag1
(g28
g3
Ntp472
Rp473
(lp474
I0
aI0
abaS'shadowhandnew'
p475
abag1
(g33
g3
Ntp476
Rp477
(lp478
F0.960429138778732
aF-0.1920858277557464
aF0.2016901191435337
abababag1
(g2
g3
Ntp479
Rp480
(lp481
I0
ag1
(g7
g3
Ntp482
Rp483
(lp484
g1
(g11
g3
Ntp485
Rp486
(lp487
F0.06204037293691829
aF-0.017336199802359575
aF-0.097353374304742
abag1
(g15
g3
Ntp488
Rp489
(lp490
F-0.06339949275696245
aF-0.15056842098768636
aF0.9865171167634008
aF-0.009676427660124958
ababa(F-0.00604631727534566
F0.8283682645858639
F0.6674373124665482
F1.5707963267948966
F-0.3490658503988659
F0.6100000000000003
F1.5707963267948966
F0.06100000000000005
F-0.3490658503988659
F0.4370484577454834
F1.5707963267948966
F0.6288859553786255
F-0.8321975511965973
F1.2217304763960306
F0.0
F0.5235987755982988
F0.21500000000000005
tp491
aF0.024911750802701443
aF0.296164536922635
ag1
(g20
g3
Ntp492
Rp493
(lp494
g1
(g24
g3
Ntp495
Rp496
(lp497
I0
ag1
(g28
g3
Ntp498
Rp499
(lp500
I0
aI0
abaS'shadowhandnew'
p501
abag1
(g33
g3
Ntp502
Rp503
(lp504
F0.960429138778732
aF-0.1920858277557464
aF0.2016901191435337
abababag1
(g2
g3
Ntp505
Rp506
(lp507
I0
ag1
(g7
g3
Ntp508
Rp509
(lp510
g1
(g11
g3
Ntp511
Rp512
(lp513
F0.055164829267394494
aF-0.04153520127543748
aF-0.12778484901603954
abag1
(g15
g3
Ntp514
Rp515
(lp516
F0.15497525972805334
aF0.29956901911072564
aF0.9401076233650045
aF-0.04938348056043546
ababa(F0.25989598341617154
F0.19250000000000003
F1.5707963267948966
F0.01925000000000001
F-0.3490658503988659
F0.12749999999999997
F1.512926605803643
F1.1567275934520698
F-0.3490658503988659
F0.5400000000000003
F1.5707963267948966
F1.5707963267948966
F1.0471975511965976
F1.2217304763960306
F0.0
F-0.5001601683630746
F0.005
tp517
aF0.05216007990980076
aF0.0822883733964025
ag1
(g20
g3
Ntp518
Rp519
(lp520
g1
(g24
g3
Ntp521
Rp522
(lp523
I0
ag1
(g28
g3
Ntp524
Rp525
(lp526
I0
aI0
abaS'shadowhandnew'
p527
abag1
(g33
g3
Ntp528
Rp529
(lp530
F0.960429138778732
aF-0.1920858277557464
aF0.2016901191435337
abababag1
(g2
g3
Ntp531
Rp532
(lp533
I0
ag1
(g7
g3
Ntp534
Rp535
(lp536
g1
(g11
g3
Ntp537
Rp538
(lp539
F-0.009025381329111638
aF-0.0479501665381475
aF-0.1833916257148313
abag1
(g15
g3
Ntp540
Rp541
(lp542
F0.47199770341974234
aF0.22805519473427907
aF0.8419403417066822
aF-0.12784935325622196
ababa(F-0.3490658503988659
F0.23375000000000007
F1.1219739263116066
F0.023375000000000014
F-0.3490658503988659
F0.14497127594785322
F1.5707963267948966
F0.00375
F-0.3490658503988659
F0.9737500000000007
F0.09737500000000007
F0.4983750000000004
F1.0471975511965976
F1.2217304763960306
F0.0
F-0.3035987755982987
F0.22000000000000006
tp543
aF0.04263398630935887
aF0.01646906564336351
ag1
(g20
g3
Ntp544
Rp545
(lp546
g1
(g24
g3
Ntp547
Rp548
(lp549
I0
ag1
(g28
g3
Ntp550
Rp551
(lp552
I0
aI0
abaS'shadowhandnew'
p553
abag1
(g33
g3
Ntp554
Rp555
(lp556
F0.960429138778732
aF-0.1920858277557464
aF0.2016901191435337
abababag1
(g2
g3
Ntp557
Rp558
(lp559
I0
ag1
(g7
g3
Ntp560
Rp561
(lp562
g1
(g11
g3
Ntp563
Rp564
(lp565
F0.0756671299438246
aF-0.005257401785086724
aF-0.09077555818305132
abag1
(g15
g3
Ntp566
Rp567
(lp568
F-0.17824809293777313
aF-0.22459754875526802
aF0.957096609676928
aF-0.04182867679119532
ababa(F-0.3490658503988659
F1.0406250000000008
F0.10406250000000009
F0.4960625000000004
F-0.3490658503988659
F0.4243750000000002
F0.30306250000000023
F1.5707963267948966
F0.17831428794241833
F0.988860829763291
F0.17906250000000015
F1.5707963267948966
F-0.6914485159046121
F1.2217304763960306
F0.0
F-0.4292237755982987
F1.5707963267948966
tp569
aF0.02067400135176997
aF0.09953098764344619
ag1
(g20
g3
Ntp570
Rp571
(lp572
g1
(g24
g3
Ntp573
Rp574
(lp575
I0
ag1
(g28
g3
Ntp576
Rp577
(lp578
I0
aI0
abaS'shadowhandnew'
p579
abag1
(g33
g3
Ntp580
Rp581
(lp582
F0.960429138778732
aF-0.1920858277557464
aF0.2016901191435337
abababag1
(g2
g3
Ntp583
Rp584
(lp585
I0
ag1
(g7
g3
Ntp586
Rp587
(lp588
g1
(g11
g3
Ntp589
Rp590
(lp591
F0.06973804789299261
aF-0.024086304078675867
aF-0.041555028300942765
abag1
(g15
g3
Ntp592
Rp593
(lp594
F-0.40728061878615357
aF-0.024264612832726816
aF0.9129165028104889
aF-0.010825203070264704
ababa(F-0.250442112579557
F0.060000000000000005
F0.22525000000000017
F1.5707963267948966
F-0.12356441493354836
F0.3923985676120986
F1.5707963267948966
F0.4982500000000004
F-0.11432977582350481
F1.0750101856629202
F0.010750000000000003
F1.5707963267948966
F-0.34363968810158696
F0.4425000000000002
F0.0
F0.5235987755982988
F0.6927318740703763
tp595
aF0.0026881555859531456
aF0.0004635991587876911
ag1
(g20
g3
Ntp596
Rp597
(lp598
g1
(g24
g3
Ntp599
Rp600
(lp601
I0
ag1
(g28
g3
Ntp602
Rp603
(lp604
I0
aI0
abaS'shadowhandnew'
p605
abag1
(g33
g3
Ntp606
Rp607
(lp608
F0.960429138778732
aF-0.1920858277557464
aF0.2016901191435337
abababag1
(g2
g3
Ntp609
Rp610
(lp611
I0
ag1
(g7
g3
Ntp612
Rp613
(lp614
g1
(g11
g3
Ntp615
Rp616
(lp617
F0.018724723644902467
aF-0.05184059788516057
aF0.0024909908443663084
abag1
(g15
g3
Ntp618
Rp619
(lp620
F-0.4341737621730063
aF0.4260161900633454
aF0.7549702482195021
aF0.2449964782355714
ababa(F0.020456811411864454
F0.7600000000000005
F1.5707963267948966
F0.07600000000000005
F-0.3490658503988659
F0.9200000000000006
F1.5707963267948966
F1.5707963267948966
F-0.3490658503988659
F1.0275000000000007
F0.7182154915688876
F0.9254565591491601
F-0.4721975511965971
F1.2217304763960306
F0.0
F0.5235987755982988
F1.5707963267948966
tp621
aF0.009527561043086719
aF0.07761529539586055
ag1
(g20
g3
Ntp622
Rp623
(lp624
g1
(g24
g3
Ntp625
Rp626
(lp627
I0
ag1
(g28
g3
Ntp628
Rp629
(lp630
I0
aI0
abaS'shadowhandnew'
p631
abag1
(g33
g3
Ntp632
Rp633
(lp634
F0.960429138778732
aF-0.1920858277557464
aF0.2016901191435337
abababag1
(g2
g3
Ntp635
Rp636
(lp637
I0
ag1
(g7
g3
Ntp638
Rp639
(lp640
g1
(g11
g3
Ntp641
Rp642
(lp643
F0.03269009503164922
aF0.02380353584646157
aF-0.1794838621641825
abag1
(g15
g3
Ntp644
Rp645
(lp646
F0.27319073207918254
aF-0.2789667164750536
aF0.9168615887877906
aF0.08312173007520862
ababa(F-0.1149359808717827
F0.8671225441300446
F0.009500000000000001
F0.2980000000000002
F-0.3490658503988659
F0.5848850066297797
F0.07066182872526994
F1.5707963267948966
F-0.3490658503988659
F1.330000000000001
F1.5707963267948966
F1.5707963267948966
F1.0471975511965976
F1.2217304763960306
F0.0
F-0.1835987755982985
F0.34000000000000014
tp647
aF0.04362009628663452
aF0.006718401728499497
ag1
(g20
g3
Ntp648
Rp649
(lp650
g1
(g24
g3
Ntp651
Rp652
(lp653
I0
ag1
(g28
g3
Ntp654
Rp655
(lp656
I0
aI0
abaS'shadowhandnew'
p657
abag1
(g33
g3
Ntp658
Rp659
(lp660
F0.960429138778732
aF-0.1920858277557464
aF0.2016901191435337
abababag1
(g2
g3
Ntp661
Rp662
(lp663
I0
ag1
(g7
g3
Ntp664
Rp665
(lp666
g1
(g11
g3
Ntp667
Rp668
(lp669
F0.06850468646250801
aF-0.0033661400524154167
aF-0.1470080942034981
abag1
(g15
g3
Ntp670
Rp671
(lp672
F0.072597773700995
aF-0.029654636618059442
aF0.9969180017786771
aF0.002159516223542997
ababa(F-0.3490658503988659
F0.7485397466409749
F0.012375000000000004
F1.1563234402487397
F-0.3490658503988659
F0.6612500000000004
F0.06612500000000004
F1.5707963267948966
F-0.3490658503988659
F0.9212500000000007
F1.5707963267948966
F0.8713971645543044
F0.8193309565448004
F1.2217304763960306
F0.0
F-0.2185987755982985
F0.30500000000000016
tp673
aF0.011838039575286494
aF0.011663396598471782
ag1
(g20
g3
Ntp674
Rp675
(lp676
g1
(g24
g3
Ntp677
Rp678
(lp679
I0
ag1
(g28
g3
Ntp680
Rp681
(lp682
I0
aI0
abaS'shadowhandnew'
p683
abag1
(g33
g3
Ntp684
Rp685
(lp686
F0.960429138778732
aF-0.1920858277557464
aF0.2016901191435337
abababag1
(g2
g3
Ntp687
Rp688
(lp689
I0
ag1
(g7
g3
Ntp690
Rp691
(lp692
g1
(g11
g3
Ntp693
Rp694
(lp695
F0.08431290560875464
aF0.015315407873581176
aF-0.04876554250955357
abag1
(g15
g3
Ntp696
Rp697
(lp698
F-0.3686196845674544
aF-0.19904962644455723
aF0.9043874053695671
aF-0.08113073012475121
ababa(F-0.3490658503988659
F0.9587500000000007
F0.09587500000000007
F1.5707963267948966
F-0.3490658503988659
F0.7187500000000004
F1.5707963267948966
F1.5707963267948966
F-0.3490658503988659
F1.0267667155163327
F0.00725
F1.4878133258466477
F-0.7734475511965975
F1.2217304763960306
F0.0
F0.5235987755982988
F0.2737500000000001
tp699
aF0.04297413452374043
aF0.19816219999175497
ag1
(g20
g3
Ntp700
Rp701
(lp702
g1
(g24
g3
Ntp703
Rp704
(lp705
I0
ag1
(g28
g3
Ntp706
Rp707
(lp708
I0
aI0
abaS'shadowhandnew'
p709
abag1
(g33
g3
Ntp710
Rp711
(lp712
F0.960429138778732
aF-0.1920858277557464
aF0.2016901191435337
abababag1
(g2
g3
Ntp713
Rp714
(lp715
I0
ag1
(g7
g3
Ntp716
Rp717
(lp718
g1
(g11
g3
Ntp719
Rp720
(lp721
F0.038238742578833196
aF-0.02927037183996631
aF-0.0021970042368315602
abag1
(g15
g3
Ntp722
Rp723
(lp724
F-0.44758915431231394
aF0.3586387437466258
aF0.7938205703144326
aF0.20221548548886778
ababa(F0.10720206042267898
F0.47500000000000026
F1.5707963267948966
F0.047500000000000035
F-0.3490658503988659
F1.0753902942420208
F0.07250000000000005
F1.5707963267948966
F0.023714664819100006
F1.5707963267948966
F0.22650000000000017
F0.8285490204272091
F0.20929555903441927
F1.2217304763960306
F0.0
F0.5235987755982988
F1.5707963267948966
tp725
aF0.009066418908067808
aF0.014225162240730237
ag1
(g20
g3
Ntp726
Rp727
(lp728
g1
(g24
g3
Ntp729
Rp730
(lp731
I0
ag1
(g28
g3
Ntp732
Rp733
(lp734
I0
aI0
abaS'shadowhandnew'
p735
abag1
(g33
g3
Ntp736
Rp737
(lp738
F0.960429138778732
aF-0.1920858277557464
aF0.2016901191435337
abababag1
(g2
g3
Ntp739
Rp740
(lp741
I0
ag1
(g7
g3
Ntp742
Rp743
(lp744
g1
(g11
g3
Ntp745
Rp746
(lp747
F0.08131246550512516
aF-0.016493527465346918
aF-0.04883263612165085
abag1
(g15
g3
Ntp748
Rp749
(lp750
F-0.353690883772201
aF0.09945131974382855
aF0.9292897592015977
aF0.03785151490610119
ababa(F-0.3490658503988659
F0.42500000000000016
F1.5707963267948966
F0.04250000000000003
F-0.3490658503988659
F0.8712500000000005
F0.08712500000000006
F1.5707963267948966
F-0.3490658503988659
F1.5707963267948966
F1.5707963267948966
F0.49962500000000043
F0.07905244880340317
F1.2217304763960306
F0.0
F0.5235987755982988
F1.1262500000000006
tp751
aF0.013691079918291504
aF0.009242224052433459
ag1
(g20
g3
Ntp752
Rp753
(lp754
g1
(g24
g3
Ntp755
Rp756
(lp757
I0
ag1
(g28
g3
Ntp758
Rp759
(lp760
I0
aI0
abaS'shadowhandnew'
p761
abag1
(g33
g3
Ntp762
Rp763
(lp764
F0.960429138778732
aF-0.1920858277557464
aF0.2016901191435337
abababag1
(g2
g3
Ntp765
Rp766
(lp767
I0
ag1
(g7
g3
Ntp768
Rp769
(lp770
g1
(g11
g3
Ntp771
Rp772
(lp773
F0.07249243269342863
aF0.020712740539038776
aF-0.11274499743766382
abag1
(g15
g3
Ntp774
Rp775
(lp776
F0.025812652075657222
aF-0.34036753370806694
aF0.9398916268462896
aF0.00934766144787956
ababa(F-0.3490658503988659
F0.05
F1.5707963267948966
F0.11216643201157617
F-0.3490658503988659
F0.08
F0.4985000000000004
F1.5707963267948966
F-0.3490658503988659
F1.5707963267948966
F1.5707963267948966
F1.5707963267948966
F-0.4421975511965971
F1.2217304763960306
F0.0
F0.0814012244017015
F0.6050000000000003
tp777
aF0.013967684002431258
aF0.0550345008336924
ag1
(g20
g3
Ntp778
Rp779
(lp780
g1
(g24
g3
Ntp781
Rp782
(lp783
I0
ag1
(g28
g3
Ntp784
Rp785
(lp786
I0
aI0
abaS'shadowhandnew'
p787
abag1
(g33
g3
Ntp788
Rp789
(lp790
F0.960429138778732
aF-0.1920858277557464
aF0.2016901191435337
abababag1
(g2
g3
Ntp791
Rp792
(lp793
I0
ag1
(g7
g3
Ntp794
Rp795
(lp796
g1
(g11
g3
Ntp797
Rp798
(lp799
F0.06210946408522399
aF-0.009537424727014049
aF-0.028370254589623244
abag1
(g15
g3
Ntp800
Rp801
(lp802
F-0.3758549710727121
aF0.2145537264295823
aF0.8970048265714866
aF0.08990039100342183
ababa(F-0.07868741805981207
F0.33250000000000013
F1.5707963267948966
F0.19402810392617134
F-0.3490658503988659
F0.5475000000000003
F1.5707963267948966
F0.05475000000000004
F-0.3490658503988659
F1.5707963267948966
F0.4657500000000004
F0.4657500000000004
F1.0471975511965976
F1.2217304763960306
F0.0
F-0.48609877559829884
F0.0375
tp803
aF0.021978336403285836
aF0.004856168427619406
ag1
(g20
g3
Ntp804
Rp805
(lp806
g1
(g24
g3
Ntp807
Rp808
(lp809
I0
ag1
(g28
g3
Ntp810
Rp811
(lp812
I0
aI0
abaS'shadowhandnew'
p813
abag1
(g33
g3
Ntp814
Rp815
(lp816
F0.960429138778732
aF-0.1920858277557464
aF0.2016901191435337
abababag1
(g2
g3
Ntp817
Rp818
(lp819
I0
ag1
(g7
g3
Ntp820
Rp821
(lp822
g1
(g11
g3
Ntp823
Rp824
(lp825
F0.015219657812072605
aF-0.011556828954430309
aF-0.17714368207567305
abag1
(g15
g3
Ntp826
Rp827
(lp828
F0.32606874412741976
aF-0.14192884173276618
aF0.9333148937354008
aF0.04958515018874497
ababa(F-0.05833082562261036
F0.131875
F1.5707963267948966
F0.013187500000000005
F-0.3490658503988659
F0.6506250000000005
F0.06506250000000005
F1.5707963267948966
F-0.3490658503988659
F0.4968750000000003
F0.4990625000000004
F1.5707963267948966
F1.0471975511965976
F0.784595666776142
F0.0
F-0.4867237755982988
F0.036875
tp829
aF0.0345527242305811
aF0.034557455225291106
ag1
(g20
g3
Ntp830
Rp831
(lp832
g1
(g24
g3
Ntp833
Rp834
(lp835
I0
ag1
(g28
g3
Ntp836
Rp837
(lp838
I0
aI0
abaS'shadowhandnew'
p839
abag1
(g33
g3
Ntp840
Rp841
(lp842
F0.960429138778732
aF-0.1920858277557464
aF0.2016901191435337
abababag1
(g2
g3
Ntp843
Rp844
(lp845
I0
ag1
(g7
g3
Ntp846
Rp847
(lp848
g1
(g11
g3
Ntp849
Rp850
(lp851
F0.039066731954672036
aF-0.025760098145036683
aF-0.011347438817761898
abag1
(g15
g3
Ntp852
Rp853
(lp854
F-0.48694559339894194
aF0.0319390260757331
aF0.8726661833841418
aF0.01782189834000477
ababa(F-0.3490658503988659
F0.9887500000000007
F0.4968750000000004
F0.4968750000000004
F-0.3490658503988659
F1.4585263254492196
F0.0045000000000000005
F1.5707963267948966
F-0.3490658503988659
F1.170360074483253
F0.05287500000000004
F1.5707963267948966
F0.5250884993395255
F0.8334325369062128
F0.0
F-0.25484877559829855
F0.5287500000000003
tp855
aF0.02004525007442018
aF0.0006401508698782153
ag1
(g20
g3
Ntp856
Rp857
(lp858
g1
(g24
g3
Ntp859
Rp860
(lp861
I0
ag1
(g28
g3
Ntp862
Rp863
(lp864
I0
aI0
abaS'shadowhandnew'
p865
abag1
(g33
g3
Ntp866
Rp867
(lp868
F0.960429138778732
aF-0.1920858277557464
aF0.2016901191435337
abababag1
(g2
g3
Ntp869
Rp870
(lp871
I0
ag1
(g7
g3
Ntp872
Rp873
(lp874
g1
(g11
g3
Ntp875
Rp876
(lp877
F0.07273543227798489
aF0.004735711190259764
aF-0.06535713805065708
abag1
(g15
g3
Ntp878
Rp879
(lp880
F-0.2809801321293125
aF-0.2818390371942832
aF0.9132898416544413
aF-0.08670978948653547
ababa(F0.06244321907001808
F1.0462500000000006
F0.10462500000000008
F1.5707963267948966
F0.09183368139527316
F1.1512500000000006
F0.4395417521378002
F0.11512500000000009
F0.024532848541460192
F0.5912500000000004
F1.5707963267948966
F0.059125000000000046
F0.0107907582510317
F0.31125000000000014
F0.0
F0.5235987755982988
F0.31125000000000014
tp881
aF0.005386873318226723
aF0.030072043505932195
ag1
(g20
g3
Ntp882
Rp883
(lp884
g1
(g24
g3
Ntp885
Rp886
(lp887
I0
ag1
(g28
g3
Ntp888
Rp889
(lp890
I0
aI0
abaS'shadowhandnew'
p891
abag1
(g33
g3
Ntp892
Rp893
(lp894
F0.960429138778732
aF-0.1920858277557464
aF0.2016901191435337
abababag1
(g2
g3
Ntp895
Rp896
(lp897
I0
ag1
(g7
g3
Ntp898
Rp899
(lp900
g1
(g11
g3
Ntp901
Rp902
(lp903
F0.057638039218223594
aF-0.041692335131828316
aF-0.13143557379574566
abag1
(g15
g3
Ntp904
Rp905
(lp906
F0.062098854238546296
aF0.20391038569856232
aF0.9769320774095006
aF-0.012961598469361136
ababa(F-0.3490658503988659
F0.8502037409780473
F0.023250000000000014
F1.5707963267948966
F-0.3490658503988659
F0.6625000000000004
F1.05345758153311
F1.465638781611818
F-0.3490658503988659
F1.1425000000000007
F0.11425000000000009
F0.11425000000000009
F0.8103024488034036
F1.2217304763960306
F0.0
F0.5235987755982988
F1.5707963267948966
tp907
aF0.0032963738162012715
aF0.008307743534518464
ag1
(g20
g3
Ntp908
Rp909
(lp910
g1
(g24
g3
Ntp911
Rp912
(lp913
I0
ag1
(g28
g3
Ntp914
Rp915
(lp916
I0
aI0
abaS'shadowhandnew'
p917
abag1
(g33
g3
Ntp918
Rp919
(lp920
F0.960429138778732
aF-0.1920858277557464
aF0.2016901191435337
abababag1
(g2
g3
Ntp921
Rp922
(lp923
I0
ag1
(g7
g3
Ntp924
Rp925
(lp926
g1
(g11
g3
Ntp927
Rp928
(lp929
F0.029401403590677545
aF-0.004069298977650187
aF-0.16336125322484013
abag1
(g15
g3
Ntp930
Rp931
(lp932
F0.3221366620030302
aF-0.0491171875646182
aF0.945269958202522
aF0.01673854829696484
ababa(F0.014796997467720849
F0.0125
F1.5707963267948966
F0.00125
F-0.3490658503988659
F0.23625000000000007
F1.5693918959019593
F0.07562500000000005
F-0.3490658503988659
F0.5881641463879925
F1.5707963267948966
F0.49762500000000043
F0.8371841706166141
F1.2217304763960306
F0.0
F-0.42234877559829864
F0.10124999999999998
tp933
aF0.02675798842261254
aF0.10445649100329055
ag1
(g20
g3
Ntp934
Rp935
(lp936
g1
(g24
g3
Ntp937
Rp938
(lp939
I0
ag1
(g28
g3
Ntp940
Rp941
(lp942
I0
aI0
abaS'shadowhandnew'
p943
abag1
(g33
g3
Ntp944
Rp945
(lp946
F0.960429138778732
aF-0.1920858277557464
aF0.2016901191435337
abababag1
(g2
g3
Ntp947
Rp948
(lp949
I0
ag1
(g7
g3
Ntp950
Rp951
(lp952
g1
(g11
g3
Ntp953
Rp954
(lp955
F0.006612686113398311
aF0.0239334866141004
aF-0.18350267050676888
abag1
(g15
g3
Ntp956
Rp957
(lp958
F0.3543558436748213
aF-0.31271445123798547
aF0.872063700327011
aF0.12706892071782394
ababa(F-0.3490658503988659
F0.07125000000000001
F1.5707963267948966
F0.007125
F-0.3490658503988659
F0.4975000000000003
F0.34100000000000025
F1.5707963267948966
F-0.3490658503988659
F0.6000000000000003
F0.060000000000000046
F0.8473834641363929
F1.0471975511965976
F0.9525819387379904
F0.0
F-0.42359877559829867
F0.1
tp959
aF0.06850384907144672
aF0.08189025768570178
ag1
(g20
g3
Ntp960
Rp961
(lp962
g1
(g24
g3
Ntp963
Rp964
(lp965
I0
ag1
(g28
g3
Ntp966
Rp967
(lp968
I0
aI0
abaS'shadowhandnew'
p969
abag1
(g33
g3
Ntp970
Rp971
(lp972
F0.960429138778732
aF-0.1920858277557464
aF0.2016901191435337
abababag1
(g2
g3
Ntp973
Rp974
(lp975
I0
ag1
(g7
g3
Ntp976
Rp977
(lp978
g1
(g11
g3
Ntp979
Rp980
(lp981
F0.03195737972069799
aF-0.026350762924277054
aF-0.1615436655108208
abag1
(g15
g3
Ntp982
Rp983
(lp984
F0.293334838394948
aF0.2594116602184123
aF0.9163869474158352
aF-0.08303749594264269
ababa(F0.14952431462499097
F0.18427489706775435
F0.4982500000000004
F1.5707963267948966
F-0.3490658503988659
F0.9325000000000007
F0.09325000000000007
F0.4982500000000004
F-0.3490658503988659
F0.6250000000000003
F1.5707963267948966
F0.19135084096251848
F1.0471975511965976
F1.1224956290096102
F0.0
F-0.4185987755982987
F0.10499999999999998
tp985
aF0.024030234242029866
aF0.007611563959636586
ag1
(g20
g3
Ntp986
Rp987
(lp988
g1
(g24
g3
Ntp989
Rp990
(lp991
I0
ag1
(g28
g3
Ntp992
Rp993
(lp994
I0
aI0
abaS'shadowhandnew'
p995
abag1
(g33
g3
Ntp996
Rp997
(lp998
F0.960429138778732
aF-0.1920858277557464
aF0.2016901191435337
abababa.