(lp0
(F-0.09453711121387658
F0.061875
F0.0061875
F1.5707963267948966
F-0.3490658503988659
F0.4281250000000003
F0.19281250000000016
F0.8971950289745633
F-0.3490658503988659
F0.3356250000000002
F0.3970926389246914
F1.5707963267948966
F0.5111159033219511
F1.2217304763960306
F0.0
F-0.0521106916751643
F0.05562500000000001
tp1
a(F-0.3490658503988659
F0.12499999999999997
F0.7457785021531731
F0.012500000000000004
F-0.3490658503988659
F0.4212500000000002
F0.04212500000000003
F0.9811659445158516
F-0.3490658503988659
F0.025
F1.5707963267948966
F0.0025
F0.16311977785932996
F1.2217304763960306
F0.0
F0.5235987755982988
F0.33500000000000013
tp2
a(F-0.3490658503988659
F1.161864453520007
F1.5707963267948966
F1.5707963267948966
F-0.3490658503988659
F1.2419103806174123
F0.10125000000000008
F0.10125000000000008
F-0.3490658503988659
F0.6425000000000003
F0.996718371065774
F1.4109426488662116
F-0.5221975511965972
F1.2217304763960306
F0.0
F0.06278553825721081
F1.5707963267948966
tp3
a(F0.11030638806957727
F0.19187500000000005
F0.1419375000000001
F1.5707963267948966
F-0.3490658503988659
F0.8568750000000006
F0.08568750000000007
F1.5707963267948966
F-0.3490658503988659
F1.1593750000000007
F0.9992539651931974
F0.1159375000000001
F0.7470978934071449
F1.2217304763960306
F0.0
F-0.5017237755982988
F0.021875
tp4
a(F-0.3490658503988659
F0.6796839645427754
F1.5707963267948966
F1.5707963267948966
F-0.3490658503988659
F1.1427945321303472
F0.015812500000000007
F1.073863835685361
F-0.3490658503988659
F1.349375000000001
F0.13493750000000013
F0.13493750000000013
F-0.0015185027212595496
F1.2217304763960306
F0.0
F-0.48047377559829874
F0.043125
tp5
a(F-0.3490658503988659
F0.9725000000000006
F0.09725000000000007
F1.5707963267948966
F-0.3490658503988659
F0.5794906711447656
F1.4662243421688181
F0.02875000000000002
F-0.3490658503988659
F1.2412500000000009
F0.1241250000000001
F0.1241250000000001
F-0.6971975511965973
F1.2217304763960306
F0.0
F0.5235987755982988
F0.845877775319986
tp6
a(F-0.3490658503988659
F0.8542795735722826
F0.004625000000000001
F1.5707963267948966
F-0.3490658503988659
F1.3475000000000008
F0.1347500000000001
F0.43675000000000036
F-0.3490658503988659
F1.5707963267948966
F1.5707963267948966
F1.5707963267948966
F0.04044085039566675
F1.2217304763960306
F0.0
F-0.4535987755982988
F0.07
tp7
a(F-0.3490658503988659
F0.10374999999999998
F1.5707963267948966
F0.010375000000000002
F-0.3490658503988659
F0.6612500000000004
F0.3521250000000003
F1.5707963267948966
F-0.3490658503988659
F0.7449786507725492
F1.1620985437510336
F0.07112500000000005
F-0.3402121261126156
F1.2217304763960306
F0.0
F0.5235987755982988
F1.5707963267948966
tp8
a(F-0.3490658503988659
F0.44000000000000017
F0.4970000000000004
F0.7937113789756913
F-0.3490658503988659
F0.0275
F1.5707963267948966
F1.5707963267948966
F-0.3490658503988659
F0.9074331535400374
F0.3760000000000003
F1.5707963267948966
F-0.8896975511965974
F0.1575
F0.0
F-0.3660987755982986
F0.8932274759857878
tp9
a(F-0.3490658503988659
F0.8943750000000006
F0.08943750000000007
F0.5521805123351696
F-0.3490658503988659
F0.29812500000000014
F1.5707963267948966
F0.02981250000000002
F-0.3490658503988659
F0.18312500000000004
F1.5707963267948966
F0.3251798943673549
F0.2810698175376676
F1.2217304763960306
F0.0
F-0.42172377559829877
F0.30812500000000015
tp10
a(F-0.3490658503988659
F0.36000000000000015
F0.4980000000000004
F1.5707963267948966
F0.3490658503988659
F1.4641294289605598
F0.0011250000000000001
F1.4078296513505726
F-0.3490658503988659
F1.2889135320972784
F0.03200000000000002
F1.5707963267948966
F-0.9996975511965976
F0.774228182160079
F0.0
F0.5235987755982988
F0.0475
tp11
a(F0.09767085641860489
F0.17125
F1.5707963267948966
F0.01712500000000001
F-0.3490658503988659
F0.9250000000000007
F0.09250000000000007
F1.5707963267948966
F-0.3490658503988659
F1.2862500000000012
F0.1286250000000001
F0.1286250000000001
F-0.2635585458862946
F1.2217304763960306
F0.0
F-0.41234877559829874
F1.2038492348479046
tp12
a(F-0.21814760098977895
F1.333203982054463
F0.026125000000000016
F0.4511250000000004
F-0.3490658503988659
F1.2911915702528065
F0.008125
F1.1845636668022252
F-0.3490658503988659
F1.5707963267948966
F0.07312500000000005
F0.20712500000000017
F-1.0071975511965976
F1.2217304763960306
F0.0
F0.5235987755982988
F1.5707963267948966
tp13
a(F-0.3490658503988659
F0.02375
F1.3716230734600616
F0.7982659213977413
F-0.3490658503988659
F0.9375000000000006
F0.09375000000000007
F1.5707963267948966
F-0.3490658503988659
F0.9731599429562039
F0.07112500000000005
F1.5707963267948966
F-0.2687652736434798
F1.2217304763960306
F0.0
F-0.47984877559829875
F1.5707963267948966
tp14
a(F-0.3490658503988659
F0.26750000000000007
F0.026750000000000017
F0.2585000000000002
F-0.3490658503988659
F0.2850000000000001
F0.02850000000000002
F0.4965000000000004
F-0.3490658503988659
F0.0
F0.21450000000000016
F1.5707963267948966
F1.0471975511965976
F0.07625000000000001
F0.0
F-0.4473487755982987
F0.07625000000000001
tp15
a(F-0.3490658503988659
F0.5125000000000003
F1.5707963267948966
F0.05125000000000004
F-0.3490658503988659
F1.2252047055147637
F0.021375000000000012
F1.5707963267948966
F-0.3490658503988659
F1.3975000000000009
F0.1397500000000001
F0.1397500000000001
F-0.7046975511965973
F1.2217304763960306
F0.0
F0.5235987755982988
F0.3425000000000002
tp16
a(F-0.3490658503988659
F0.9462500000000006
F0.7556930735442395
F1.1963892320555094
F-0.3490658503988659
F0.7912500000000005
F1.5707963267948966
F1.5707963267948966
F-0.3490658503988659
F0.3871333807481049
F1.5707963267948966
F1.1023912155678752
F-0.48094755119659716
F1.2217304763960306
F0.0
F0.04265122440170151
F1.5707963267948966
tp17
a(F-0.3490658503988659
F0.5712500000000004
F1.0681243895020462
F1.5707963267948966
F-0.3490658503988659
F0.5562500000000004
F0.05562500000000004
F1.5707963267948966
F-0.3490658503988659
F0.08625
F1.5707963267948966
F0.008625
F-0.28633492389768944
F1.2217304763960306
F0.0
F0.5235987755982988
F1.5707963267948966
tp18
a(F-0.3490658503988659
F1.2410818142557236
F0.0017500000000000003
F1.4046827701101972
F-0.3490658503988659
F1.49850364272316
F0.28712500000000024
F0.28712500000000024
F-0.3490658503988659
F1.5707963267948966
F0.1351506137327146
F0.10012500000000008
F-0.8559475511965974
F1.2217304763960306
F0.0
F0.5235987755982988
F0.19125000000000003
tp19
a(F-0.3490658503988659
F0.1675
F0.8307059755886705
F0.4980000000000004
F-0.3490658503988659
F0.045
F1.5707963267948966
F0.0045000000000000005
F-0.3490658503988659
F0.5700000000000003
F0.4980000000000004
F0.4980000000000004
F0.016670488342896174
F1.2217304763960306
F0.0
F0.13492909613333112
F1.5707963267948966
tp20
a(F0.19444361207795272
F0.8937500000000006
F0.08937500000000007
F1.5707963267948966
F-0.3490658503988659
F0.35000000000000014
F1.5707963267948966
F0.035000000000000024
F-0.32276669444289613
F0.37000000000000016
F1.5707963267948966
F1.5707963267948966
F-0.36101511430436295
F1.2217304763960306
F0.0
F0.5235987755982988
F0.25000000000000006
tp21
a(F-0.3490658503988659
F0.12937499999999996
F0.012937500000000005
F0.6525406682798758
F-0.3490658503988659
F0.176875
F0.01768750000000001
F1.0524739237227945
F-0.3490658503988659
F0.0025
F0.22568750000000018
F1.5707963267948966
F1.0471975511965976
F0.06937499999999999
F0.0
F-0.4542237755982988
F0.06937499999999999
tp22
a(F0.1595781583688077
F0.011250000000000001
F1.438985043660296
F0.0011250000000000001
F-0.3490658503988659
F1.0452418411057496
F0.026250000000000016
F1.2131201363837325
F-0.3490658503988659
F1.1162500000000009
F0.11162500000000009
F0.6951815840872536
F0.4373847335702975
F1.2217304763960306
F0.0
F-0.5110987755982989
F0.012500000000000002
tp23
a(F-0.3490658503988659
F0.04875
F0.21825000000000017
F0.4962500000000004
F-0.3490658503988659
F0.10749999999999998
F0.010750000000000003
F1.5707963267948966
F-0.3490658503988659
F0.23250000000000007
F0.22537111029087947
F1.5707963267948966
F0.8878567264754657
F1.1077690259509614
F0.0
F-0.5123487755982988
F0.10749999999999998
tp24
a(F-0.3490658503988659
F1.5456303978738157
F1.5707963267948966
F1.5707963267948966
F-0.3490658503988659
F0.39375000000000016
F1.5707963267948966
F1.5707963267948966
F-0.3490658503988659
F0.3512500000000002
F0.17737500000000014
F1.5707963267948966
F0.6208201370400805
F1.2217304763960306
F0.0
F-0.4823487755982988
F0.04125
tp25
a(F-0.3490658503988659
F0.179375
F1.5707963267948966
F1.2405177347851983
F-0.3490658503988659
F1.1508394518611738
F0.01931250000000001
F1.2965604163271616
F-0.3490658503988659
F1.417269653866341
F0.057562500000000044
F0.057562500000000044
F-0.11829132635851278
F1.0978201871909752
F0.0
F-0.3748636723290605
F0.08437499999999999
tp26
a(F0.2410277030728912
F0.4108480424714926
F1.5707963267948966
F0.2009913005505382
F-0.3490658503988659
F0.8437500000000007
F0.9262581004192132
F0.7604542791473117
F-0.3490658503988659
F1.1559971433673188
F0.129367787339197
F1.5707963267948966
F-0.3323611227206612
F1.2217304763960306
F0.0
F-0.4773487755982988
F1.5707963267948966
tp27
a(F-0.3490658503988659
F0.36750000000000016
F0.0640004124073704
F0.4977500000000004
F-0.3490658503988659
F0.11249999999999999
F1.3075646537871697
F0.011250000000000003
F-0.3490658503988659
F0.0475
F1.5707963267948966
F0.004750000000000001
F0.7212666252014082
F1.2217304763960306
F0.0
F-0.5185987755982988
F0.2925000000000001
tp28
a(F-0.3490658503988659
F0.9400000000000006
F0.09400000000000008
F1.5707963267948966
F-0.3490658503988659
F1.1312500000000008
F0.2711949487648611
F0.1131250000000001
F-0.3490658503988659
F0.5976799826222123
F1.110045627410626
F1.49591774282611
F-0.4780554683917926
F1.2217304763960306
F0.0
F0.17379532994342206
F1.5707963267948966
tp29
a.