(lp0
(F-0.3490658503988659
F0.8040282984552808
F0.036937500000000026
F1.5707963267948966
F-0.3490658503988659
F1.499375000000001
F1.5707963267948966
F1.5707963267948966
F-0.2611643012601291
F0.35437500000000016
F1.5707963267948966
F0.035437500000000025
F0.08299150611054179
F1.2217304763960306
F0.0
F-0.037223722820345084
F0.32437500000000014
tp1
a(F-0.3490658503988659
F0.2750000000000001
F0.027500000000000017
F0.4965000000000004
F-0.3490658503988659
F0.095
F0.17450000000000013
F1.3198091998521528
F-0.3490658503988659
F0.9250000000000006
F0.5348958864796893
F1.5707963267948966
F1.0471975511965976
F1.2217304763960306
F0.0
F-0.46359877559829876
F0.16322521591157887
tp2
a(F-0.3490658503988659
F0.46375000000000033
F0.046375000000000034
F1.1862890240697768
F-0.3490658503988659
F0.23125000000000007
F0.023125000000000014
F1.5707963267948966
F-0.3490658503988659
F0.7762500000000006
F0.07762500000000006
F1.5707963267948966
F0.9339924142313579
F1.2217304763960306
F0.0
F-0.4710987755982987
F0.052500000000000005
tp3
a(F-0.3490658503988659
F0.5100000000000002
F0.3110000000000002
F1.5707963267948966
F-0.3490658503988659
F0.35500000000000015
F0.4970000000000004
F0.4970000000000004
F-0.3490658503988659
F0.48500000000000026
F1.5707963267948966
F1.5707963267948966
F0.3000397445873811
F1.2217304763960306
F0.0
F-0.4885987755982988
F1.5707963267948966
tp4
a(F-0.3490658503988659
F1.5487500000000012
F1.5707963267948966
F1.5707963267948966
F-0.3490658503988659
F0.2537500000000001
F1.5707963267948966
F0.025375000000000016
F-0.3490658503988659
F0.6287500000000004
F1.5707963267948966
F0.06287500000000004
F0.253659549567787
F1.2217304763960306
F0.0
F-0.3498487755982987
F0.17375000000000002
tp5
a(F-0.3490658503988659
F1.5462500000000012
F0.22362500000000018
F0.22362500000000018
F-0.3490658503988659
F1.0962500000000008
F0.8970216437489638
F0.10962500000000008
F-0.3490658503988659
F1.22221855005187
F0.03787500000000003
F1.2561868221017476
F-0.9309475511965974
F1.2217304763960306
F0.0
F0.5235987755982988
F1.219511758414252
tp6
a(F-0.3490658503988659
F1.5487500000000012
F0.4968750000000004
F1.5707963267948966
F-0.3490658503988659
F1.041934020660125
F0.059875000000000046
F0.7410680306770726
F-0.3490658503988659
F0.5737500000000003
F0.057375000000000044
F1.5707963267948966
F-0.20466065256644073
F1.2217304763960306
F0.0
F0.5235987755982988
F0.5194287324835312
tp7
a(F-0.3490658503988659
F1.0050000000000006
F1.5707963267948966
F0.10050000000000008
F-0.3490658503988659
F0.8475000000000005
F1.5707963267948966
F0.08475000000000006
F-0.3490658503988659
F1.5707963267948966
F0.3735000000000003
F1.5707963267948966
F-0.41219755119659707
F1.2217304763960306
F0.0
F0.5235987755982988
F1.5707963267948966
tp8
a(F-0.3490658503988659
F1.5475807510411563
F1.5707963267948966
F1.269853142612146
F-0.3490658503988659
F1.502500000000001
F0.4962500000000004
F1.5707963267948966
F-0.3490658503988659
F1.5707963267948966
F1.5707963267948966
F0.3862500000000003
F-0.38469755119659704
F0.6625000000000003
F0.0
F0.5235987755982988
F1.5707963267948966
tp9
a.