(lp0
(F0.05057040332952589
F1.446250000000001
F0.3699984086199368
F1.5707963267948966
F0.24870427002610274
F1.49010748498387
F0.21062500000000017
F1.0885788594414745
F0.22660011076681075
F1.3218409996216354
F0.10487500000000008
F1.4701076964913316
F-0.7071975511965973
F0.7618853705935483
F0.0
F0.5235987755982988
F0.34000000000000014
tp1
a(F-0.3490658503988659
F0.5024614015313102
F1.5707963267948966
F0.12449303702310373
F-0.3490658503988659
F1.1943750000000009
F0.1194375000000001
F0.8888331788123971
F-0.3490658503988659
F1.254375000000001
F0.1254375000000001
F0.46523277953907477
F0.41599547311478785
F1.2217304763960306
F0.0
F-0.45422377559829874
F0.069375
tp2
a(F-0.3490658503988659
F0.15875
F1.5707963267948966
F0.015875000000000007
F-0.3490658503988659
F0.34625000000000017
F1.5655184252547272
F0.18540794963946006
F-0.3490658503988659
F1.1262500000000009
F0.11262500000000009
F0.11262500000000009
F0.6547335687601497
F1.2217304763960306
F0.0
F-0.4510987755982987
F0.18231592126042664
tp3
a(F0.2387693940527928
F0.02375
F1.2176947222984358
F0.0023750000000000004
F-0.3490658503988659
F0.2900000000000001
F0.02900000000000002
F1.5707963267948966
F-0.3490658503988659
F0.19750000000000004
F1.5707963267948966
F1.5707963267948966
F0.3411134655890548
F1.2217304763960306
F0.0
F0.5235987755982988
F0.08249999999999999
tp4
a(F-0.3490658503988659
F0.7012500000000005
F1.5707963267948966
F0.07012500000000005
F-0.3490658503988659
F0.7817690071371255
F1.5707963267948966
F0.009125000000000001
F-0.3490658503988659
F1.1967687565260023
F0.09075000000000007
F1.5707963267948966
F0.07805330559422653
F1.2217304763960306
F0.0
F-0.4723487755982988
F0.051250000000000004
tp5
a(F-0.3490658503988659
F0.7487500000000005
F1.0135183408865878
F0.07487500000000005
F-0.3490658503988659
F1.3471242640800822
F0.05175000000000004
F0.05175000000000004
F-0.3490658503988659
F0.6487500000000004
F1.5707963267948966
F0.06487500000000004
F-0.21719755119659687
F1.2217304763960306
F0.0
F0.3064012244017016
F0.8300000000000005
tp6
a(F-0.3490658503988659
F0.4796219134572897
F1.5707963267948966
F0.6106529217260828
F-0.3490658503988659
F0.6350000000000003
F1.3423084904138414
F1.0066186405672708
F-0.3490658503988659
F0.36500000000000016
F1.5707963267948966
F1.5707963267948966
F-0.8521975511965975
F1.2217304763960306
F0.0
F0.5235987755982988
F0.19500000000000003
tp7
a(F-0.3490658503988659
F0.7556250000000004
F1.5707963267948966
F0.07556250000000006
F-0.3490658503988659
F0.8868937559390864
F1.5707963267948966
F0.012500000000000004
F-0.3393124639398117
F1.538125000000001
F0.15381250000000013
F0.15381250000000013
F0.19357970394824253
F1.2217304763960306
F0.0
F-0.3954737755982987
F0.128125
tp8
a.