(lp0
(F-0.3490658503988659
F0.01375
F1.5707963267948966
F0.001375
F-0.3490658503988659
F0.19937500000000005
F1.5707963267948966
F1.5707963267948966
F-0.3490658503988659
F0.46187500000000026
F0.046187500000000034
F1.5707963267948966
F0.8092634900736461
F0.5625067674637635
F0.0
F-0.4917237755982988
F0.031875
tp1
a(F-0.3490658503988659
F0.4812500000000003
F0.048125000000000036
F1.5707963267948966
F-0.3490658503988659
F0.5750000000000004
F0.05750000000000005
F1.5707963267948966
F-0.3490658503988659
F0.19625000000000004
F1.5707963267948966
F0.01962500000000001
F0.5354697493769937
F1.2217304763960306
F0.0
F-0.43734877559829877
F0.7839817649222801
tp2
a(F-0.3490658503988659
F0.7424910944933827
F0.03856250000000003
F1.5707963267948966
F-0.3490658503988659
F0.16687500000000002
F1.5707963267948966
F0.3321884813383746
F-0.3490658503988659
F0.131875
F1.5707963267948966
F0.013187500000000005
F0.1853978164554128
F1.2217304763960306
F0.0
F-0.4917237755982988
F1.1639100158272984
tp3
a(F-0.3490658503988659
F1.0825000000000007
F0.10825000000000008
F1.5707963267948966
F-0.3490658503988659
F0.7175648599674365
F1.5707963267948966
F0.05666846252721768
F-0.3490658503988659
F0.5137500000000003
F1.5707963267948966
F1.0237108674023978
F-0.5516637808251044
F1.2217304763960306
F0.0
F0.4883224479814777
F1.5707963267948966
tp4
a(F-0.3490658503988659
F0.22937500000000008
F1.5707963267948966
F0.022937500000000013
F-0.3490658503988659
F0.6743750000000004
F1.5707963267948966
F1.5707963267948966
F-0.3490658503988659
F0.7168750000000004
F0.07168750000000006
F1.5707963267948966
F0.2175161651233508
F1.2217304763960306
F0.0
F-0.42172377559829877
F0.9106193304995394
tp5
a(F-0.3490658503988659
F1.0012500000000006
F1.051709000272343
F1.5707963267948966
F-0.3490658503988659
F0.9502862114311857
F0.08712500000000006
F1.3850446837455959
F-0.3490658503988659
F0.2587500000000001
F1.5707963267948966
F0.41278738507294144
F-0.5009475511965971
F0.5462500000000003
F0.0
F0.022651224401701475
F0.7762500000000006
tp6
a(F-0.3490658503988659
F0.39375000000000016
F1.5707963267948966
F1.1875185889563336
F-0.3490658503988659
F0.6975000000000005
F1.5707963267948966
F0.06975000000000005
F-0.3490658503988659
F1.0850000000000009
F1.5707963267948966
F1.5707963267948966
F-0.14141691850945867
F1.2217304763960306
F0.0
F-0.09850190633159424
F0.4011628823873178
tp7
a(F-0.3490658503988659
F0.5352791385181599
F1.5707963267948966
F0.00375
F-0.3490658503988659
F0.5337500000000003
F1.5707963267948966
F0.3491826333838921
F-0.3490658503988659
F0.9907518434915433
F0.9180204183611045
F0.025750000000000016
F-0.21704558150152448
F1.2217304763960306
F0.0
F-0.25484877559829866
F1.5707963267948966
tp8
a(F0.27249694087953513
F1.0568750000000007
F0.10568750000000009
F0.5710985036213195
F-0.16727688325009002
F0.48062500000000025
F1.5707963267948966
F0.048062500000000036
F-0.3490658503988659
F1.1304748375485412
F0.3018577342245651
F0.08518750000000007
F0.27143800284660125
F1.2217304763960306
F0.0
F-0.42172377559829877
F0.101875
tp9
a(F-0.3490658503988659
F0.44750000000000023
F1.4258525419830117
F0.4970000000000004
F0.3490658503988659
F1.4838429095467522
F0.17800000000000013
F0.4970000000000004
F-0.3490658503988659
F1.4800000000000013
F0.1480000000000001
F0.1480000000000001
F-0.7259768475122812
F1.2217304763960306
F0.0
F0.5235987755982988
F0.8649528372771212
tp10
a(F-0.3490658503988659
F0.5462500000000002
F1.5707963267948966
F0.4794488584414029
F-0.3490658503988659
F1.3075000000000008
F0.6791676319164883
F0.1307500000000001
F-0.3490658503988659
F1.401727589245495
F0.04000000000000003
F1.5707963267948966
F-0.6571975511965973
F1.2217304763960306
F0.0
F0.5235987755982988
F1.5707963267948966
tp11
a(F-0.3490658503988659
F0.2687500000000001
F1.5707963267948966
F0.026875000000000017
F-0.3490658503988659
F1.1527949920852967
F0.013375000000000005
F0.013375000000000005
F-0.3490658503988659
F1.1243750000000008
F0.11243750000000008
F0.11243750000000008
F0.3164164653422668
F1.2217304763960306
F0.0
F-0.4723487755982988
F1.3186107175340327
tp12
a(F-0.3490658503988659
F1.5437500000000013
F1.5707963267948966
F1.5707963267948966
F-0.3490658503988659
F0.11624999999999998
F1.5707963267948966
F0.011625000000000003
F-0.3490658503988659
F0.4037500000000003
F0.19015693076206902
F1.5707963267948966
F0.0660859589259444
F0.24746271997286484
F0.0
F-0.4023487755982987
F0.5531795618585567
tp13
a(F-0.3490658503988659
F0.9075000000000006
F0.3805000000000003
F1.5397731093223204
F-0.3490658503988659
F1.162991887248046
F0.074577604250779
F1.5707963267948966
F-0.3490658503988659
F1.185000000000001
F0.4316577908419667
F0.4975000000000004
F-0.29739527376632957
F1.2217304763960306
F0.0
F0.5235987755982988
F0.26250000000000007
tp14
a(F-0.3490658503988659
F0.13937499999999997
F0.4995625000000004
F1.5707963267948966
F-0.3490658503988659
F0.5344830740212816
F0.03156250000000002
F1.5707963267948966
F-0.3490658503988659
F0.10437499999999997
F1.5707963267948966
F0.13073476012015672
F0.7419033487207671
F1.2217304763960306
F0.0
F-0.4754737755982988
F0.048125
tp15
a(F-0.3490658503988659
F0.20250000000000004
F1.5707963267948966
F1.5244085845828017
F-0.3490658503988659
F1.0575000000000008
F0.10575000000000008
F1.5707963267948966
F-0.05000531092744489
F1.3397027542532607
F0.025750000000000016
F1.5707963267948966
F0.3778565892816973
F1.2217304763960306
F0.0
F-0.4660987755982988
F0.44750000000000023
tp16
a(F-0.3490658503988659
F0.33125000000000016
F1.4322365434024127
F0.03312500000000002
F-0.3490658503988659
F0.9862500000000007
F0.09862500000000007
F0.49370589911380336
F-0.3490658503988659
F0.7295221577133392
F0.07187500000000005
F1.5707963267948966
F0.3359674759925151
F0.7276786682959817
F0.0
F-0.44859877559829875
F0.07500000000000001
tp17
a(F-0.3490658503988659
F0.10499999999999998
F1.5707963267948966
F1.5707963267948966
F-0.3277237430386613
F0.9398680808108503
F0.4545344185918936
F0.047375000000000035
F-0.11927307320840558
F1.3034001440792755
F0.022375000000000013
F0.022375000000000013
F0.10125501399107605
F1.2217304763960306
F0.0
F0.5235987755982988
F0.14125
tp18
a(F-0.3490658503988659
F1.5436886847918334
F1.5707963267948966
F0.4990625000000004
F-0.3490658503988659
F0.6180037780576964
F0.01906250000000001
F1.5707963267948966
F-0.3490658503988659
F0.133125
F0.5994322023810101
F1.5707963267948966
F0.06403391231931245
F0.048125
F0.0
F-0.4754737755982988
F1.444794189011021
tp19
a(F-0.3490658503988659
F0.8183642072098707
F0.05156250000000004
F0.2215625000000002
F-0.3490658503988659
F0.22812500000000008
F1.5707963267948966
F0.022812500000000013
F-0.3490658503988659
F0.40312500000000023
F1.5707963267948966
F0.04031250000000003
F0.19776222361738066
F1.2217304763960306
F0.0
F0.24309199077063692
F0.143125
tp20
a(F-0.3490658503988659
F0.3900000000000002
F1.5707963267948966
F0.03900000000000003
F-0.3490658503988659
F0.7975000000000005
F0.4977500000000004
F1.5078303996376585
F-0.3490658503988659
F0.5900000000000003
F0.4977500000000004
F1.5707963267948966
F-0.39219755119659705
F1.2217304763960306
F0.0
F0.5235987755982988
F1.5707963267948966
tp21
a(F-0.008169404271837377
F1.556114889918998
F0.006
F1.5707963267948966
F-0.3490658503988659
F1.4975000000000012
F0.4967500000000004
F0.4967500000000004
F-0.3490658503988659
F1.5707963267948966
F0.3547500000000003
F0.3547500000000003
F-0.5715393596477808
F1.2217304763960306
F0.0
F-0.0678938231022338
F1.1475000000000009
tp22
a(F-0.3490658503988659
F0.9312500000000008
F0.6482010196252294
F0.09312500000000007
F-0.3490658503988659
F0.8037500000000006
F0.6184719472165764
F0.08037500000000006
F-0.3490658503988659
F0.43969219852857194
F0.5785554444305745
F1.5707963267948966
F0.35984223771738977
F1.2217304763960306
F0.0
F-0.44234877559829877
F0.08125
tp23
a(F-0.3490658503988659
F0.005
F1.5707963267948966
F0.0005
F-0.3490658503988659
F0.6356250000000004
F0.3145898517443043
F1.5707963267948966
F-0.3490658503988659
F0.2618750000000001
F1.5707963267948966
F0.026187500000000016
F0.7416909508004712
F1.2217304763960306
F0.0
F-0.48422377559829877
F0.03937500000000001
tp24
a(F0.3490658503988659
F1.4142878136827286
F0.022711097659220317
F0.003625
F-0.3490658503988659
F0.6837500000000005
F1.5707963267948966
F0.06837500000000005
F-0.3490658503988659
F0.9712500000000008
F1.1105609358422215
F0.09712500000000007
F-0.5328351223607277
F1.2217304763960306
F0.0
F0.5235987755982988
F1.086250000000001
tp25
a(F-0.3490658503988659
F0.9787500000000007
F1.5707963267948966
F1.5707963267948966
F-0.3490658503988659
F1.2006445581713479
F0.11462500000000009
F1.5707963267948966
F-0.3490658503988659
F0.8000972419681552
F1.5707963267948966
F0.06337500000000004
F-0.6346851326765642
F1.2217304763960306
F0.0
F0.5235987755982988
F1.5707963267948966
tp26
a(F-0.3490658503988659
F1.545000000000001
F1.5707963267948966
F0.6098881354137085
F-0.3490658503988659
F1.5019702545359164
F0.4975000000000004
F0.4975000000000004
F-0.3490658503988659
F1.5707963267948966
F1.4803454598666235
F1.5707963267948966
F1.0471975511965976
F0.19500000000000003
F0.0
F0.5235987755982988
F1.5707963267948966
tp27
a(F-0.3490658503988659
F0.2987500000000001
F0.4998750000000004
F0.4998750000000004
F-0.3490658503988659
F0.2987500000000001
F0.4998750000000004
F0.6127840406221594
F-0.3490658503988659
F0.005
F1.5707963267948966
F0.0005
F0.6834987193237974
F0.9083629037052647
F0.0
F-0.3998487755982987
F0.12374999999999997
tp28
a(F-0.3490658503988659
F1.2575000000000012
F0.12575000000000008
F1.5707963267948966
F-0.3490658503988659
F1.3677888025931892
F0.00425
F1.5707963267948966
F-0.042193375143266876
F0.7565829808761013
F1.5707963267948966
F0.016625000000000008
F0.46040701644984616
F0.27500000000000013
F0.0
F-0.2485987755982986
F1.5707963267948966
tp29
a(F-0.3490658503988659
F0.37500000000000017
F1.1130959039228925
F0.05632091412414769
F-0.3490658503988659
F0.06000000000000001
F1.5707963267948966
F0.006
F-0.3490658503988659
F0.19750000000000004
F0.6757454660266276
F1.5707963267948966
F-0.4359475511965971
F0.6112500000000003
F0.0
F0.0876512244017015
F1.5707963267948966
tp30
a(F-0.3490658503988659
F1.3269266769997534
F0.007125
F0.007125
F-0.3490658503988659
F0.44000000000000017
F1.5707963267948966
F0.6871808156529544
F-0.3490658503988659
F0.8750000000000006
F0.08750000000000006
F1.5707963267948966
F-0.27581273419368835
F1.2217304763960306
F0.0
F-0.2510987755982986
F1.5707963267948966
tp31
a(F0.30208750909620874
F1.3384821203214576
F0.011750000000000003
F1.5707963267948966
F-0.3490658503988659
F1.2750000000000006
F0.17356191631002965
F1.5707963267948966
F-0.3490658503988659
F1.0825000000000005
F1.5707963267948966
F1.5707963267948966
F-0.7321975511965974
F1.2217304763960306
F0.0
F0.47224116024740126
F1.5707963267948966
tp32
a(F-0.3490658503988659
F0.7175000000000005
F1.5707963267948966
F0.07175000000000005
F-0.3490658503988659
F1.3625000000000012
F0.1362500000000001
F1.0789721995311545
F-0.3490658503988659
F1.4753972268392284
F0.00875
F1.4399482959024261
F-0.379697551196597
F1.2217304763960306
F0.0
F0.5235987755982988
F1.0775000000000008
tp33
a(F-0.3490658503988659
F1.2995167924526019
F0.002
F1.5707963267948966
F-0.3490658503988659
F1.236250000000001
F0.1236250000000001
F1.5707963267948966
F-0.3490658503988659
F1.205000000000001
F1.5707963267948966
F1.5707963267948966
F-0.7771975511965974
F1.2217304763960306
F0.0
F0.5235987755982988
F1.5707963267948966
tp34
a(F-0.3490658503988659
F0.848524132207049
F0.15364319991653824
F0.01850000000000001
F-0.3490658503988659
F0.6875000000000003
F0.06875000000000005
F1.5707963267948966
F-0.3490658503988659
F0.6550000000000004
F0.2652802166546548
F1.5707963267948966
F-0.0392925377764165
F1.2217304763960306
F0.0
F0.5235987755982988
F0.6238940554051567
tp35
a(F0.17654703064251304
F0.3862500000000002
F1.5707963267948966
F0.03862500000000003
F-0.3490658503988659
F0.6987500000000004
F0.6239261181334212
F1.5707963267948966
F-0.3490658503988659
F0.42375000000000024
F1.5707963267948966
F0.04237500000000003
F-0.509622755746236
F1.2217304763960306
F0.0
F0.5235987755982988
F0.8862369256402134
tp36
a.