(lp0
(F-0.31666439585640016
F1.5475000000000012
F0.4957500000000004
F0.4957500000000004
F-0.2973964724498458
F1.5002652460772843
F0.43575000000000036
F1.5707963267948966
F-0.3490658503988659
F1.5707963267948966
F0.07275000000000005
F1.5707963267948966
F-0.5396975511965971
F1.2217304763960306
F0.0
F0.5235987755982988
F1.277500000000001
tp1
a(F-0.3490658503988659
F0.9800000000000006
F1.5707963267948966
F1.5707963267948966
F-0.3490658503988659
F1.0650000000000008
F1.5707963267948966
F1.5707963267948966
F-0.3490658503988659
F1.5707963267948966
F0.05200000000000004
F1.5707963267948966
F-0.48719755119659713
F1.2217304763960306
F0.0
F0.5235987755982988
F1.5707963267948966
tp2
a(F-0.16401362193229568
F1.2156008641344973
F1.5707963267948966
F0.016750000000000008
F-0.3490658503988659
F1.0858296288179656
F1.5707963267948966
F1.5707963267948966
F-0.3490658503988659
F1.1695218588548855
F1.5707963267948966
F1.5707963267948966
F-0.5934475511965971
F1.2217304763960306
F0.0
F-0.06984877559829844
F1.5707963267948966
tp3
a(F-0.3490658503988659
F1.267500000000001
F1.5707963267948966
F0.12675000000000008
F-0.3490658503988659
F1.3929061543587662
F0.903944288980282
F1.5707963267948966
F-0.3490658503988659
F1.5707963267948966
F0.36554117946118864
F1.5707963267948966
F-0.8321975511965974
F1.2217304763960306
F0.0
F0.5235987755982988
F1.5707963267948966
tp4
a(F-0.3490658503988659
F0.6125000000000003
F1.5707963267948966
F1.5707963267948966
F-0.3490658503988659
F0.9241910492869432
F0.08225000000000006
F1.5707963267948966
F-0.3490658503988659
F0.01
F0.4966250000000004
F1.5707963267948966
F-0.12565560407525378
F0.8662500000000005
F0.0
F0.41483299008072055
F0.8662500000000005
tp5
a(F-0.3490658503988659
F1.164375000000001
F0.4984375000000004
F1.2073050145153372
F-0.3490658503988659
F1.2730556981008925
F0.4587897180124618
F1.1627664147442927
F-0.3490658503988659
F1.1575036699774375
F0.07793750000000006
F1.5707963267948966
F-0.099003333353753
F1.2217304763960306
F0.0
F0.06170424689240453
F0.35687500000000016
tp6
a(F0.045139660659076986
F0.4031250000000002
F1.5707963267948966
F0.04031250000000003
F-0.3490658503988659
F0.9656250000000007
F0.7129583462583237
F0.09656250000000008
F-0.3490658503988659
F0.8476957657916959
F1.3041608417607717
F0.046812500000000035
F0.4675063337463629
F1.2217304763960306
F0.0
F-0.3892237755982987
F0.13437499999999997
tp7
a(F-0.3490658503988659
F0.46000000000000024
F1.5707963267948966
F1.0829551043060306
F-0.3490658503988659
F1.0101992985824735
F0.8261296256235764
F1.2527501922397175
F-0.3490658503988659
F1.0350000000000006
F0.843158194531263
F1.415535839180553
F-0.007000248890190146
F1.2217304763960306
F0.0
F0.2664012244017016
F1.5707963267948966
tp8
a(F-0.3490658503988659
F0.7400000000000004
F0.4973750000000004
F0.4973750000000004
F-0.11658553078038573
F1.4777965612749373
F0.02100000000000001
F0.33837500000000026
F-0.3490658503988659
F1.0237500000000006
F0.4810078096180668
F1.5707963267948966
F0.20440321870034922
F1.2217304763960306
F0.0
F-0.48609877559829884
F0.5607319433080606
tp9
a(F-0.3490658503988659
F0.848918122517482
F0.36276509893469433
F0.27862500000000023
F-0.3490658503988659
F0.32375000000000015
F1.5707963267948966
F0.8878639480032585
F-0.3490658503988659
F1.0162500000000005
F0.10162500000000008
F1.5707963267948966
F0.054890598858415615
F1.2217304763960306
F0.0
F0.5235987755982988
F0.09375
tp10
a(F-0.3490658503988659
F0.6950000000000004
F0.06950000000000005
F1.5707963267948966
F-0.3490658503988659
F0.28750000000000003
F0.7813939424985721
F1.325087682200493
F-0.3490658503988659
F0.01
F0.4985000000000004
F0.4985000000000004
F0.6169122663192047
F0.26375000000000004
F0.0
F-0.25984877559829855
F0.26375000000000004
tp11
a(F-0.3490658503988659
F0.3000000000000001
F0.7109234943897266
F1.5707963267948966
F-0.3490658503988659
F0.7325000000000005
F0.07325000000000005
F1.4885178964191563
F-0.3490658503988659
F0.3850000000000002
F0.4632500000000004
F1.5707963267948966
F0.08568205635202833
F0.1625
F0.0
F0.06876467778882131
F0.1625
tp12
a(F-0.3490658503988659
F0.8312500000000005
F1.5707963267948966
F1.5707963267948966
F-0.3490658503988659
F0.6137500000000004
F1.5707963267948966
F1.4255849790177821
F-0.3490658503988659
F0.5337500000000003
F1.5183114428074147
F0.05337500000000004
F0.06264633533442128
F1.2217304763960306
F0.0
F-0.1998487755982985
F1.5707963267948966
tp13
a(F0.3490658503988659
F1.5457932177413336
F0.41241449862004415
F0.33400000000000024
F-0.3490658503988659
F0.9150000000000006
F1.5707963267948966
F0.09150000000000007
F-0.3490658503988659
F1.1600000000000006
F1.5707963267948966
F0.11600000000000009
F-0.42237356739976695
F1.2217304763960306
F0.0
F0.5235987755982988
F0.05500000000000001
tp14
a(F-0.3490658503988659
F0.5575000000000003
F1.5707963267948966
F1.5707963267948966
F-0.3490658503988659
F1.4179506533821482
F0.47943070609271776
F1.5707963267948966
F-0.3490658503988659
F1.327500000000001
F0.4977500000000004
F1.5707963267948966
F0.10661008025289906
F1.2217304763960306
F0.0
F-0.46609877559829876
F1.5707963267948966
tp15
a(F-0.3490658503988659
F0.6650000000000004
F1.5707963267948966
F1.5707963267948966
F-0.3490658503988659
F1.4516564781650785
F0.3229553262908667
F1.5707963267948966
F-0.3490658503988659
F1.1450000000000007
F0.4975000000000004
F1.5707963267948966
F0.1613632241102881
F1.2217304763960306
F0.0
F-0.11859877559829847
F1.5707963267948966
tp16
a.