(lp0
(F-0.3490658503988659
F0.2875000000000001
F1.5707963267948966
F0.02875000000000002
F-0.3490658503988659
F1.1375000000000008
F1.5707963267948966
F1.5707963267948966
F-0.04641105719300424
F1.5707963267948966
F0.07875000000000006
F0.6745797186539629
F0.27369629943316703
F1.2217304763960306
F0.0
F-0.5185987755982988
F0.005
tp1
a(F-0.3490658503988659
F1.383750000000001
F1.5707963267948966
F1.5707963267948966
F-0.3490658503988659
F1.493750000000001
F0.4983750000000004
F0.4983750000000004
F-0.3490658503988659
F1.543750000000001
F0.15437500000000012
F1.5707963267948966
F-0.9109475511965975
F1.2217304763960306
F0.0
F-0.38734877559829867
F1.5707963267948966
tp2
a(F-0.3490658503988659
F0.47643837110586484
F1.5707963267948966
F0.026500000000000017
F-0.3490658503988659
F0.9618561593126254
F0.07562500000000005
F1.5707963267948966
F-0.3490658503988659
F1.0723907674846536
F0.6931928565435124
F0.05137500000000004
F-0.5546975511965971
F1.2217304763960306
F0.0
F-0.03109877559829849
F1.5707963267948966
tp3
a(F0.24281177956780756
F0.04750000000000001
F0.00475
F1.5707963267948966
F-0.3490658503988659
F0.1475
F0.014750000000000006
F0.014750000000000006
F-0.3490658503988659
F0.05625000000000001
F0.005625
F1.5707963267948966
F-0.24969755119659687
F0.7975000000000005
F0.0
F0.2739012244017016
F0.7975000000000005
tp4
a(F-0.3490658503988659
F0.03625
F0.0036249999999999998
F1.5707963267948966
F-0.3490658503988659
F0.12687499999999996
F0.012687500000000004
F1.5707963267948966
F-0.3490658503988659
F0.028749999999999998
F0.002875
F1.1692224790450425
F0.5338571358304433
F0.633398008442398
F0.0
F-0.4829737755982987
F0.040624999999999994
tp5
a.