(lp0
(F0.2763017444663647
F0.01
F1.5707963267948966
F0.001
F-0.3490658503988659
F0.21875000000000006
F1.5707963267948966
F0.021875000000000012
F-0.3490658503988659
F1.0212500000000007
F0.10212500000000008
F1.5707963267948966
F1.0471975511965976
F1.2217304763960306
F0.0
F-0.38109877559829874
F0.1425
tp1
a(F-0.3490658503988659
F0.042499999999999996
F1.5707963267948966
F0.00425
F-0.3490658503988659
F0.5337500000000003
F1.1799114286426757
F0.05337500000000004
F-0.3490658503988659
F1.2887500000000007
F1.5707963267948966
F1.5707963267948966
F1.0471975511965976
F1.2217304763960306
F0.0
F-0.4085987755982987
F0.11499999999999996
tp2
a(F-0.3490658503988659
F0.46750000000000025
F1.5707963267948966
F0.046750000000000035
F-0.3490658503988659
F0.4337500000000002
F1.5707963267948966
F0.04337500000000003
F-0.3490658503988659
F0.9600000000000007
F0.09600000000000007
F1.5707963267948966
F0.6503792309455193
F0.8048656837959838
F0.0
F-0.0757318621696672
F0.09
tp3
a(F-0.3490658503988659
F0.8612500000000005
F0.08612500000000006
F1.5707963267948966
F-0.3490658503988659
F0.9762500000000006
F0.49862500000000043
F0.49862500000000043
F-0.3490658503988659
F0.7193672867896882
F1.5707963267948966
F0.015875000000000007
F-0.9434475511965976
F1.2217304763960306
F0.0
F-0.4198487755982987
F1.5707963267948966
tp4
a(F0.2696158628730244
F0.24500000000000005
F1.5707963267948966
F0.024500000000000015
F-0.3490658503988659
F1.153750000000001
F0.11537500000000009
F0.11537500000000009
F-0.3490658503988659
F0.5375000000000003
F1.5707963267948966
F0.05375000000000004
F0.9151179563020145
F1.2217304763960306
F0.0
F-0.48609877559829884
F0.0375
tp5
a(F-0.3490658503988659
F0.9100000000000007
F0.4592582827514232
F1.5707963267948966
F-0.3490658503988659
F1.0200000000000007
F0.10200000000000008
F1.5707963267948966
F0.12453886618778451
F1.3771385322864567
F0.009250000000000001
F0.009250000000000001
F-0.051945896796517496
F1.2217304763960306
F0.0
F0.5235987755982988
F0.03875000000000001
tp6
a(F0.10334361740484595
F1.3803163961564984
F0.07487500000000005
F1.5707963267948966
F-0.3490658503988659
F0.9600000000000007
F0.09600000000000007
F0.09600000000000007
F-0.3490658503988659
F0.21875000000000006
F1.5707963267948966
F0.021875000000000012
F0.9963832979310026
F1.2217304763960306
F0.0
F-0.4985987755982988
F0.025
tp7
a(F-0.3490658503988659
F0.45875000000000027
F0.045875000000000034
F1.5707963267948966
F-0.3490658503988659
F0.7253381138020321
F0.009125000000000001
F0.30260115243287977
F-0.3490658503988659
F0.14875
F1.5707963267948966
F0.014875000000000006
F1.0471975511965976
F1.2217304763960306
F0.0
F-0.3449180411310011
F0.11124999999999999
tp8
a(F-0.3490658503988659
F0.6412500000000004
F1.5707963267948966
F1.5413209640175851
F-0.3490658503988659
F1.0833662894810834
F0.6970274561372951
F1.3557868197022647
F-0.3490658503988659
F0.5600000000000003
F0.4961250000000004
F1.5707963267948966
F-0.4509475511965971
F0.5962500000000004
F0.0
F0.0726512244017015
F1.5707963267948966
tp9
a(F0.2952712445949917
F0.47995617037612404
F0.5739347275048253
F0.011500000000000003
F-0.3490658503988659
F0.7437500000000005
F0.7737448901010652
F0.07437500000000005
F-0.27687742126833925
F1.0487500000000005
F1.5707963267948966
F0.10487500000000008
F1.0471975511965976
F1.2217304763960306
F0.0
F-0.4248487755982987
F0.09874999999999999
tp10
a(F-0.3490658503988659
F0.7500000000000006
F0.07500000000000005
F0.4990000000000004
F-0.3490658503988659
F0.08249999999999999
F1.5707963267948966
F0.00825
F-0.3490658503988659
F0.04
F0.4990000000000004
F1.5707963267948966
F1.0471975511965976
F0.6253468734428937
F0.0
F-0.4460987755982988
F0.0775
tp11
a(F0.22853385015622257
F0.9150000000000006
F0.4970000000000004
F1.5707963267948966
F-0.3490658503988659
F1.2056674022976732
F0.6581407195383336
F1.5707963267948966
F-0.3490658503988659
F0.07500000000000001
F1.5707963267948966
F1.5707963267948966
F-1.0471975511965976
F1.2217304763960306
F0.0
F0.4067502774956663
F1.1500000000000008
tp12
a(F0.019390428632878456
F0.42554833378780177
F0.3512500000000003
F1.5707963267948966
F-0.3490658503988659
F0.2500000000000001
F1.5707963267948966
F0.025000000000000015
F-0.3490658503988659
F0.3825000000000002
F1.5707963267948966
F0.03825000000000003
F1.0471975511965976
F1.1586857110207478
F0.0
F-0.4885987755982988
F0.035
tp13
a(F0.17735118894508323
F1.1983973637226375
F0.03262500000000002
F1.5707963267948966
F-0.3490658503988659
F0.9037500000000007
F1.5707963267948966
F1.5707963267948966
F-0.3490658503988659
F0.6037500000000005
F1.5707963267948966
F1.5707963267948966
F-0.8109475511965973
F1.2217304763960306
F0.0
F0.5235987755982988
F0.23625000000000007
tp14
a(F-0.3490658503988659
F0.24375000000000008
F1.5707963267948966
F0.024375000000000015
F-0.3490658503988659
F1.0787500000000008
F0.10787500000000008
F0.8368638157921456
F-0.3490658503988659
F0.2962500000000001
F1.5707963267948966
F0.02962500000000002
F0.5608849697971117
F0.7739890951762163
F0.0
F-0.38734877559829867
F0.28032807817232014
tp15
a(F0.1460546496635237
F0.12249999999999997
F1.5707963267948966
F0.012250000000000004
F-0.3490658503988659
F0.25500000000000006
F1.5707963267948966
F0.025500000000000016
F-0.3490658503988659
F1.0150000000000006
F0.28239500165764003
F0.4985000000000004
F1.0471975511965976
F0.9028738831027414
F0.0
F-0.4560987755982987
F0.09486805510319206
tp16
a(F-0.3490658503988659
F0.2912500000000001
F1.2550312192465714
F0.02912500000000002
F-0.3490658503988659
F0.10124999999999998
F1.5707963267948966
F0.010125000000000002
F-0.3490658503988659
F0.15375
F1.5707963267948966
F0.015375000000000007
F1.0471975511965976
F0.7279550653376378
F0.0
F-0.45859877559829876
F0.065
tp17
a(F0.049254976015021795
F0.49390453135450263
F1.150587989003585
F0.11687500000000009
F-0.3490658503988659
F0.3437500000000001
F1.5707963267948966
F0.034375000000000024
F-0.3490658503988659
F1.231210392551993
F0.09787500000000007
F0.32922775121911974
F0.843029819236135
F1.2217304763960306
F0.0
F-0.28750216861272954
F0.05750000000000001
tp18
a(F-0.00604631727534566
F0.8283682645858639
F0.6674373124665482
F1.5707963267948966
F-0.3490658503988659
F0.6100000000000003
F1.5707963267948966
F0.06100000000000005
F-0.3490658503988659
F0.4370484577454834
F1.5707963267948966
F0.6288859553786255
F-0.8321975511965973
F1.2217304763960306
F0.0
F0.5235987755982988
F0.21500000000000005
tp19
a(F0.25989598341617154
F0.19250000000000003
F1.5707963267948966
F0.01925000000000001
F-0.3490658503988659
F0.12749999999999997
F1.512926605803643
F1.1567275934520698
F-0.3490658503988659
F0.5400000000000003
F1.5707963267948966
F1.5707963267948966
F1.0471975511965976
F1.2217304763960306
F0.0
F-0.5001601683630746
F0.005
tp20
a(F-0.3490658503988659
F0.23375000000000007
F1.1219739263116066
F0.023375000000000014
F-0.3490658503988659
F0.14497127594785322
F1.5707963267948966
F0.00375
F-0.3490658503988659
F0.9737500000000007
F0.09737500000000007
F0.4983750000000004
F1.0471975511965976
F1.2217304763960306
F0.0
F-0.3035987755982987
F0.22000000000000006
tp21
a(F-0.3490658503988659
F1.0406250000000008
F0.10406250000000009
F0.4960625000000004
F-0.3490658503988659
F0.4243750000000002
F0.30306250000000023
F1.5707963267948966
F0.17831428794241833
F0.988860829763291
F0.17906250000000015
F1.5707963267948966
F-0.6914485159046121
F1.2217304763960306
F0.0
F-0.4292237755982987
F1.5707963267948966
tp22
a(F-0.250442112579557
F0.060000000000000005
F0.22525000000000017
F1.5707963267948966
F-0.12356441493354836
F0.3923985676120986
F1.5707963267948966
F0.4982500000000004
F-0.11432977582350481
F1.0750101856629202
F0.010750000000000003
F1.5707963267948966
F-0.34363968810158696
F0.4425000000000002
F0.0
F0.5235987755982988
F0.6927318740703763
tp23
a(F0.020456811411864454
F0.7600000000000005
F1.5707963267948966
F0.07600000000000005
F-0.3490658503988659
F0.9200000000000006
F1.5707963267948966
F1.5707963267948966
F-0.3490658503988659
F1.0275000000000007
F0.7182154915688876
F0.9254565591491601
F-0.4721975511965971
F1.2217304763960306
F0.0
F0.5235987755982988
F1.5707963267948966
tp24
a(F-0.1149359808717827
F0.8671225441300446
F0.009500000000000001
F0.2980000000000002
F-0.3490658503988659
F0.5848850066297797
F0.07066182872526994
F1.5707963267948966
F-0.3490658503988659
F1.330000000000001
F1.5707963267948966
F1.5707963267948966
F1.0471975511965976
F1.2217304763960306
F0.0
F-0.1835987755982985
F0.34000000000000014
tp25
a(F-0.3490658503988659
F0.7485397466409749
F0.012375000000000004
F1.1563234402487397
F-0.3490658503988659
F0.6612500000000004
F0.06612500000000004
F1.5707963267948966
F-0.3490658503988659
F0.9212500000000007
F1.5707963267948966
F0.8713971645543044
F0.8193309565448004
F1.2217304763960306
F0.0
F-0.2185987755982985
F0.30500000000000016
tp26
a(F-0.3490658503988659
F0.9587500000000007
F0.09587500000000007
F1.5707963267948966
F-0.3490658503988659
F0.7187500000000004
F1.5707963267948966
F1.5707963267948966
F-0.3490658503988659
F1.0267667155163327
F0.00725
F1.4878133258466477
F-0.7734475511965975
F1.2217304763960306
F0.0
F0.5235987755982988
F0.2737500000000001
tp27
a(F0.10720206042267898
F0.47500000000000026
F1.5707963267948966
F0.047500000000000035
F-0.3490658503988659
F1.0753902942420208
F0.07250000000000005
F1.5707963267948966
F0.023714664819100006
F1.5707963267948966
F0.22650000000000017
F0.8285490204272091
F0.20929555903441927
F1.2217304763960306
F0.0
F0.5235987755982988
F1.5707963267948966
tp28
a(F-0.3490658503988659
F0.42500000000000016
F1.5707963267948966
F0.04250000000000003
F-0.3490658503988659
F0.8712500000000005
F0.08712500000000006
F1.5707963267948966
F-0.3490658503988659
F1.5707963267948966
F1.5707963267948966
F0.49962500000000043
F0.07905244880340317
F1.2217304763960306
F0.0
F0.5235987755982988
F1.1262500000000006
tp29
a(F-0.3490658503988659
F0.05
F1.5707963267948966
F0.11216643201157617
F-0.3490658503988659
F0.08
F0.4985000000000004
F1.5707963267948966
F-0.3490658503988659
F1.5707963267948966
F1.5707963267948966
F1.5707963267948966
F-0.4421975511965971
F1.2217304763960306
F0.0
F0.0814012244017015
F0.6050000000000003
tp30
a(F-0.07868741805981207
F0.33250000000000013
F1.5707963267948966
F0.19402810392617134
F-0.3490658503988659
F0.5475000000000003
F1.5707963267948966
F0.05475000000000004
F-0.3490658503988659
F1.5707963267948966
F0.4657500000000004
F0.4657500000000004
F1.0471975511965976
F1.2217304763960306
F0.0
F-0.48609877559829884
F0.0375
tp31
a(F-0.05833082562261036
F0.131875
F1.5707963267948966
F0.013187500000000005
F-0.3490658503988659
F0.6506250000000005
F0.06506250000000005
F1.5707963267948966
F-0.3490658503988659
F0.4968750000000003
F0.4990625000000004
F1.5707963267948966
F1.0471975511965976
F0.784595666776142
F0.0
F-0.4867237755982988
F0.036875
tp32
a(F-0.3490658503988659
F0.9887500000000007
F0.4968750000000004
F0.4968750000000004
F-0.3490658503988659
F1.4585263254492196
F0.0045000000000000005
F1.5707963267948966
F-0.3490658503988659
F1.170360074483253
F0.05287500000000004
F1.5707963267948966
F0.5250884993395255
F0.8334325369062128
F0.0
F-0.25484877559829855
F0.5287500000000003
tp33
a(F0.06244321907001808
F1.0462500000000006
F0.10462500000000008
F1.5707963267948966
F0.09183368139527316
F1.1512500000000006
F0.4395417521378002
F0.11512500000000009
F0.024532848541460192
F0.5912500000000004
F1.5707963267948966
F0.059125000000000046
F0.0107907582510317
F0.31125000000000014
F0.0
F0.5235987755982988
F0.31125000000000014
tp34
a(F-0.3490658503988659
F0.8502037409780473
F0.023250000000000014
F1.5707963267948966
F-0.3490658503988659
F0.6625000000000004
F1.05345758153311
F1.465638781611818
F-0.3490658503988659
F1.1425000000000007
F0.11425000000000009
F0.11425000000000009
F0.8103024488034036
F1.2217304763960306
F0.0
F0.5235987755982988
F1.5707963267948966
tp35
a(F0.014796997467720849
F0.0125
F1.5707963267948966
F0.00125
F-0.3490658503988659
F0.23625000000000007
F1.5693918959019593
F0.07562500000000005
F-0.3490658503988659
F0.5881641463879925
F1.5707963267948966
F0.49762500000000043
F0.8371841706166141
F1.2217304763960306
F0.0
F-0.42234877559829864
F0.10124999999999998
tp36
a(F-0.3490658503988659
F0.07125000000000001
F1.5707963267948966
F0.007125
F-0.3490658503988659
F0.4975000000000003
F0.34100000000000025
F1.5707963267948966
F-0.3490658503988659
F0.6000000000000003
F0.060000000000000046
F0.8473834641363929
F1.0471975511965976
F0.9525819387379904
F0.0
F-0.42359877559829867
F0.1
tp37
a(F0.14952431462499097
F0.18427489706775435
F0.4982500000000004
F1.5707963267948966
F-0.3490658503988659
F0.9325000000000007
F0.09325000000000007
F0.4982500000000004
F-0.3490658503988659
F0.6250000000000003
F1.5707963267948966
F0.19135084096251848
F1.0471975511965976
F1.1224956290096102
F0.0
F-0.4185987755982987
F0.10499999999999998
tp38
a.