(lp0
(F-0.3490658503988659
F1.4886251452816772
F0.30612500000000026
F1.0961632424801713
F-0.3490658503988659
F1.501250000000001
F0.28112500000000024
F0.28112500000000024
F-0.3490658503988659
F0.7812500000000004
F1.5707963267948966
F0.07812500000000006
F-0.6984475511965974
F1.2217304763960306
F0.0
F-0.17484877559829848
F1.5707963267948966
tp1
a(F-0.3490658503988659
F0.9650323559224816
F1.5707963267948966
F0.0075
F-0.3490658503988659
F0.8975000000000006
F1.5707963267948966
F1.5707963267948966
F-0.3490658503988659
F1.236878597497212
F0.03950000000000003
F1.5707963267948966
F-0.8821975511965975
F1.2217304763960306
F0.0
F0.5235987755982988
F0.25000000000000006
tp2
a(F-0.3490658503988659
F0.16375
F1.5707963267948966
F0.016375000000000008
F-0.3490658503988659
F1.0487500000000005
F0.10487500000000008
F0.10487500000000008
F-0.3490658503988659
F1.5707963267948966
F1.5707963267948966
F1.5707963267948966
F0.5520138063551998
F1.2217304763960306
F0.0
F-0.48109877559829883
F0.042499999999999996
tp3
a(F0.21090510432360143
F0.0225
F1.5707963267948966
F0.39892598121743555
F-0.3490658503988659
F0.7487500000000005
F0.07487500000000005
F1.5707963267948966
F-0.3490658503988659
F0.3537500000000002
F1.065521213492853
F1.5707963267948966
F0.11684778839826264
F1.1402907881361315
F0.0
F-0.4398487755982988
F0.08374999999999999
tp4
a(F-0.3490658503988659
F0.8487500000000007
F0.08487500000000006
F1.5707963267948966
F-0.3490658503988659
F0.9312209690144242
F0.013125000000000005
F1.5156549257279321
F-0.3490658503988659
F0.3200000000000002
F1.5707963267948966
F0.03200000000000002
F-0.5234475511965971
F1.2217304763960306
F0.0
F0.26559868795732133
F1.5707963267948966
tp5
a(F0.15410652346545242
F0.22250000000000006
F1.5707963267948966
F0.022250000000000013
F-0.3490658503988659
F0.7912500000000006
F0.07912500000000006
F1.5707963267948966
F-0.3490658503988659
F0.9612500000000007
F1.5707963267948966
F1.5707963267948966
F0.1924161685422376
F1.2217304763960306
F0.0
F-0.46859877559829877
F0.46126912723228164
tp6
a(F-0.3490658503988659
F0.34250000000000014
F1.5707963267948966
F0.09956346339401348
F-0.3490658503988659
F0.0675
F1.5707963267948966
F0.00675
F-0.3490658503988659
F0.3075000000000001
F0.18925000000000014
F1.5707963267948966
F0.24231995019093783
F1.2217304763960306
F0.0
F-0.5060987755982989
F1.5707963267948966
tp7
a(F0.25802181340817465
F0.3935546060313764
F0.7663774477342192
F0.41375000000000034
F-0.3490658503988659
F0.2775000000000001
F0.4977500000000004
F0.4977500000000004
F-0.3490658503988659
F0.07250000000000001
F0.5780472446000059
F1.5707963267948966
F-0.9096975511965976
F0.13749999999999998
F0.0
F-0.38609877559829864
F0.22839340257981822
tp8
a(F-0.3490658503988659
F0.4700000000000003
F1.5707963267948966
F0.047000000000000035
F-0.3490658503988659
F1.0675000000000008
F0.10675000000000008
F1.5707963267948966
F-0.3490658503988659
F0.471714130109821
F1.5707963267948966
F0.00775
F-0.8746975511965975
F0.21724998435349605
F0.0
F-0.3510987755982987
F0.3025000000000001
tp9
a(F-0.3490658503988659
F0.21000000000000005
F1.5707963267948966
F0.02100000000000001
F-0.3490658503988659
F0.9997405496959166
F0.37183715878249746
F0.013000000000000005
F-0.26993887587890586
F1.0300000000000007
F0.10300000000000008
F0.5941574859235323
F0.3395053064517718
F1.2217304763960306
F0.0
F-0.4985987755982988
F0.025
tp10
a(F-0.3490658503988659
F0.7887500000000005
F0.07887500000000006
F1.5707963267948966
F-0.3490658503988659
F0.3937500000000002
F1.5707963267948966
F1.5707963267948966
F-0.3490658503988659
F0.20375000000000004
F1.5707963267948966
F0.02037500000000001
F-0.368447551196597
F1.2217304763960306
F0.0
F0.15515122440170154
F1.5707963267948966
tp11
a(F-0.3490658503988659
F0.5162500000000003
F1.5707963267948966
F0.05162500000000004
F-0.3490658503988659
F0.5662500000000004
F1.5707963267948966
F0.05662500000000004
F-0.3490658503988659
F1.0655759765057697
F0.000125
F1.5707963267948966
F-0.8006562927040204
F0.5673407950362788
F0.0
F-0.4973487755982988
F0.5012500000000003
tp12
a(F0.14597707171352145
F0.06625
F1.5707963267948966
F0.006625000000000001
F-0.3490658503988659
F1.0237500000000006
F0.10237500000000008
F0.10237500000000008
F-0.3490658503988659
F1.0687500000000005
F0.10687500000000008
F0.10687500000000008
F0.4382405239210763
F1.2217304763960306
F0.0
F-0.4885987755982988
F0.035
tp13
a(F0.17247105410498006
F1.3114380411118995
F0.13746449676638034
F1.5707963267948966
F-0.3490658503988659
F0.9012500000000007
F1.5707963267948966
F1.5707963267948966
F-0.3490658503988659
F1.1687500000000008
F0.7331992660292055
F0.11687500000000009
F-0.5311512000190067
F1.1703806272006876
F0.0
F-0.43859877559829874
F0.8212500000000006
tp14
a(F-0.3490658503988659
F0.9262836404864815
F0.06287500000000004
F0.06287500000000004
F-0.3490658503988659
F0.7197859185718843
F0.17836634402789497
F1.5707963267948966
F-0.3490658503988659
F0.48750000000000027
F1.5707963267948966
F0.048750000000000036
F-0.15264208791917416
F1.2217304763960306
F0.0
F0.5235987755982988
F0.22250000000000006
tp15
a(F-0.3490658503988659
F1.5500000000000012
F1.5707963267948966
F1.5707963267948966
F-0.3490658503988659
F1.1700000000000008
F0.11700000000000009
F1.5707963267948966
F-0.3490658503988659
F0.37500000000000017
F1.5707963267948966
F0.037500000000000026
F-0.5282871163497218
F1.2217304763960306
F0.0
F0.5235987755982988
F0.15713010375477868
tp16
a(F-0.3490658503988659
F1.1162500000000006
F0.6547545678972355
F0.42962500000000037
F-0.3490658503988659
F0.8762500000000005
F0.5869864579446936
F1.5707963267948966
F-0.2549350548500782
F0.60658673389276
F1.5707963267948966
F0.01750000000000001
F-0.15919716717670362
F1.2217304763960306
F0.0
F-0.4885987755982988
F0.2616576465140368
tp17
a(F-0.3490658503988659
F0.6012500000000003
F1.5707963267948966
F0.060125000000000046
F-0.3490658503988659
F1.3439894012545754
F0.2865796704193716
F0.4977500000000004
F-0.3490658503988659
F0.7225000000000004
F0.8907790185745934
F1.5707963267948966
F-0.8534729984446425
F1.2217304763960306
F0.0
F0.5235987755982988
F1.5707963267948966
tp18
a(F-0.3490658503988659
F0.5850000000000003
F0.058500000000000045
F1.5707963267948966
F-0.3490658503988659
F0.7075000000000004
F0.07075000000000005
F1.5707963267948966
F-0.3490658503988659
F0.37000000000000016
F1.5707963267948966
F0.037000000000000026
F0.32530244880340325
F1.2217304763960306
F0.0
F0.5235987755982988
F1.5707963267948966
tp19
a.