(lp0
(F-0.3490658503988659
F0.45875000000000027
F0.045875000000000034
F1.5707963267948966
F-0.3490658503988659
F0.07875000000000001
F1.5707963267948966
F0.007875
F-0.3490658503988659
F0.07125000000000001
F1.5707963267948966
F0.007125
F0.6942457808146579
F0.8193677246148638
F0.0
F-0.43609877559829874
F0.08750000000000001
tp1
a(F-0.3490658503988659
F1.0425000000000004
F1.5707963267948966
F1.5707963267948966
F-0.3490658503988659
F1.499523497393214
F0.17125000000000012
F0.47824472806276624
F-0.3143257277669188
F1.515679989831343
F0.025500000000000016
F1.5707963267948966
F-0.41545673008943584
F1.2217304763960306
F0.0
F0.5235987755982988
F1.5417942190712848
tp2
a(F-0.3490658503988659
F0.8856250000000006
F0.4489994306448148
F0.08856250000000007
F-0.3490658503988659
F0.43437500000000023
F1.5707963267948966
F0.04343750000000003
F-0.3490658503988659
F0.8543750000000006
F0.08543750000000007
F1.5707963267948966
F-0.05261257951034736
F1.2217304763960306
F0.0
F0.4228826541777324
F0.21437500000000004
tp3
a(F-0.3490658503988659
F1.236250000000001
F0.1236250000000001
F1.5707963267948966
F-0.3490658503988659
F1.338750000000001
F0.6692613526585349
F0.1338750000000001
F0.12775573869132106
F1.5707963267948966
F0.18887500000000015
F0.18887500000000015
F-0.4405768293129037
F1.2217304763960306
F0.0
F0.5235987755982988
F0.6961376376276555
tp4
a(F-0.3490658503988659
F0.25750000000000006
F1.5707963267948966
F0.9997818700776755
F-0.3490658503988659
F1.1100000000000008
F0.11100000000000007
F0.11100000000000007
F-0.3490658503988659
F0.533255013377322
F1.3055401921239351
F0.00625
F0.1933633326624209
F1.2157511111769885
F0.0
F-0.20234877559829859
F0.32125000000000015
tp5
a(F-0.3490658503988659
F1.3036796996879227
F0.014125000000000006
F0.014125000000000006
F-0.3490658503988659
F0.49636353449199133
F1.5707963267948966
F0.8009779649052536
F-0.3490658503988659
F1.1250000000000009
F0.11250000000000007
F1.5707963267948966
F-0.7142854355297384
F1.2217304763960306
F0.0
F0.5235987755982988
F1.436500259028507
tp6
a(F-0.3490658503988659
F0.2825000000000001
F0.4973750000000004
F0.4973750000000004
F-0.3490658503988659
F0.35250000000000015
F1.2139291805938193
F0.31837500000000024
F-0.3490658503988659
F0.20750000000000005
F1.5707963267948966
F0.02075000000000001
F-0.09344755119659678
F0.9537500000000007
F0.0
F0.4301512244017017
F0.9537500000000007
tp7
a(F-0.3490658503988659
F0.6268886351323751
F0.036062500000000025
F1.5707963267948966
F-0.3490658503988659
F0.44562500000000027
F1.5707963267948966
F0.04456250000000003
F-0.3490658503988659
F0.8881250000000007
F1.5707963267948966
F0.08881250000000007
F0.8473058698915018
F1.2217304763960306
F0.0
F-0.45297377559829877
F0.07062500000000001
tp8
a(F-0.3490658503988659
F0.48375000000000024
F0.048375000000000036
F1.5230984044003915
F-0.3490658503988659
F0.5450000000000003
F0.05450000000000004
F1.5707963267948966
F-0.3490658503988659
F0.2700000000000001
F1.195572911789548
F0.027000000000000017
F0.5600203069793398
F1.1722310201306458
F0.0
F-0.2635987755982986
F0.26000000000000006
tp9
a(F-0.3490658503988659
F0.17625000000000005
F1.5707963267948966
F0.01762500000000001
F-0.3490658503988659
F1.168750000000001
F0.11687500000000009
F0.11687500000000009
F-0.3490658503988659
F0.8862500000000006
F1.5707963267948966
F0.08862500000000006
F0.8456706420884609
F1.2217304763960306
F0.0
F-0.4448487755982988
F0.07875000000000001
tp10
a(F-0.3490658503988659
F1.0537500000000006
F0.5306220422013382
F1.5707963267948966
F-0.3490658503988659
F1.0237500000000006
F1.5707963267948966
F1.5707963267948966
F-0.3490658503988659
F1.0647636029821164
F0.01775000000000001
F1.5707963267948966
F-0.41744787419631935
F1.2217304763960306
F0.0
F0.5235987755982988
F0.3137500000000001
tp11
a(F-0.3490658503988659
F0.7281250000000006
F0.5532347792563246
F0.7358462545636251
F-0.3490658503988659
F0.5062500000000003
F1.5707963267948966
F0.05062500000000004
F-0.3490658503988659
F1.0693750000000009
F0.10693750000000009
F0.8662296699943624
F-0.14175380683083996
F1.2217304763960306
F0.0
F0.5235987755982988
F0.10374999999999998
tp12
a(F-0.3490658503988659
F0.09999999999999999
F0.4971875000000004
F1.5707963267948966
F-0.3490658503988659
F0.18500000000000003
F0.4971875000000004
F0.4971875000000004
F-0.3490658503988659
F0.13999999999999999
F0.8531778240800335
F1.5707963267948966
F-0.05078273990215515
F0.9918750000000007
F0.0
F0.4682762244017018
F1.0282634429236994
tp13
a(F-0.3490658503988659
F0.11540577768061791
F1.5707963267948966
F0.006062500000000001
F-0.3490658503988659
F0.7793750000000006
F0.07793750000000006
F1.5707963267948966
F-0.3490658503988659
F0.5381250000000004
F1.5707963267948966
F0.05381250000000004
F0.7485604673338502
F1.2217304763960306
F0.0
F-0.5004737755982988
F0.023125
tp14
a(F0.09773287941648101
F0.9025000000000006
F0.576019024989758
F1.5707963267948966
F-0.3490658503988659
F1.3882667686738903
F0.027750000000000018
F1.5707963267948966
F-0.3490658503988659
F0.6425000000000004
F1.5707963267948966
F0.4732500000000004
F1.0471975511965976
F0.45250000000000024
F0.0
F-0.0710987755982985
F0.6425000000000004
tp15
a(F-0.3490658503988659
F0.414192607836115
F1.0137036981895797
F0.0035000000000000005
F-0.3490658503988659
F0.869617729630819
F0.3755922591158317
F0.06137500000000005
F-0.3490658503988659
F0.6175000000000004
F0.8852579752656051
F0.06175000000000005
F0.5701624532038057
F0.9573332554662259
F0.0
F-0.34484877559829863
F0.17875000000000002
tp16
a(F0.2858440801630398
F0.36250000000000016
F1.5707963267948966
F0.036250000000000025
F-0.3490658503988659
F1.0500000000000007
F0.6664357078054013
F0.10500000000000008
F-0.3490658503988659
F1.3362600589666769
F0.08500000000000006
F0.2238772671712278
F-0.2606875250181831
F1.2217304763960306
F0.0
F0.5235987755982988
F0.20750000000000005
tp17
a(F-0.1310938279072604
F1.1226555463305568
F0.4977500000000004
F1.5707963267948966
F-0.3490658503988659
F0.7750000000000005
F1.5707963267948966
F1.3927946653620653
F-0.3490658503988659
F1.2075000000000007
F1.5707963267948966
F0.2864683417347154
F-0.20219755119659688
F1.2217304763960306
F0.0
F0.5235987755982988
F1.5707963267948966
tp18
a(F-0.14610277705613695
F0.2812500000000001
F0.028125000000000018
F1.5707963267948966
F-0.3490658503988659
F0.6900000000000005
F0.24807648292353235
F0.06900000000000005
F-0.3490658503988659
F1.287500000000001
F1.5707963267948966
F1.5707963267948966
F1.0471975511965976
F1.2217304763960306
F0.0
F-0.47984877559829875
F0.043750000000000004
tp19
a(F-0.3490658503988659
F0.8337500000000005
F0.41025000000000034
F0.41025000000000034
F-0.3490658503988659
F1.287491808506444
F0.0011250000000000001
F0.0011250000000000001
F-0.3490658503988659
F1.332500000000001
F0.1332500000000001
F0.1332500000000001
F0.2714367785220636
F1.2217304763960306
F0.0
F0.37306176671961533
F0.02875
tp20
a(F-0.3490658503988659
F1.5475000000000012
F1.5707963267948966
F0.6549155587005012
F-0.3490658503988659
F0.7775000000000005
F1.5707963267948966
F1.5707963267948966
F-0.3490658503988659
F0.7894543318904625
F0.012750000000000004
F1.5707963267948966
F-0.20175159378369584
F1.2217304763960306
F0.0
F0.5235987755982988
F0.03125
tp21
a(F-0.3490658503988659
F0.8700000000000006
F1.5707963267948966
F0.08700000000000006
F-0.3490658503988659
F1.0500000000000007
F1.5707963267948966
F0.16041082242842342
F-0.3490658503988659
F0.8400000000000005
F1.5707963267948966
F1.5707963267948966
F-0.19637334725079464
F1.2217304763960306
F0.0
F0.5235987755982988
F1.5707963267948966
tp22
a(F0.0927570552376773
F0.22500000000000006
F1.4369454433931765
F0.022500000000000013
F-0.3490658503988659
F0.6125000000000004
F1.5707963267948966
F1.06875385918426
F-0.3490658503988659
F0.34750000000000014
F1.5707963267948966
F0.034750000000000024
F-0.1018253000417413
F1.2217304763960306
F0.0
F0.5235987755982988
F0.03
tp23
a(F-0.3490658503988659
F0.3475000000000002
F0.4995000000000004
F0.4995000000000004
F-0.3490658503988659
F0.8901244874752293
F0.010250000000000002
F0.3397752041449235
F-0.3490658503988659
F1.0050000000000008
F0.10050000000000008
F0.509776563974968
F0.3636156594452613
F1.2217304763960306
F0.0
F0.5235987755982988
F0.08750000000000001
tp24
a(F-0.3490658503988659
F1.1756250000000008
F0.1175625000000001
F0.1175625000000001
F-0.3490658503988659
F1.2193750000000008
F0.1219375000000001
F0.1219375000000001
F-0.3490658503988659
F0.48761905556180707
F1.5707963267948966
F0.021750000000000012
F-0.3199478983877573
F1.2217304763960306
F0.0
F-0.2879737755982986
F1.5707963267948966
tp25
a(F-0.015913055689470396
F1.547500000000001
F0.6877945390085859
F0.6715836093147555
F-0.3490658503988659
F1.341416986209339
F1.5707963267948966
F1.5707963267948966
F-0.3490658503988659
F1.5707963267948966
F0.4546094768050825
F1.5707963267948966
F-0.6321975511965973
F0.4150000000000002
F0.0
F0.5235987755982988
F1.5707963267948966
tp26
a(F-0.3490658503988659
F0.8950000000000007
F1.5707963267948966
F0.08950000000000007
F-0.3490658503988659
F0.9550000000000007
F1.5707963267948966
F0.09550000000000007
F-0.3490658503988659
F1.5707963267948966
F0.2675000000000002
F0.2675000000000002
F-0.2959418244318232
F1.2217304763960306
F0.0
F-0.4573487755982988
F1.506070573198853
tp27
a(F-0.03899367602453771
F0.9629857525141596
F0.09525000000000007
F0.28825000000000023
F-0.3490658503988659
F1.494022195571947
F1.5707963267948966
F1.5707963267948966
F-0.3490658503988659
F1.360891763524622
F0.02900000000000002
F0.02900000000000002
F0.22109926596330196
F1.2217304763960306
F0.0
F0.5235987755982988
F0.3825000000000002
tp28
a(F-0.3490658503988659
F0.19250000000000003
F1.0683316222627823
F0.24000000000000019
F-0.3490658503988659
F0.2825000000000001
F0.4970000000000004
F1.5707963267948966
F-0.3490658503988659
F0.25250000000000006
F0.4970000000000004
F1.5707963267948966
F0.09280244880340309
F1.1400000000000006
F0.0
F0.5235987755982988
F1.1400000000000006
tp29
a.