(lp0
(F-0.3490658503988659
F0.37139500691518423
F0.5817655217343538
F1.5707963267948966
F-0.3490658503988659
F0.5312500000000003
F0.7507518818760845
F0.8339921760810411
F-0.3490658503988659
F0.34125000000000016
F0.9064276926081524
F1.5707963267948966
F0.06634809959131167
F1.078011487164914
F0.0
F-0.4835987755982988
F0.04
tp1
a(F-0.03011326714020951
F0.26250000000000007
F1.5707963267948966
F0.026250000000000016
F-0.3490658503988659
F0.8080474338622557
F0.07425000000000005
F1.151988887099968
F-0.3490658503988659
F0.5675000000000003
F0.05675000000000004
F1.5707963267948966
F0.0507554348975599
F1.2217304763960306
F0.0
F-0.42859877559829873
F1.0163675726891528
tp2
a(F-0.3490658503988659
F0.071875
F0.007187500000000001
F1.5707963267948966
F-0.3490658503988659
F0.11562499999999998
F0.011562500000000003
F1.5707963267948966
F-0.3490658503988659
F0.05562500000000001
F0.005562500000000001
F1.5707963267948966
F0.35810954481677987
F1.2217304763960306
F0.0
F0.5235987755982988
F0.018125000000000002
tp3
a(F-0.3490658503988659
F0.21000000000000005
F1.5707963267948966
F0.3022063908889494
F-0.3490658503988659
F0.4425000000000002
F1.5318804909386126
F0.04425000000000003
F-0.3490658503988659
F1.1662500000000007
F0.11662500000000009
F0.11662500000000009
F-0.038367265811173605
F1.2217304763960306
F0.0
F-0.3835987755982987
F0.13999999999999999
tp4
a(F-0.33951446337843705
F0.08124999999999999
F1.5707963267948966
F0.008125
F-0.3490658503988659
F0.4350000000000003
F1.5707963267948966
F1.5707963267948966
F-0.3490658503988659
F0.8155387960523097
F0.07312500000000005
F0.4531250000000004
F0.3115436958230581
F1.2217304763960306
F0.0
F-0.5198487755982988
F0.4130933442938688
tp5
a(F-0.3490658503988659
F0.31500000000000017
F0.03150000000000002
F1.5707963267948966
F-0.3490658503988659
F0.4350000000000003
F0.4918007495917149
F0.04350000000000003
F-0.2646252803289409
F0.18625000000000003
F0.963721547645309
F0.01862500000000001
F0.10280244880340325
F1.2217304763960306
F0.0
F0.5235987755982988
F1.1500000000000008
tp6
a(F-0.3490658503988659
F0.49000000000000027
F0.06800000000000005
F1.5707963267948966
F-0.3490658503988659
F0.5829061815438938
F0.06900000000000005
F1.5707963267948966
F-0.3490658503988659
F0.4200000000000002
F0.7107711636371274
F0.3090000000000002
F-0.7021975511965972
F0.34500000000000014
F0.0
F-0.03236827128012765
F0.6899876953232166
tp7
a(F-0.3490658503988659
F1.0862500000000006
F0.10862500000000008
F0.49862500000000043
F-0.3490658503988659
F1.1762500000000007
F0.11762500000000009
F0.49862500000000043
F-0.3490658503988659
F0.9898163833457152
F0.008875000000000001
F1.5707963267948966
F-0.8459475511965975
F1.2217304763960306
F0.0
F0.5235987755982988
F0.20125000000000004
tp8
a(F-0.3490658503988659
F0.043750000000000004
F1.5707963267948966
F0.004375
F-0.3490658503988659
F0.136875
F1.5707963267948966
F0.013687500000000005
F-0.3490658503988659
F0.7893750000000005
F0.07893750000000006
F0.4388492382872805
F0.29244261590203185
F1.2217304763960306
F0.0
F-0.43672377559829867
F0.3752661130035512
tp9
a(F-0.3490658503988659
F0.22125000000000006
F0.022125000000000013
F1.5707963267948966
F-0.3490658503988659
F0.045
F1.5707963267948966
F1.5707963267948966
F-0.3490658503988659
F0.4143750000000002
F0.04143750000000003
F1.4329121896520036
F0.5029764492961115
F1.2217304763960306
F0.0
F-0.2242237755982986
F0.2993750000000001
tp10
a(F-0.3490658503988659
F0.5887500000000003
F0.058875000000000045
F0.48297654183678373
F-0.3490658503988659
F0.41750000000000026
F0.04175000000000003
F0.4988750000000004
F-0.3490658503988659
F0.125
F0.012500000000000004
F1.5707963267948966
F-0.028075704549213154
F0.6477570737927192
F0.0
F-0.4260987755982988
F1.0686450357169393
tp11
a(F-0.3490658503988659
F0.6400000000000003
F0.06400000000000004
F0.06400000000000004
F-0.3490658503988659
F0.6800000000000004
F0.06800000000000005
F0.06800000000000005
F-0.3490658503988659
F0.3850000000000002
F0.03850000000000003
F1.5707963267948966
F0.4528024488034034
F1.2217304763960306
F0.0
F0.5235987755982988
F1.5707963267948966
tp12
a(F0.05026851447734154
F0.2918750000000001
F0.02918750000000002
F1.5707963267948966
F-0.3490658503988659
F0.2768750000000001
F0.027687500000000018
F1.4755458883041261
F-0.3490658503988659
F0.14937499999999998
F0.014937500000000006
F1.5707963267948966
F-0.013361370712089326
F0.061875
F0.0
F-0.14089117593504208
F0.12605598608335794
tp13
a(F-0.3490658503988659
F0.19875000000000004
F0.6612562573415426
F0.0346317475451348
F-0.3490658503988659
F0.34812500000000013
F0.46718032393508074
F0.27481250000000024
F-0.3490658503988659
F0.04875
F1.090858902926504
F0.004875000000000001
F0.25721227722101553
F0.5542724981346607
F0.0
F-0.24422377559829853
F0.2793750000000001
tp14
a(F-0.3490658503988659
F0.7474473472761219
F0.04343750000000003
F1.5707963267948966
F-0.3490658503988659
F0.05500000000000001
F1.5707963267948966
F1.5707963267948966
F-0.3490658503988659
F0.04
F0.4984375000000004
F1.5122174010580671
F-0.07914645371581305
F1.2217304763960306
F0.0
F-0.35422377559829865
F1.5707963267948966
tp15
a(F0.14324068325743206
F0.15299791869970625
F1.5707963267948966
F0.0015
F0.21559909009481573
F0.7475000000000005
F0.4372785400524108
F0.07475000000000005
F-0.3490658503988659
F0.5925000000000004
F0.1207500000000001
F0.4977500000000004
F0.09113838638779735
F1.2217304763960306
F0.0
F-0.33109877559829864
F1.064167743438533
tp16
a(F-0.3490658503988659
F0.13874999999999998
F1.5707963267948966
F0.013875000000000005
F-0.3490658503988659
F0.33625000000000016
F1.5578026206195408
F0.03362500000000002
F-0.3490658503988659
F0.6650000000000005
F1.0571115532647093
F0.06650000000000005
F0.34359455511037573
F1.2217304763960306
F0.0
F-0.4323487755982987
F0.13075211723381955
tp17
a(F0.280279469706546
F0.45250000000000024
F1.5707963267948966
F0.04525000000000003
F-0.3158630670298413
F1.1387500000000008
F0.11387500000000009
F0.4978750000000004
F-0.3490658503988659
F0.8937500000000006
F0.4978750000000004
F0.4978750000000004
F-0.5834475511965973
F1.2217304763960306
F0.0
F-0.059848775598298494
F1.5707963267948966
tp18
a(F0.23366375025533967
F0.11999999999999997
F1.5707963267948966
F1.5707963267948966
F-0.15466476239950136
F1.1775000000000009
F0.11775000000000009
F0.4977500000000004
F-0.3490658503988659
F0.4662500000000003
F1.5707963267948966
F0.046625000000000034
F-0.6609475511965972
F1.2217304763960306
F0.0
F-0.13734877559829847
F1.5707963267948966
tp19
a(F0.06865113881911757
F0.19500000000000003
F1.5707963267948966
F0.40999025254747673
F0.12735577204034526
F0.677917697038515
F0.01975000000000001
F1.5707963267948966
F-0.3490658503988659
F0.2925000000000001
F0.6375008848919739
F0.4972500000000004
F-0.18349951852881236
F0.5544203495497608
F0.0
F-0.47359877559829877
F0.09
tp20
a(F-0.3490658503988659
F0.5662500000000004
F1.031582058216916
F0.05662500000000004
F-0.3490658503988659
F0.4150000000000002
F1.5707963267948966
F0.04150000000000003
F-0.3490658503988659
F0.8192563658243239
F1.5707963267948966
F1.2811166142671848
F-0.5996975511965973
F1.2217304763960306
F0.0
F0.5235987755982988
F0.44750000000000023
tp21
a(F-0.3490658503988659
F0.08499999999999999
F1.5707963267948966
F0.0085
F-0.3490658503988659
F0.18000000000000002
F1.5707963267948966
F0.01800000000000001
F-0.3490658503988659
F0.12249999999999997
F0.8263397591855197
F1.5707963267948966
F-0.8971975511965975
F0.15
F0.0
F-0.3735987755982987
F0.40566612928469853
tp22
a(F-0.19786424834215477
F0.45560863942986857
F0.007250000000000001
F1.5707963267948966
F-0.3490658503988659
F0.11749999999999997
F1.5707963267948966
F0.011750000000000003
F-0.3490658503988659
F0.9562500000000007
F0.09562500000000007
F0.09562500000000007
F0.7216025721985316
F0.8924996475782043
F0.0
F-0.5085987755982988
F0.015
tp23
a(F-0.3490658503988659
F0.22875000000000006
F0.022875000000000013
F0.572449850224338
F-0.3490658503988659
F0.12749999999999997
F0.012750000000000004
F1.3394962881276187
F-0.3490658503988659
F0.00625
F0.000625
F1.5707963267948966
F1.0471975511965976
F1.2217304763960306
F0.0
F-0.46984877559829885
F0.053750000000000006
tp24
a(F-0.12506154764335886
F0.7129820955784819
F0.014625000000000006
F1.5707963267948966
F-0.3490658503988659
F0.8487500000000007
F0.08487500000000006
F0.4978750000000004
F-0.3490658503988659
F0.0625
F1.5707963267948966
F0.020327593995649457
F-0.7596975511965973
F0.28750000000000014
F0.0
F-0.2360987755982986
F0.634820479402431
tp25
a(F-0.3490658503988659
F0.155
F0.015500000000000007
F1.5707963267948966
F-0.3490658503988659
F0.47750000000000026
F0.047750000000000035
F0.32575000000000026
F-0.3490658503988659
F0.23000000000000007
F0.023000000000000013
F1.5707963267948966
F0.7549406664092831
F1.2217304763960306
F0.0
F-0.4035987755982987
F0.11999999999999998
tp26
a(F-0.3490658503988659
F0.2608160820599977
F1.5707963267948966
F0.00375
F-0.3490658503988659
F0.8443750000000005
F0.7058864322054808
F0.08443750000000005
F-0.3490658503988659
F0.5637500000000003
F1.5707963267948966
F0.05637500000000004
F0.05449857973483396
F1.2217304763960306
F0.0
F-0.38109877559829874
F0.2738441023023888
tp27
a(F-0.3490658503988659
F0.6478318462775478
F0.02050000000000001
F0.21376399271510227
F-0.3490658503988659
F0.5700000000000003
F0.057000000000000044
F0.31900000000000023
F-0.3490658503988659
F0.34000000000000014
F0.03400000000000002
F0.8909718793741175
F0.5579975402837843
F1.2217304763960306
F0.0
F-0.4560987755982987
F0.44099458870622055
tp28
a(F-0.3490658503988659
F0.3100000000000001
F1.5707963267948966
F0.15658474923964194
F-0.3490658503988659
F0.5744147090742558
F1.4234921508304714
F0.014500000000000006
F-0.3490658503988659
F0.9300000000000006
F0.09300000000000007
F1.5707963267948966
F-0.7385556767869432
F0.015
F0.0
F-0.5085987755982988
F0.5700000000000003
tp29
a(F-0.2592901322620173
F0.20500000000000004
F1.5707963267948966
F0.02050000000000001
F-0.3490658503988659
F0.27625000000000005
F1.5707963267948966
F0.027625000000000018
F-0.3490658503988659
F0.8650000000000005
F0.08650000000000006
F0.761621542564884
F-0.5221975511965972
F1.2217304763960306
F0.0
F0.5235987755982988
F0.5250000000000002
tp30
a(F-0.3490658503988659
F0.20250000000000004
F0.4985000000000004
F0.8104208927810934
F-0.3490658503988659
F0.6050000000000003
F0.06050000000000005
F0.4985000000000004
F-0.3490658503988659
F0.01
F1.5707963267948966
F0.001
F0.46028490325074045
F0.7374437487687958
F0.0
F-0.40726389577314037
F0.025
tp31
a(F-0.3490658503988659
F0.2637500000000001
F0.026375000000000016
F1.5707963267948966
F-0.3490658503988659
F0.40500000000000025
F0.04050000000000003
F1.5707963267948966
F-0.3490658503988659
F0.0375
F1.5707963267948966
F0.00375
F0.618375260432487
F0.9463556742157909
F0.0
F-0.43734877559829877
F0.08625
tp32
a(F0.2617941972969003
F0.4112500000000002
F1.5707963267948966
F0.04112500000000003
F-0.3490658503988659
F0.5600000000000003
F1.1131200530479317
F1.5707963267948966
F-0.3490658503988659
F0.4625000000000003
F0.7078219262903128
F1.5707963267948966
F-0.8521975511965975
F0.9013928445075432
F0.0
F-0.32859877559829864
F1.4332859653874621
tp33
a(F-0.3490658503988659
F0.9300000000000007
F0.09300000000000007
F1.1862145208296593
F-0.3490658503988659
F0.23000000000000007
F1.5707963267948966
F0.3599186486136881
F-0.3490658503988659
F0.2975000000000001
F1.5707963267948966
F0.02975000000000002
F-0.424697551196597
F1.2217304763960306
F0.0
F0.09890122440170152
F1.5707963267948966
tp34
a.