(lp0
(F-0.3490658503988659
F0.34625000000000017
F0.034625000000000024
F0.4966250000000004
F-0.3490658503988659
F0.24375000000000008
F0.4546250000000004
F0.5671666504003227
F-0.3490658503988659
F0.0325
F0.2366250000000002
F1.5707963267948966
F0.6031794727960559
F0.058750000000000004
F0.0
F-0.46484877559829874
F0.058750000000000004
tp1
a(F-0.3490658503988659
F0.44750000000000023
F0.04475000000000003
F1.5707963267948966
F-0.3490658503988659
F0.12499999999999997
F1.190024538070743
F0.012500000000000004
F-0.3490658503988659
F0.20000000000000004
F0.2607500000000002
F1.3265891911102474
F0.013716872891526215
F0.12999999999999998
F0.0
F-0.3935987755982987
F0.12999999999999998
tp2
a(F-0.2293830540183229
F0.4037500000000002
F0.04037500000000003
F1.5707963267948966
F-0.3490658503988659
F0.07875
F1.5707963267948966
F0.007875
F-0.3490658503988659
F0.9062500000000007
F0.09062500000000007
F0.09062500000000007
F0.6504014406221266
F0.8611766070594903
F0.0
F-0.49484877559829876
F0.028749999999999998
tp3
a(F-0.3490658503988659
F0.0125
F0.9534003460106116
F1.3043779945807916
F-0.3490658503988659
F0.47250000000000025
F0.33725000000000027
F1.5707963267948966
F-0.3490658503988659
F0.44196223715319377
F0.2472500000000002
F1.5707963267948966
F-0.11478694515860399
F0.5624200870039981
F0.0
F-0.5060987755982987
F0.0175
tp4
a(F0.2420016559914417
F0.4327239248617417
F1.5707963267948966
F0.028187500000000018
F-0.3490658503988659
F0.8118750000000006
F1.5707963267948966
F1.5707963267948966
F-0.3490658503988659
F1.250841730895222
F0.1176875000000001
F0.1176875000000001
F0.11593694645803657
F1.1157636148649044
F0.0
F-0.4904737755982988
F0.033125
tp5
a(F-0.3490658503988659
F0.21312500000000006
F0.7242031391747582
F0.43606052323689515
F-0.3490658503988659
F0.4931250000000003
F0.04931250000000004
F1.5707963267948966
F-0.3490658503988659
F1.0481250000000006
F1.5707963267948966
F0.9665273513081805
F0.671022583944672
F1.1038346244205801
F0.0
F-0.37547377559829864
F0.148125
tp6
a(F-0.3490658503988659
F0.34183852917496493
F0.03212500000000002
F1.4838102610812793
F-0.3490658503988659
F0.2900000000000001
F1.5707963267948966
F1.5707963267948966
F-0.3490658503988659
F0.5324707724441635
F0.015250000000000007
F1.1611620607741937
F0.7731281202099068
F1.2217304763960306
F0.0
F-0.40184859085822927
F0.02125
tp7
a(F-0.3490658503988659
F1.2777131691543104
F0.012500000000000004
F1.5707963267948966
F-0.3490658503988659
F0.6956250000000004
F1.5707963267948966
F0.06956250000000005
F-0.3490658503988659
F1.1233301204868806
F0.05393750000000004
F1.5707963267948966
F-0.5217859299864942
F1.2217304763960306
F0.0
F-0.1454737755982985
F0.37812500000000016
tp8
a(F-0.3490658503988659
F0.07664947001101023
F1.0597396585573975
F0.0033750000000000004
F-0.3490658503988659
F0.2512500000000001
F0.025125000000000015
F1.5707963267948966
F-0.3490658503988659
F0.10624999999999997
F0.1644532696397598
F0.49912500000000043
F1.0471975511965976
F0.00625
F0.0
F-0.5114876005953901
F0.00625
tp9
a(F-0.3490658503988659
F0.20000000000000004
F1.122409479874721
F1.5707963267948966
F-0.3490658503988659
F0.23000000000000007
F1.5707963267948966
F0.023000000000000013
F-0.3490658503988659
F0.7050000000000004
F0.8417365044254128
F1.5707963267948966
F0.6071344620278312
F1.2217304763960306
F0.0
F-0.5210987755982989
F0.0025
tp10
a(F-0.28979970168714686
F0.13749999999999998
F1.5707963267948966
F0.013750000000000005
F-0.3490658503988659
F0.061250000000000006
F1.5707963267948966
F0.006907428915440892
F-0.3490658503988659
F0.4025000000000002
F0.18625000000000014
F1.5707963267948966
F-0.03585766313464358
F0.058750000000000004
F0.0
F-0.46484877559829874
F0.058750000000000004
tp11
a(F-0.3490658503988659
F0.018750000000000003
F0.8577325183489422
F0.537815255655243
F-0.3490658503988659
F0.22625000000000006
F0.4000874629351777
F1.5707963267948966
F-0.3490658503988659
F0.7612500000000005
F0.07612500000000005
F0.07612500000000005
F0.28633009850148583
F1.2217304763960306
F0.0
F0.5235987755982988
F0.6962500000000005
tp12
a(F-0.3490658503988659
F0.20250000000000004
F1.5707963267948966
F0.02025000000000001
F-0.3490658503988659
F0.8312500000000006
F0.08312500000000006
F1.5707963267948966
F-0.3490658503988659
F1.1462500000000007
F0.11462500000000009
F0.11462500000000009
F0.27866326404714026
F1.2217304763960306
F0.0
F-0.3773487755982987
F0.40946832742064265
tp13
a(F-0.3490658503988659
F0.2850561074987567
F0.46000000000000035
F1.0330667474977426
F-0.3490658503988659
F0.4375000000000002
F0.3810000000000003
F0.956487422083305
F-0.3490658503988659
F0.47250000000000025
F0.047250000000000035
F1.2616309370859504
F-0.5171975511965972
F0.5300000000000004
F0.0
F0.006401224401701458
F0.5300000000000004
tp14
a(F-0.3490658503988659
F1.1050000000000006
F0.4975000000000004
F0.4975000000000004
F-0.3490658503988659
F0.7725000000000005
F1.5707963267948966
F0.07725000000000005
F-0.3490658503988659
F1.2309232328074096
F0.07350000000000005
F1.5707963267948966
F-0.6421975511965974
F1.2217304763960306
F0.0
F-0.11859877559829843
F1.5707963267948966
tp15
a(F-0.3490658503988659
F0.7825000000000004
F1.0851781034761583
F1.5707963267948966
F-0.3490658503988659
F1.347500000000001
F0.1347500000000001
F0.4977500000000004
F-0.3490658503988659
F0.6325000000000003
F1.5707963267948966
F0.06325000000000004
F-0.5971975511965972
F1.2217304763960306
F0.0
F-0.0735987755982985
F1.5707963267948966
tp16
a(F-0.2718465637267598
F0.4275000000000002
F0.8183772492385302
F1.5707963267948966
F-0.3490658503988659
F0.9793452215234713
F0.03400000000000002
F1.5707963267948966
F-0.3490658503988659
F0.7875000000000005
F0.2729816826616657
F1.5707963267948966
F-0.9871975511965976
F0.060000000000000005
F0.0
F-0.46359877559829876
F0.09
tp17
a(F-0.3490658503988659
F0.16312500000000002
F1.5707963267948966
F0.016312500000000008
F-0.3490658503988659
F0.7756088396370748
F0.06718750000000005
F1.5707963267948966
F-0.3490658503988659
F0.6131250000000004
F1.0877030122523326
F0.06131250000000005
F0.41837710489727353
F1.2217304763960306
F0.0
F-0.4454737755982987
F0.078125
tp18
a.