(lp0
(F-0.3490658503988659
F1.0004980420714102
F0.35650000000000026
F0.4965000000000004
F-0.3490658503988659
F0.9150000000000006
F0.18950000000000014
F1.5707963267948966
F-0.3490658503988659
F0.10999999999999999
F1.5707963267948966
F0.8656201947251106
F-0.07356509997782648
F0.9587965757792355
F0.0
F-0.2785987755982986
F0.24500000000000005
tp1
a(F-0.3490658503988659
F0.7617256812503679
F0.00425
F0.647093604358011
F-0.3490658503988659
F0.9306698056265378
F0.026375000000000016
F0.026375000000000016
F-0.3490658503988659
F0.4287500000000002
F1.5707963267948966
F1.5707963267948966
F0.5981140766861979
F1.2217304763960306
F0.0
F-0.5185987755982988
F0.35051136633711943
tp2
a(F-0.3490658503988659
F0.39875000000000027
F1.5707963267948966
F0.14610952852509054
F-0.3490658503988659
F0.5138809153642521
F1.5707963267948966
F0.0017500000000000003
F-0.3490658503988659
F0.3812500000000002
F1.5707963267948966
F0.4103540003689904
F-0.503447551196597
F1.2217304763960306
F0.0
F0.5235987755982988
F0.5437500000000004
tp3
a(F-0.3490658503988659
F0.9575000000000007
F0.6302932440418825
F0.09575000000000007
F-0.3490658503988659
F0.48875000000000024
F1.5707963267948966
F0.048875000000000036
F-0.3490658503988659
F1.1900000000000008
F0.11900000000000009
F0.3050000000000002
F-0.2338905587625727
F1.1305938048848807
F0.0
F-0.1785987755982985
F0.992196072530428
tp4
a(F-0.3490658503988659
F1.177277047957702
F0.00875
F0.00875
F-0.3490658503988659
F0.7262500000000004
F1.5707963267948966
F1.5707963267948966
F-0.3490658503988659
F0.6687500000000004
F0.06687500000000005
F1.5707963267948966
F0.12432005619551248
F1.2217304763960306
F0.0
F-0.4885987755982988
F1.5707963267948966
tp5
a(F-0.3490658503988659
F0.25375000000000003
F1.5707963267948966
F0.025375000000000016
F-0.3490658503988659
F0.38375000000000015
F1.5707963267948966
F0.34069871428246723
F-0.3490658503988659
F1.0450000000000006
F0.10450000000000008
F0.10450000000000008
F-0.13843379618000407
F1.2217304763960306
F0.0
F0.5235987755982988
F0.13999999999999999
tp6
a(F-0.3490658503988659
F0.4250000000000002
F0.3792490530029091
F1.5707963267948966
F-0.3490658503988659
F0.6925000000000004
F0.06925000000000005
F1.5707963267948966
F-0.2553106055021508
F0.851583684652773
F0.0023750000000000004
F1.0002090222531335
F0.22610009759003474
F1.2217304763960306
F0.0
F-0.25234877559829855
F0.8424356075526287
tp7
a(F-0.3490658503988659
F0.6287500000000004
F0.06287500000000004
F1.5707963267948966
F-0.3490658503988659
F0.2387500000000001
F1.304583249831944
F0.023875000000000014
F-0.30386427674363936
F0.44125000000000025
F0.04412500000000003
F1.5707963267948966
F0.556914014428022
F1.2217304763960306
F0.0
F-0.4473487755982987
F0.34837060247956086
tp8
a(F0.16454305279489867
F0.40250000000000025
F0.04025000000000003
F1.5707963267948966
F-0.3490658503988659
F0.5875000000000004
F0.058750000000000045
F1.5707963267948966
F-0.3490658503988659
F0.8700000000000006
F0.08700000000000006
F0.08700000000000006
F0.4901880739964781
F1.2217304763960306
F0.0
F-0.32234877559829866
F0.20125000000000004
tp9
a(F-0.3490658503988659
F0.4012500000000002
F0.04012500000000003
F1.5707963267948966
F-0.3490658503988659
F0.7361893121500611
F0.057875000000000044
F0.057875000000000044
F-0.3490658503988659
F0.3550000000000002
F0.8247598199366072
F0.035500000000000025
F0.49313571748207413
F1.2217304763960306
F0.0
F-0.4710987755982987
F1.5707963267948966
tp10
a(F-0.10222770089637732
F0.307227584399128
F1.5707963267948966
F0.10682034552695358
F-0.3490658503988659
F1.0664562341212103
F0.06950000000000005
F0.4975000000000004
F-0.3490658503988659
F0.3950000000000002
F1.5707963267948966
F1.5707963267948966
F0.25183647079646
F0.9843308174139325
F0.0
F-0.48109877559829883
F0.042499999999999996
tp11
a(F0.21812995441604066
F0.758115691828547
F0.1251250000000001
F1.5707963267948966
F-0.3490658503988659
F1.1049246065673037
F0.03287500000000002
F0.6290104557529221
F-0.3490658503988659
F1.1443589468422166
F0.027625000000000018
F0.16612500000000013
F0.18633565870421356
F0.9387405306883789
F0.0
F-0.4273487755982987
F0.09625
tp12
a(F-0.3490658503988659
F0.8018750000000006
F0.08018750000000006
F0.08018750000000006
F-0.3490658503988659
F0.8276760176886708
F0.07418750000000006
F0.07418750000000006
F-0.3490658503988659
F0.0125
F1.5707963267948966
F0.00125
F0.7024745740222167
F1.2217304763960306
F0.0
F-0.4579737755982987
F0.065625
tp13
a(F-0.3490658503988659
F1.1412500000000008
F0.11412500000000009
F0.3711250000000003
F-0.3490658503988659
F1.0011510712961218
F0.015750000000000007
F1.5707963267948966
F-0.3490658503988659
F0.6062500000000004
F0.7209736168827541
F1.5707963267948966
F0.033611691921824366
F1.2217304763960306
F0.0
F-0.3523487755982987
F0.7062500000000005
tp14
a(F-0.3490658503988659
F0.10249999999999998
F1.5707963267948966
F0.49342433195010904
F-0.3490658503988659
F0.5625000000000003
F1.5707963267948966
F1.5707963267948966
F-0.3490658503988659
F1.0400000000000007
F0.10400000000000008
F0.3760000000000003
F0.5044402295941217
F1.2217304763960306
F0.0
F-0.48609877559829884
F0.0375
tp15
a(F-0.3490658503988659
F0.8887500000000006
F0.08887500000000007
F0.46291443859749953
F-0.3490658503988659
F0.0325
F1.5707963267948966
F1.5707963267948966
F-0.3490658503988659
F0.0325
F1.5707963267948966
F0.0032500000000000003
F0.039463785219455746
F1.2217304763960306
F0.0
F0.5235987755982988
F0.20500000000000002
tp16
a(F-0.3490658503988659
F0.10999999999999999
F1.4686386021796558
F0.4143750000000003
F-0.3490658503988659
F0.23000000000000007
F0.4963750000000004
F0.5506024257922429
F-0.3490658503988659
F0.17500000000000002
F1.5707963267948966
F0.06600000000000004
F-0.09344755119659684
F1.2217304763960306
F0.0
F0.5235987755982988
F0.9537500000000007
tp17
a(F-0.3490658503988659
F0.6525000000000004
F1.5707963267948966
F1.5707963267948966
F-0.3490658503988659
F1.0650000000000006
F1.5707963267948966
F0.10650000000000008
F-0.3490658503988659
F1.3718115052845015
F0.01975000000000001
F1.5707963267948966
F-0.7096975511965974
F0.7298169167452888
F0.0
F-0.18609877559829852
F0.9625000000000007
tp18
a(F-0.3490658503988659
F0.3625000000000002
F0.49115190712204304
F0.036250000000000025
F-0.3490658503988659
F0.15500000000000003
F0.2581497142787839
F1.5707963267948966
F-0.3490658503988659
F0.36695732428949557
F0.06025000000000005
F1.060145468307638
F0.2374848063554909
F0.09625
F0.0
F-0.4273487755982987
F0.6203174961116638
tp19
a(F-0.3490658503988659
F1.5462500000000012
F1.5707963267948966
F1.5707963267948966
F-0.3490658503988659
F0.8097115268500038
F1.120766037412957
F0.011875000000000004
F-0.3490658503988659
F1.196250000000001
F0.11962500000000009
F0.11962500000000009
F0.02734694132526299
F1.2217304763960306
F0.0
F-0.5235987755982988
F1.3021188512586004
tp20
a(F-0.3490658503988659
F0.5899950350056993
F1.5707963267948966
F1.5707963267948966
F-0.3344485964387519
F1.2687500000000007
F0.5188002685817428
F0.896296972057463
F-0.3490658503988659
F0.7836919071014242
F1.5707963267948966
F0.01925000000000001
F-0.8171975511965974
F1.2217304763960306
F0.0
F0.5235987755982988
F0.6534127669792367
tp21
a(F-0.10909796146868384
F0.23125000000000007
F1.5707963267948966
F0.023125000000000014
F-0.3490658503988659
F0.839376018981031
F0.182864837585329
F1.5707963267948966
F-0.3490658503988659
F0.5262500000000003
F1.5707963267948966
F0.05262500000000004
F0.4441995515360997
F1.2217304763960306
F0.0
F-0.5023487755982988
F0.02125
tp22
a(F-0.3490658503988659
F0.25375000000000003
F1.5707963267948966
F0.025375000000000016
F-0.3490658503988659
F0.9162500000000006
F0.09162500000000007
F0.21662500000000018
F-0.3490658503988659
F0.5537500000000003
F0.4786250000000004
F0.4786250000000004
F0.2518873533752163
F0.8005335417968373
F0.0
F-0.4035987755982987
F0.6119516046810118
tp23
a(F-0.3490658503988659
F0.9450000000000007
F0.4185000000000003
F1.5707963267948966
F-0.3490658503988659
F1.1150000000000009
F0.6929739509700151
F0.15127403858962168
F-0.3490658503988659
F0.7638999100610498
F1.046434220857131
F0.5032051857698232
F0.034223308400357436
F1.2217304763960306
F0.0
F-0.39109877559829864
F0.46006481966646945
tp24
a(F-0.3490658503988659
F0.8655191963540689
F1.5707963267948966
F0.3412059192742543
F-0.3490658503988659
F1.270000000000001
F0.4960000000000004
F1.5707963267948966
F-0.3490658503988659
F0.46500000000000025
F1.5707963267948966
F1.5707963267948966
F-0.7671975511965974
F1.2217304763960306
F0.0
F-0.2435987755982985
F1.5707963267948966
tp25
a(F-0.3490658503988659
F0.6087500000000003
F1.5707963267948966
F0.06087500000000005
F-0.3490658503988659
F1.123750000000001
F0.11237500000000009
F1.5707963267948966
F-0.3490658503988659
F0.6462500000000004
F1.1162659775881671
F1.0203320858654636
F-0.48199319068800095
F1.2217304763960306
F0.0
F-0.04115746375555403
F1.5707963267948966
tp26
a.