(lp0
(F-0.3490658503988659
F0.8487500000000006
F0.08487500000000006
F0.4958750000000004
F-0.3490658503988659
F0.8547416330680908
F0.014625000000000006
F1.5707963267948966
F-0.3490658503988659
F0.6233212918465489
F0.8758620147521603
F0.3598750000000003
F-0.9709475511965975
F0.07625
F0.0
F-0.44734877559829883
F0.07625
tp1
a(F-0.3490658503988659
F0.8041001638291189
F0.008812500000000001
F1.482021598040236
F-0.3490658503988659
F0.34345089581608657
F1.5707963267948966
F0.014187500000000006
F-0.3490658503988659
F0.3918750000000002
F1.3526328051934042
F0.03918750000000003
F-0.18693577512206783
F0.42802729320645583
F0.0
F-0.5029737755982988
F0.020624999999999998
tp2
a(F0.3490658503988659
F1.5444660084195956
F0.5049775830827442
F0.1422500000000001
F-0.3490658503988659
F1.502500000000001
F0.33025000000000027
F0.33025000000000027
F-0.3490658503988659
F1.5707963267948966
F0.14654372076405178
F0.021250000000000012
F-1.0146975511965977
F1.2217304763960306
F0.0
F0.5235987755982988
F0.28080328467982146
tp3
a(F-0.3490658503988659
F0.7687500000000006
F0.07687500000000005
F1.5320053952627861
F-0.3490658503988659
F1.2382595997380734
F0.009625000000000002
F0.009625000000000002
F-0.3490658503988659
F1.0237500000000006
F0.7357114199638581
F0.10237500000000008
F0.4634044783417982
F1.2217304763960306
F0.0
F-0.2973487755982986
F0.2262500000000001
tp4
a(F0.3490658503988659
F1.5183499867053225
F0.004875000000000001
F0.004875000000000001
F-0.3490658503988659
F1.2140969927177578
F1.1382606121381473
F1.5707963267948966
F0.07484002174689985
F0.3712500000000002
F1.5707963267948966
F0.19079767260619723
F-0.8059475511965974
F1.2217304763960306
F0.0
F-0.2823487755982985
F1.5707963267948966
tp5
a(F-0.3490658503988659
F0.35937500000000017
F1.5707963267948966
F1.5707963267948966
F-0.3490658503988659
F0.8791277499918606
F0.010937500000000003
F1.5707963267948966
F-0.3490658503988659
F0.8180080301966641
F0.04018750000000003
F1.5707963267948966
F-0.9603225511965976
F0.08687500000000001
F0.0
F-0.4367237755982987
F0.2265494567397686
tp6
a(F-0.3490658503988659
F0.6437500000000004
F1.5090374168659078
F1.0967025839917022
F-0.3490658503988659
F0.7956549178767888
F1.5707963267948966
F0.016375000000000008
F-0.3490658503988659
F1.453750000000001
F0.14537500000000012
F0.43737500000000035
F-0.9796975511965975
F0.43199668746645126
F0.0
F-0.4560987755982987
F0.5437500000000003
tp7
a(F-0.3490658503988659
F0.44687500000000024
F1.5707963267948966
F0.04468750000000003
F-0.3490658503988659
F0.43937500000000024
F1.5707963267948966
F0.04393750000000003
F-0.3490658503988659
F1.0593750000000006
F0.159779335791257
F0.3359375000000003
F-0.7753511587784191
F0.15437499999999998
F0.0
F-0.36922377559829866
F0.15437499999999998
tp8
a(F-0.3113012080933646
F0.2875000000000001
F1.5707963267948966
F0.02875000000000002
F-0.3490658503988659
F0.21375000000000005
F1.5707963267948966
F0.021375000000000012
F-0.3490658503988659
F0.7900000000000005
F0.07900000000000006
F0.4990000000000004
F-0.47782367798968683
F0.058750000000000004
F0.0
F-0.46484877559829874
F0.058750000000000004
tp9
a(F-0.3490658503988659
F0.5868750000000004
F1.098733100255029
F1.5707963267948966
F-0.3490658503988659
F1.0518750000000008
F1.4353382515303301
F1.5707963267948966
F-0.3490658503988659
F1.0016356464203853
F0.9617820490682528
F0.006125
F0.1965063357828741
F1.0298368931948099
F0.0
F-0.40172377559829875
F0.12187499999999998
tp10
a(F-0.3490658503988659
F0.8812500000000005
F0.7495920929893162
F1.5707963267948966
F-0.3490658503988659
F0.7450000000000004
F1.5707963267948966
F0.07450000000000005
F-0.3490658503988659
F1.1951034036137287
F0.03987500000000003
F1.5707963267948966
F0.09435662909233228
F0.25500000000000006
F0.0
F0.5235987755982988
F0.5637500000000003
tp11
a(F-0.3490658503988659
F0.48875000000000024
F0.048875000000000036
F1.3340695179864854
F-0.3490658503988659
F0.3812500000000002
F0.18987500000000015
F1.5707963267948966
F-0.3490658503988659
F0.09624999999999999
F0.4473099445591113
F1.5707963267948966
F-0.28909883254621954
F0.03875000000000001
F0.0
F-0.4848487755982988
F0.03875000000000001
tp12
a(F-0.3490658503988659
F0.05
F1.5707963267948966
F0.005
F-0.3490658503988659
F0.7600000000000006
F0.07600000000000005
F0.4980000000000004
F-0.3490658503988659
F0.6116549568875886
F0.04150000000000003
F0.9765641308844479
F-0.11197933986201238
F0.0975
F0.0
F-0.4260987755982988
F0.0975
tp13
a(F-0.3490658503988659
F1.0610883335973513
F0.036437500000000025
F1.5707963267948966
F-0.3490658503988659
F1.0906250000000008
F0.6788176147637293
F0.10906250000000009
F-0.3490658503988659
F0.5443750000000004
F1.5707963267948966
F1.5707963267948966
F-0.41783563354085046
F0.4044785809582647
F0.0
F-0.45797377559829877
F0.06562500000000002
tp14
a(F0.27726951423383434
F0.21687500000000007
F0.4980000000000004
F1.5707963267948966
F-0.3490658503988659
F0.8087500000000006
F0.08087500000000006
F1.110241470841314
F-0.3490658503988659
F1.0800000000000007
F0.14598800487682403
F0.10800000000000008
F0.4398195289648593
F1.2217304763960306
F0.0
F-0.41672377559829876
F0.106875
tp15
a(F-0.3490658503988659
F0.9418794454196244
F0.004750000000000001
F1.5707963267948966
F-0.3490658503988659
F0.45000000000000023
F1.5707963267948966
F0.04500000000000003
F-0.3490658503988659
F0.9350000000000006
F0.09350000000000007
F1.5707963267948966
F-1.0221975511965975
F0.025
F0.0
F-0.37408912912619596
F0.21750000000000005
tp16
a(F0.3017022902978681
F1.355231501885947
F0.05350000000000004
F0.4982500000000004
F-0.3490658503988659
F0.7125000000000005
F1.527628291347181
F0.07125000000000005
F-0.3490658503988659
F1.1237454085425482
F0.04250000000000003
F1.5707963267948966
F-0.41789335003486716
F0.804141038967537
F0.0
F-0.41234877559829874
F0.11124999999999999
tp17
a(F-0.3490658503988659
F0.7450000000000006
F0.07450000000000005
F0.5708410979455257
F-0.3490658503988659
F0.4712500000000003
F0.2564923837164357
F1.5707963267948966
F-0.3490658503988659
F0.03875000000000001
F1.5707963267948966
F0.003875000000000001
F0.23332919623238513
F0.4372072739798514
F0.0
F-0.5185987755982988
F0.005
tp18
a(F-0.3490658503988659
F0.21562500000000004
F0.8213307494186015
F0.2725625000000002
F-0.3490658503988659
F0.178125
F0.3874199987950168
F1.5707963267948966
F-0.3490658503988659
F0.14937499999999998
F0.4985625000000004
F0.4985625000000004
F0.08497822295142574
F0.044375
F0.0
F-0.41846576939366054
F0.044375
tp19
a(F-0.3490658503988659
F0.8093750000000006
F0.08093750000000006
F1.5707963267948966
F-0.3490658503988659
F0.4370449123674201
F1.2676373652654962
F0.4105640059541956
F-0.3490658503988659
F0.46187500000000026
F0.6716238220634405
F1.5707963267948966
F-0.9715725511965976
F0.075625
F0.0
F-0.44797377559829876
F0.075625
tp20
a(F-0.3490658503988659
F1.0985201151462611
F0.006750000000000001
F1.5707963267948966
F-0.3490658503988659
F0.45886943019308585
F1.5707963267948966
F1.5707963267948966
F-0.3490658503988659
F0.6600000000000004
F1.5707963267948966
F0.06600000000000004
F-0.7496975511965973
F1.2217304763960306
F0.0
F0.5235987755982988
F1.5707963267948966
tp21
a(F-0.11067413843770053
F0.060000000000000005
F1.5707963267948966
F0.3913572363349971
F-0.3490658503988659
F0.24875000000000005
F1.5076161377305737
F0.024875000000000015
F-0.3490658503988659
F0.5887500000000003
F0.2298750000000002
F1.5707963267948966
F-0.6012973451935519
F0.01
F0.0
F-0.5135987755982988
F0.01
tp22
a(F-0.3490658503988659
F0.4125000000000002
F1.5707963267948966
F0.11467477630217562
F-0.3490658503988659
F0.7025000000000005
F1.5707963267948966
F1.2278555909980127
F-0.3490658503988659
F0.773316375609597
F0.3014740371084661
F0.8280885986683579
F-0.9896975511965975
F0.05750000000000001
F0.0
F-0.46609877559829876
F0.05750000000000001
tp23
a(F-0.3490658503988659
F0.8487500000000007
F0.4088750000000003
F0.4948750000000004
F-0.3490658503988659
F0.9487500000000008
F0.31587500000000024
F0.6344225660351084
F-0.3490658503988659
F0.8522631429656792
F0.01762500000000001
F1.5707963267948966
F-0.8157443820628807
F0.4466959790020093
F0.0
F-0.5023487755982988
F0.40591584268713593
tp24
a(F-0.3490658503988659
F0.7175000000000005
F0.07175000000000005
F1.5707963267948966
F-0.3490658503988659
F0.6887500000000004
F0.06887500000000005
F1.5707963267948966
F-0.3490658503988659
F0.08374999999999999
F1.5707963267948966
F0.008375
F-0.3375064819164795
F0.02375
F0.0
F-0.49984877559829877
F0.02375
tp25
a(F0.1647982106372896
F1.3514593518454836
F0.011750000000000003
F1.5707963267948966
F-0.3490658503988659
F1.4975000000000012
F0.29975000000000024
F0.29975000000000024
F-0.1826574789181437
F1.2604009784976165
F1.5707963267948966
F1.5707963267948966
F-1.0034475511965977
F0.7885394937567718
F0.0
F0.5235987755982988
F0.043750000000000004
tp26
a(F-0.3490658503988659
F0.6725000000000003
F1.5707963267948966
F0.7496995075820587
F-0.3490658503988659
F1.3462500000000008
F0.1346250000000001
F1.0881594464683626
F-0.3490658503988659
F1.2354779710433879
F0.6510703220762742
F0.08212500000000006
F-0.355947551196597
F0.6912500000000003
F0.0
F0.5235987755982988
F0.6912500000000003
tp27
a(F0.2569657243186747
F0.9750000000000006
F0.09750000000000007
F0.34850000000000025
F-0.3490658503988659
F0.7250000000000004
F0.07250000000000005
F1.5707963267948966
F-0.3490658503988659
F0.7052601779365851
F0.015000000000000006
F1.5707963267948966
F-0.9671975511965974
F0.07999999999999999
F0.0
F-0.44359877559829874
F0.07999999999999999
tp28
a.