(lp0
ccopy_reg
_reconstructor
p1
(cgeometry_msgs.msg._Pose
Pose
p2
c__builtin__
object
p3
Ntp4
Rp5
(lp6
g1
(cgeometry_msgs.msg._Point
Point
p7
g3
Ntp8
Rp9
(lp10
F0.054005040988973664
aF-0.0021948757156234925
aF-0.12244493383091683
abag1
(cgeometry_msgs.msg._Quaternion
Quaternion
p11
g3
Ntp12
Rp13
(lp14
F0.3430856533873998
aF0.08390892927214784
aF0.9350420489482081
aF-0.03078786655290464
ababag1
(g2
g3
Ntp15
Rp16
(lp17
g1
(g7
g3
Ntp18
Rp19
(lp20
F0.005196723604825195
aF0.004788088664782197
aF-0.1528867386412944
abag1
(g11
g3
Ntp21
Rp22
(lp23
F0.47095899950087167
aF-0.026036874058510982
aF0.8816610825794753
aF0.013908179003263622
ababag1
(g2
g3
Ntp24
Rp25
(lp26
g1
(g7
g3
Ntp27
Rp28
(lp29
F0.09794117101976695
aF0.04094821346767809
aF-0.010933374278212902
abag1
(g11
g3
Ntp30
Rp31
(lp32
F-0.3340939448148076
aF-0.3480888347501872
aF0.8655418754509537
aF-0.13436019128143223
ababag1
(g2
g3
Ntp33
Rp34
(lp35
g1
(g7
g3
Ntp36
Rp37
(lp38
F0.10236071929879671
aF-0.03833204078342871
aF-0.05264302565293585
abag1
(g11
g3
Ntp39
Rp40
(lp41
F0.0277786177421876
aF0.48936453835783483
aF0.8714972118100881
aF-0.015598294823445397
ababag1
(g2
g3
Ntp42
Rp43
(lp44
g1
(g7
g3
Ntp45
Rp46
(lp47
F0.09261907294111336
aF-0.035034133028297075
aF0.012164947233291883
abag1
(g11
g3
Ntp48
Rp49
(lp50
F-0.3967347551460684
aF0.24250584004226575
aF0.8785209719603092
aF0.10951416999867207
ababag1
(g2
g3
Ntp51
Rp52
(lp53
g1
(g7
g3
Ntp54
Rp55
(lp56
F0.1001596448884159
aF0.010370893774710687
aF0.015465501137815706
abag1
(g11
g3
Ntp57
Rp58
(lp59
F-0.4750594386057215
aF-0.19501986866075127
aF0.8511389857314026
aF-0.10884947214975149
ababag1
(g2
g3
Ntp60
Rp61
(lp62
g1
(g7
g3
Ntp63
Rp64
(lp65
F0.05783879272934628
aF0.004449344265399504
aF-0.0830083499303675
abag1
(g11
g3
Ntp66
Rp67
(lp68
F0.14225572986476984
aF0.24684991138426046
aF0.9578540626180349
aF-0.03666092328829525
ababag1
(g2
g3
Ntp69
Rp70
(lp71
g1
(g7
g3
Ntp72
Rp73
(lp74
F0.06044344397737092
aF0.014897165626591298
aF-0.07473316623666124
abag1
(g11
g3
Ntp75
Rp76
(lp77
F0.13521352441694898
aF-0.19012191111779275
aF0.9720450358555507
aF0.026446360737284635
ababag1
(g2
g3
Ntp78
Rp79
(lp80
g1
(g7
g3
Ntp81
Rp82
(lp83
F0.09872030860259416
aF0.006237541601094472
aF-0.005515147707012929
abag1
(g11
g3
Ntp84
Rp85
(lp86
F-0.21863086703489487
aF0.05681561234966889
aF0.9740687389692274
aF0.01275233060273687
ababag1
(g2
g3
Ntp87
Rp88
(lp89
g1
(g7
g3
Ntp90
Rp91
(lp92
F0.11696611521588574
aF0.04364219986359877
aF-0.05056451534679002
abag1
(g11
g3
Ntp93
Rp94
(lp95
F-0.1816373010403244
aF-0.33815721144182587
aF0.9209830633656816
aF-0.06669174022500739
ababag1
(g2
g3
Ntp96
Rp97
(lp98
g1
(g7
g3
Ntp99
Rp100
(lp101
F0.055318721293515845
aF-0.01261610797097623
aF0.028054193437780043
abag1
(g11
g3
Ntp102
Rp103
(lp104
F-0.42228180994539694
aF0.30235322445952323
aF0.8409576790526945
aF0.15182484213880873
ababag1
(g2
g3
Ntp105
Rp106
(lp107
g1
(g7
g3
Ntp108
Rp109
(lp110
F0.0815341164090177
aF-0.0046737548147908255
aF-0.07783625216865904
abag1
(g11
g3
Ntp111
Rp112
(lp113
F0.005993806258909686
aF0.1537047760303978
aF0.9880981969376789
aF-0.0009323735752686698
ababag1
(g2
g3
Ntp114
Rp115
(lp116
g1
(g7
g3
Ntp117
Rp118
(lp119
F0.08275148521941315
aF0.011596520996448664
aF0.005216967351737992
abag1
(g11
g3
Ntp120
Rp121
(lp122
F-0.43123680702864214
aF-0.03972397319991754
aF0.9011633984312515
aF-0.019009248927602387
ababag1
(g2
g3
Ntp123
Rp124
(lp125
g1
(g7
g3
Ntp126
Rp127
(lp128
F0.0817480206157208
aF0.0010469768073619221
aF-0.054837285486668615
abag1
(g11
g3
Ntp129
Rp130
(lp131
F0.008762471639719665
aF0.1969821716895737
aF0.9803663312003223
aF-0.0017606180853303784
ababag1
(g2
g3
Ntp132
Rp133
(lp134
g1
(g7
g3
Ntp135
Rp136
(lp137
F0.012158935157544291
aF0.03062431670017282
aF-0.15081107547080982
abag1
(g11
g3
Ntp138
Rp139
(lp140
F0.45824525501857644
aF-0.25094565178128575
aF0.8416469992337005
aF0.13663050459517834
ababag1
(g2
g3
Ntp141
Rp142
(lp143
g1
(g7
g3
Ntp144
Rp145
(lp146
F0.07045197083827354
aF-0.017521678210086957
aF0.030505271039898772
abag1
(g11
g3
Ntp147
Rp148
(lp149
F-0.47686572027271945
aF0.24950149086293102
aF0.8305583085750162
aF0.14325148146865205
ababag1
(g2
g3
Ntp150
Rp151
(lp152
g1
(g7
g3
Ntp153
Rp154
(lp155
F0.10166576976152406
aF0.04310434071301988
aF-0.005874550058114686
abag1
(g11
g3
Ntp156
Rp157
(lp158
F-0.35636731316363635
aF-0.3392272265933361
aF0.8591438356643741
aF-0.1407092622616976
ababag1
(g2
g3
Ntp159
Rp160
(lp161
g1
(g7
g3
Ntp162
Rp163
(lp164
F0.08792302581886652
aF0.03681092996009631
aF-0.1069681175001291
abag1
(g11
g3
Ntp165
Rp166
(lp167
F0.06848919319908019
aF-0.30647801859442164
aF0.949152983093693
aF0.02211490939887045
ababag1
(g2
g3
Ntp168
Rp169
(lp170
g1
(g7
g3
Ntp171
Rp172
(lp173
F0.06939645609655014
aF-0.010142656115037736
aF0.00767087855772597
abag1
(g11
g3
Ntp174
Rp175
(lp176
F-0.37021306164631057
aF0.24554613382866539
aF0.8900665222539618
aF0.1021321257538403
ababag1
(g2
g3
Ntp177
Rp178
(lp179
g1
(g7
g3
Ntp180
Rp181
(lp182
F0.07059994770760537
aF0.012513088662092789
aF-0.07932906914692048
abag1
(g11
g3
Ntp183
Rp184
(lp185
F0.1509009592439621
aF-0.13787320945510625
aF0.9786561887646881
aF0.021258946502019947
ababag1
(g2
g3
Ntp186
Rp187
(lp188
g1
(g7
g3
Ntp189
Rp190
(lp191
F0.08185873196535948
aF0.0322127638925617
aF-0.05225373381012369
abag1
(g11
g3
Ntp192
Rp193
(lp194
F-0.09670633678192601
aF-0.35107962562106654
aF0.9306234447753
aF-0.0364826662203648
ababag1
(g2
g3
Ntp195
Rp196
(lp197
g1
(g7
g3
Ntp198
Rp199
(lp200
F0.03868762830359015
aF0.018931723906159496
aF-0.14412145793258013
abag1
(g11
g3
Ntp201
Rp202
(lp203
F0.40386099527528957
aF-0.20121797837157135
aF0.8877090678136076
aF0.09154361035488211
ababag1
(g2
g3
Ntp204
Rp205
(lp206
g1
(g7
g3
Ntp207
Rp208
(lp209
F0.10398913836210381
aF-0.023477638561965993
aF-0.03231595892108205
abag1
(g11
g3
Ntp210
Rp211
(lp212
F-0.10074241799877835
aF0.41287071413372517
aF0.9040309214526202
aF0.04600903915529815
ababag1
(g2
g3
Ntp213
Rp214
(lp215
g1
(g7
g3
Ntp216
Rp217
(lp218
F0.08473435879952437
aF0.005734694157827166
aF-0.1040516851912197
abag1
(g11
g3
Ntp219
Rp220
(lp221
F0.22192300956768443
aF-0.10628251528612151
aF0.968948735709991
aF0.024342397886960066
ababag1
(g2
g3
Ntp222
Rp223
(lp224
g1
(g7
g3
Ntp225
Rp226
(lp227
F0.09899825721577715
aF0.04219262623735197
aF-0.09876149392252381
abag1
(g11
g3
Ntp228
Rp229
(lp230
F0.04094508356993734
aF-0.38734642193284907
aF0.9208635195228778
aF0.01722289055904195
ababag1
(g2
g3
Ntp231
Rp232
(lp233
g1
(g7
g3
Ntp234
Rp235
(lp236
F0.08780158063272635
aF-0.017815521911326355
aF-0.021427106990066634
abag1
(g11
g3
Ntp237
Rp238
(lp239
F-0.20589248978005636
aF0.2790896508539121
aF0.9359207725783163
aF0.061396717296762666
ababag1
(g2
g3
Ntp240
Rp241
(lp242
g1
(g7
g3
Ntp243
Rp244
(lp245
F0.09307366950389598
aF0.0028890819173662675
aF0.01585429294916304
abag1
(g11
g3
Ntp246
Rp247
(lp248
F-0.4640461369738037
aF0.07247414814366146
aF0.8820174497774209
aF0.038130026208688064
ababag1
(g2
g3
Ntp249
Rp250
(lp251
g1
(g7
g3
Ntp252
Rp253
(lp254
F0.0947220549318274
aF0.010241347094725222
aF-0.08155995224926514
abag1
(g11
g3
Ntp255
Rp256
(lp257
F0.09968435457323839
aF0.0022979762582136906
aF0.995016429893181
aF-0.0002302195956193899
ababag1
(g2
g3
Ntp258
Rp259
(lp260
g1
(g7
g3
Ntp261
Rp262
(lp263
F0.10531973847837474
aF0.0425094354806046
aF-0.0036107825491497963
abag1
(g11
g3
Ntp264
Rp265
(lp266
F-0.3729498392698964
aF-0.292887093386577
aF0.8714435622200939
aF-0.12534626353136458
ababa.