(lp0
ccopy_reg
_reconstructor
p1
(cgeometry_msgs.msg._Pose
Pose
p2
c__builtin__
object
p3
Ntp4
Rp5
(lp6
g1
(cgeometry_msgs.msg._Point
Point
p7
g3
Ntp8
Rp9
(lp10
F0.07320896335458028
aF0.05514503794765969
aF-0.10805927296108053
abag1
(cgeometry_msgs.msg._Quaternion
Quaternion
p11
g3
Ntp12
Rp13
(lp14
F0.15226316066246676
aF-0.3798265394231775
aF0.9102256302814365
aF0.06353764107716701
ababag1
(g2
g3
Ntp15
Rp16
(lp17
g1
(g7
g3
Ntp18
Rp19
(lp20
F0.08396048720560403
aF0.014469588500761275
aF-0.07860727783969722
abag1
(g11
g3
Ntp21
Rp22
(lp23
F0.12188938981637955
aF0.3088681840923526
aF0.942415814802861
aF-0.039948135314967506
ababag1
(g2
g3
Ntp24
Rp25
(lp26
g1
(g7
g3
Ntp27
Rp28
(lp29
F0.059996978056556016
aF0.019326729370290046
aF-0.09124192787940555
abag1
(g11
g3
Ntp30
Rp31
(lp32
F0.16005658922936608
aF-0.2598989688182456
aF0.9512739683076361
aF0.04372929763576275
ababag1
(g2
g3
Ntp33
Rp34
(lp35
g1
(g7
g3
Ntp36
Rp37
(lp38
F0.07132251789196657
aF0.04290282227701779
aF-0.020653955869059337
abag1
(g11
g3
Ntp39
Rp40
(lp41
F-0.2358605815643417
aF-0.4512144642846266
aF0.8515612664971685
aF-0.1249748082063204
ababag1
(g2
g3
Ntp42
Rp43
(lp44
g1
(g7
g3
Ntp45
Rp46
(lp47
F0.06613843510237791
aF0.03698494354329297
aF-0.09715976557572895
abag1
(g11
g3
Ntp48
Rp49
(lp50
F0.045626575204574964
aF-0.06767057486725848
aF0.9966590750018551
aF0.0030979265134489873
ababag1
(g2
g3
Ntp51
Rp52
(lp53
g1
(g7
g3
Ntp54
Rp55
(lp56
F0.0276356007697051
aF0.03949377776058635
aF-0.13517431949995376
abag1
(g11
g3
Ntp57
Rp58
(lp59
F0.335759607007242
aF-0.30947450693706624
aF0.8818196970595333
aF0.1178347900080239
ababag1
(g2
g3
Ntp60
Rp61
(lp62
g1
(g7
g3
Ntp63
Rp64
(lp65
F0.06382949804196744
aF0.020455522366083164
aF0.00859654275287673
abag1
(g11
g3
Ntp66
Rp67
(lp68
F-0.3082144494028535
aF-0.2377351559580415
aF0.9176656294491831
aF-0.07984761316743516
ababag1
(g2
g3
Ntp69
Rp70
(lp71
g1
(g7
g3
Ntp72
Rp73
(lp74
F0.06735662248542622
aF0.005394957039090778
aF0.0037401674193327495
abag1
(g11
g3
Ntp75
Rp76
(lp77
F-0.31939228266521535
aF0.08439529711246686
aF0.9434244344814979
aF0.028571664677918076
ababag1
(g2
g3
Ntp78
Rp79
(lp80
g1
(g7
g3
Ntp81
Rp82
(lp83
F0.05223182455139777
aF0.03015730511694878
aF0.005606516794528289
abag1
(g11
g3
Ntp84
Rp85
(lp86
F-0.27862753914472926
aF-0.44153071521261456
aF0.8402259482230209
aF-0.14641611211446331
ababag1
(g2
g3
Ntp87
Rp88
(lp89
g1
(g7
g3
Ntp90
Rp91
(lp92
F0.06324792015483711
aF0.05263079460268115
aF-0.012893449384593176
abag1
(g11
g3
Ntp93
Rp94
(lp95
F-0.24894627563014746
aF-0.4556756255652403
aF0.8439905639163664
aF-0.1344076044565176
ababa.