(lp0
ccopy_reg
_reconstructor
p1
(cgeometry_msgs.msg._Pose
Pose
p2
c__builtin__
object
p3
Ntp4
Rp5
(lp6
g1
(cgeometry_msgs.msg._Point
Point
p7
g3
Ntp8
Rp9
(lp10
F0.06262186137824566
aF-0.0335711930003063
aF0.011885675400622091
abag1
(cgeometry_msgs.msg._Quaternion
Quaternion
p11
g3
Ntp12
Rp13
(lp14
F-0.2539659492820282
aF0.3705906332096094
aF0.8870778099115428
aF0.1060982485487846
ababag1
(g2
g3
Ntp15
Rp16
(lp17
g1
(g7
g3
Ntp18
Rp19
(lp20
F0.03776949493166916
aF-0.027549029298009977
aF-0.10771596281530264
abag1
(g11
g3
Ntp21
Rp22
(lp23
F0.3594770388310871
aF0.3372991177271935
aF0.858521337940286
aF-0.1412327017192243
ababag1
(g2
g3
Ntp24
Rp25
(lp26
g1
(g7
g3
Ntp27
Rp28
(lp29
F0.07083299845649735
aF-0.031969997757104684
aF-0.035568044474409304
abag1
(g11
g3
Ntp30
Rp31
(lp32
F-0.015615398832025023
aF0.3585961099572043
aF0.9333429138590873
aF0.00599953264062586
ababag1
(g2
g3
Ntp33
Rp34
(lp35
g1
(g7
g3
Ntp36
Rp37
(lp38
F0.07117951949341067
aF-0.058485801049422345
aF-0.012160670862573148
abag1
(g11
g3
Ntp39
Rp40
(lp41
F-0.15963702553733103
aF0.34872583109603794
aF0.9215514778701319
aF0.060408512970829754
ababag1
(g2
g3
Ntp42
Rp43
(lp44
g1
(g7
g3
Ntp45
Rp46
(lp47
F0.0516212060544013
aF-0.06017550666203353
aF0.029810020149279217
abag1
(g11
g3
Ntp48
Rp49
(lp50
F-0.394084615451551
aF0.29177828197324435
aF0.8612418598623878
aF0.13351108138997442
ababag1
(g2
g3
Ntp51
Rp52
(lp53
g1
(g7
g3
Ntp54
Rp55
(lp56
F0.0059999408660427345
aF-0.007707989632420503
aF-0.12921022504353308
abag1
(g11
g3
Ntp57
Rp58
(lp59
F0.4659235274764117
aF-0.14307276292167698
aF0.8698114770204062
aF0.07663840745653923
ababag1
(g2
g3
Ntp60
Rp61
(lp62
g1
(g7
g3
Ntp63
Rp64
(lp65
F0.0488908918442185
aF0.00034558121253491867
aF-0.10732574253043191
abag1
(g11
g3
Ntp66
Rp67
(lp68
F0.23325566029785968
aF-0.17290073538849668
aF0.9559902797510892
aF0.042186700067212014
ababa.