(lp0
ccopy_reg
_reconstructor
p1
(cgeometry_msgs.msg._Pose
Pose
p2
c__builtin__
object
p3
Ntp4
Rp5
(lp6
g1
(cgeometry_msgs.msg._Point
Point
p7
g3
Ntp8
Rp9
(lp10
F0.015956739778215594
aF0.013180866003310756
aF-0.14155350716654214
abag1
(cgeometry_msgs.msg._Quaternion
Quaternion
p11
g3
Ntp12
Rp13
(lp14
F0.42672249933940615
aF-0.23424705173537652
aF0.8658572554860631
aF0.11544453401074027
ababag1
(g2
g3
Ntp15
Rp16
(lp17
g1
(g7
g3
Ntp18
Rp19
(lp20
F0.0766396565348446
aF-0.019573478218728617
aF-0.005974330488423412
abag1
(g11
g3
Ntp21
Rp22
(lp23
F-0.26072907305386134
aF0.27545549375779743
aF0.9219961653115211
aF0.07789539507552959
ababag1
(g2
g3
Ntp24
Rp25
(lp26
g1
(g7
g3
Ntp27
Rp28
(lp29
F0.09202983377109239
aF0.03234022935548912
aF-0.05142754110652227
abag1
(g11
g3
Ntp30
Rp31
(lp32
F-0.169772242077714
aF-0.3441808478364152
aF0.9212458289234965
aF-0.06342753734437712
ababag1
(g2
g3
Ntp33
Rp34
(lp35
g1
(g7
g3
Ntp36
Rp37
(lp38
F0.07922907759514587
aF-0.0009812431799390532
aF0.02027265199448392
abag1
(g11
g3
Ntp39
Rp40
(lp41
F-0.4555880978930782
aF0.1919134435458422
aF0.8633379058321272
aF0.10127376559574112
ababag1
(g2
g3
Ntp42
Rp43
(lp44
g1
(g7
g3
Ntp45
Rp46
(lp47
F0.048196242415317815
aF0.01194343683483032
aF-0.11553061848392782
abag1
(g11
g3
Ntp48
Rp49
(lp50
F0.3017590114164266
aF-0.1628388598650199
aF0.9379126813895184
aF0.0523909041300607
ababag1
(g2
g3
Ntp51
Rp52
(lp53
g1
(g7
g3
Ntp54
Rp55
(lp56
F0.0751474838999918
aF0.0071087095616600236
aF-0.0002984845207955971
abag1
(g11
g3
Ntp57
Rp58
(lp59
F-0.36088874551350475
aF-0.008518287430508597
aF0.93256414553489
aF-0.0032964532031804243
ababag1
(g2
g3
Ntp60
Rp61
(lp62
g1
(g7
g3
Ntp63
Rp64
(lp65
F0.05152841291545022
aF-0.007528188466843992
aF-0.12107054047725128
abag1
(g11
g3
Ntp66
Rp67
(lp68
F0.21193941416424003
aF0.14978317626799809
aF0.9651761037006378
aF-0.03289032800147395
ababag1
(g2
g3
Ntp69
Rp70
(lp71
g1
(g7
g3
Ntp72
Rp73
(lp74
F0.08380937004195438
aF0.05624776319813136
aF-0.10917310946766443
abag1
(g11
g3
Ntp75
Rp76
(lp77
F0.0953717604353773
aF-0.40773055781071293
aF0.9070955277472883
aF0.042868672474085316
ababag1
(g2
g3
Ntp78
Rp79
(lp80
g1
(g7
g3
Ntp81
Rp82
(lp83
F0.0798074753640465
aF-0.005063375686129069
aF-0.10427410558404065
abag1
(g11
g3
Ntp84
Rp85
(lp86
F0.16584904915020884
aF0.23074646251247868
aF0.9579427025060872
aF-0.039949238406798884
ababag1
(g2
g3
Ntp87
Rp88
(lp89
g1
(g7
g3
Ntp90
Rp91
(lp92
F0.07957964219442419
aF-0.005923623411877704
aF0.02286887697024352
abag1
(g11
g3
Ntp93
Rp94
(lp95
F-0.46533939478907044
aF0.19461995306016905
aF0.8569798004056529
aF0.1056784898874251
ababag1
(g2
g3
Ntp96
Rp97
(lp98
g1
(g7
g3
Ntp99
Rp100
(lp101
F-0.003046910767673467
aF0.04215446490805484
aF-0.15526062075384134
abag1
(g11
g3
Ntp102
Rp103
(lp104
F0.48301354328031315
aF-0.21841101130253693
aF0.8385506334313346
aF0.12580692477565633
ababag1
(g2
g3
Ntp105
Rp106
(lp107
g1
(g7
g3
Ntp108
Rp109
(lp110
F0.10839459130200094
aF0.05408554152715225
aF-0.07776146648060554
abag1
(g11
g3
Ntp111
Rp112
(lp113
F-0.013047652989845279
aF-0.36237894598236975
aF0.9319257036369428
aF-0.005073574770554719
ababag1
(g2
g3
Ntp114
Rp115
(lp116
g1
(g7
g3
Ntp117
Rp118
(lp119
F0.08851428118854376
aF0.009159984026371666
aF0.017688622713199265
abag1
(g11
g3
Ntp120
Rp121
(lp122
F-0.346270583075851
aF0.3212167157271824
aF0.8721536427206937
aF0.12753245987895503
ababag1
(g2
g3
Ntp123
Rp124
(lp125
g1
(g7
g3
Ntp126
Rp127
(lp128
F0.07818369283685819
aF0.00986575049702308
aF-0.09801762746703144
abag1
(g11
g3
Ntp129
Rp130
(lp131
F0.16592664163610168
aF-0.15545313569724373
aF0.9734477700326347
aF0.026497381299851467
ababag1
(g2
g3
Ntp132
Rp133
(lp134
g1
(g7
g3
Ntp135
Rp136
(lp137
F0.07497921163147121
aF0.03794827744544406
aF-0.11659376930849516
abag1
(g11
g3
Ntp138
Rp139
(lp140
F0.12672513575248984
aF-0.33425452632647934
aF0.9328197417306424
aF0.045409041350283244
ababag1
(g2
g3
Ntp141
Rp142
(lp143
g1
(g7
g3
Ntp144
Rp145
(lp146
F0.06682636427936706
aF-0.017879825336367464
aF-0.11385496061320473
abag1
(g11
g3
Ntp147
Rp148
(lp149
F0.23403029512425375
aF0.26546492805163846
aF0.9329112252776073
aF-0.06659458453678332
ababag1
(g2
g3
Ntp150
Rp151
(lp152
g1
(g7
g3
Ntp153
Rp154
(lp155
F0.0711692242671167
aF-0.006971969072026157
aF0.026460222542725603
abag1
(g11
g3
Ntp156
Rp157
(lp158
F-0.4810762899828158
aF0.12349233510528318
aF0.8652170281917104
aF0.06866396808894135
ababag1
(g2
g3
Ntp159
Rp160
(lp161
g1
(g7
g3
Ntp162
Rp163
(lp164
F0.09446883232776337
aF0.000493614736581037
aF-0.007887737173211172
abag1
(g11
g3
Ntp165
Rp166
(lp167
F-0.2299379801777629
aF0.3727605269060073
aF0.8938586509319372
aF0.09588966058269148
ababag1
(g2
g3
Ntp168
Rp169
(lp170
g1
(g7
g3
Ntp171
Rp172
(lp173
F0.07374515491458562
aF-0.010727165539445265
aF0.013612091439450495
abag1
(g11
g3
Ntp174
Rp175
(lp176
F-0.40024258911243665
aF0.2560341109678763
aF0.8720338173746802
aF0.11751351086749627
ababag1
(g2
g3
Ntp177
Rp178
(lp179
g1
(g7
g3
Ntp180
Rp181
(lp182
F0.0709433212373128
aF-0.008109432361691298
aF0.014951454163122577
abag1
(g11
g3
Ntp183
Rp184
(lp185
F-0.31757509744628265
aF0.40650419914642477
aF0.842877345943358
aF0.15316061260581593
ababag1
(g2
g3
Ntp186
Rp187
(lp188
g1
(g7
g3
Ntp189
Rp190
(lp191
F0.09263833836179372
aF0.029011043571862617
aF-0.003395185743266893
abag1
(g11
g3
Ntp192
Rp193
(lp194
F-0.3937918456726599
aF-0.09379177576127354
aF0.9135077358462454
aF-0.04043144358458358
ababag1
(g2
g3
Ntp195
Rp196
(lp197
g1
(g7
g3
Ntp198
Rp199
(lp200
F0.041199094727058266
aF-0.005391435756189264
aF-0.1300864614736962
abag1
(g11
g3
Ntp201
Rp202
(lp203
F0.36195871769888927
aF0.3004251886361149
aF0.8736347960246071
aF-0.12447022089549672
ababa.