(lp0
ccopy_reg
_reconstructor
p1
(cgeometry_msgs.msg._Pose
Pose
p2
c__builtin__
object
p3
Ntp4
Rp5
(lp6
g1
(cgeometry_msgs.msg._Point
Point
p7
g3
Ntp8
Rp9
(lp10
F0.0661083398978495
aF-0.020990297902219332
aF-0.0002416357577391963
abag1
(cgeometry_msgs.msg._Quaternion
Quaternion
p11
g3
Ntp12
Rp13
(lp14
F-0.22796725160342202
aF0.18101110980181964
aF0.9557205165448147
aF0.0431764354713119
ababag1
(g2
g3
Ntp15
Rp16
(lp17
g1
(g7
g3
Ntp18
Rp19
(lp20
F0.075322434711729
aF-0.034157184668323654
aF0.022499542171793258
abag1
(g11
g3
Ntp21
Rp22
(lp23
F-0.417312393484093
aF0.033324221557314106
aF0.9080227448158655
aF0.015315266868008937
ababag1
(g2
g3
Ntp24
Rp25
(lp26
g1
(g7
g3
Ntp27
Rp28
(lp29
F0.05970640096120427
aF-0.05865589011483579
aF0.033911954749440205
abag1
(g11
g3
Ntp30
Rp31
(lp32
F-0.3647812061324772
aF0.3319217910056283
aF0.8584098399212038
aF0.14105014368870625
ababag1
(g2
g3
Ntp33
Rp34
(lp35
g1
(g7
g3
Ntp36
Rp37
(lp38
F0.0636960300368629
aF-0.01837506921552904
aF0.007800638331267827
abag1
(g11
g3
Ntp39
Rp40
(lp41
F-0.3423435344902367
aF0.05293732199650866
aF0.9378833428331549
aF0.019323032077728758
ababag1
(g2
g3
Ntp42
Rp43
(lp44
g1
(g7
g3
Ntp45
Rp46
(lp47
F0.0008451181552726297
aF-0.011164421444978952
aF-0.11286075471554748
abag1
(g11
g3
Ntp48
Rp49
(lp50
F0.4697705045196349
aF-0.27801726358922824
aF0.8226905040856414
aF0.15875266522814305
ababag1
(g2
g3
Ntp51
Rp52
(lp53
g1
(g7
g3
Ntp54
Rp55
(lp56
F0.062408919848242976
aF-0.041794837765120774
aF0.051329153803642294
abag1
(g11
g3
Ntp57
Rp58
(lp59
F-0.4448298015097347
aF0.2904078695859038
aF0.8329071908887787
aF0.15509780248975266
ababag1
(g2
g3
Ntp60
Rp61
(lp62
g1
(g7
g3
Ntp63
Rp64
(lp65
F0.08854278357725076
aF-0.051965122895669964
aF-0.05543319958599475
abag1
(g11
g3
Ntp66
Rp67
(lp68
F0.06240496081027657
aF0.3903021590617363
aF0.9181863428502741
aF-0.026527067332328833
ababag1
(g2
g3
Ntp69
Rp70
(lp71
g1
(g7
g3
Ntp72
Rp73
(lp74
F0.08416892531480485
aF-0.0022518418610343255
aF0.038757228461845865
abag1
(g11
g3
Ntp75
Rp76
(lp77
F-0.47528101679083057
aF-0.19337800250401793
aF0.8515060399683555
aF-0.10793686637678464
ababag1
(g2
g3
Ntp78
Rp79
(lp80
g1
(g7
g3
Ntp81
Rp82
(lp83
F0.06547344352129202
aF-0.05379113362348878
aF0.046893694855171905
abag1
(g11
g3
Ntp84
Rp85
(lp86
F-0.369629851190583
aF0.4246465455158376
aF0.8030210105417069
aF0.19546442417705825
ababag1
(g2
g3
Ntp87
Rp88
(lp89
g1
(g7
g3
Ntp90
Rp91
(lp92
F0.06540787948487754
aF-0.046595879484669624
aF-0.09167463510422255
abag1
(g11
g3
Ntp93
Rp94
(lp95
F0.278075436197593
aF0.3742986598999979
aF0.8766284479930463
aF-0.11873133179530587
ababag1
(g2
g3
Ntp96
Rp97
(lp98
g1
(g7
g3
Ntp99
Rp100
(lp101
F0.029584499049461813
aF0.016612236225416577
aF-0.12432733132247904
abag1
(g11
g3
Ntp102
Rp103
(lp104
F0.3599000473742039
aF-0.3787265186360521
aF0.8369687951595678
aF0.1628539711244506
ababag1
(g2
g3
Ntp105
Rp106
(lp107
g1
(g7
g3
Ntp108
Rp109
(lp110
F0.03490987744998504
aF-0.0031196836448835973
aF-0.12056285211963211
abag1
(g11
g3
Ntp111
Rp112
(lp113
F0.37116573020141275
aF-0.23457132350504187
aF0.8931459754460839
aF0.09748108256276465
ababag1
(g2
g3
Ntp114
Rp115
(lp116
g1
(g7
g3
Ntp117
Rp118
(lp119
F0.09615007405413512
aF-0.0012901824210083106
aF-0.058255078305592914
abag1
(g11
g3
Ntp120
Rp121
(lp122
F-0.046826434112102557
aF-0.23289126116598885
aF0.9713098819664917
aF-0.011227588124805944
ababag1
(g2
g3
Ntp123
Rp124
(lp125
g1
(g7
g3
Ntp126
Rp127
(lp128
F0.05421887637118272
aF-0.04095873306237357
aF-0.04627950621719925
abag1
(g11
g3
Ntp129
Rp130
(lp131
F0.018198456195887062
aF0.32834777606364474
aF0.9443603746062323
aF-0.006327481309455334
ababag1
(g2
g3
Ntp132
Rp133
(lp134
g1
(g7
g3
Ntp135
Rp136
(lp137
F0.04108620535637693
aF-0.013386208483063593
aF-0.06850900691824045
abag1
(g11
g3
Ntp138
Rp139
(lp140
F0.33135833491662076
aF0.017260026799152988
aF0.9433276139322574
aF-0.006062849911647235
ababag1
(g2
g3
Ntp141
Rp142
(lp143
g1
(g7
g3
Ntp144
Rp145
(lp146
F0.036302846486710325
aF-0.01994327854823062
aF-0.07432867310867647
abag1
(g11
g3
Ntp147
Rp148
(lp149
F0.3228613053474511
aF-0.16552362473008128
aF0.9300865838452653
aF0.057458278051117945
ababa.