(lp0
ccopy_reg
_reconstructor
p1
(cgeometry_msgs.msg._Pose
Pose
p2
c__builtin__
object
p3
Ntp4
Rp5
(lp6
g1
(cgeometry_msgs.msg._Point
Point
p7
g3
Ntp8
Rp9
(lp10
F0.16077278322456948
aF0.03110477648472444
aF0.042860921588667035
abag1
(cgeometry_msgs.msg._Quaternion
Quaternion
p11
g3
Ntp12
Rp13
(lp14
F-0.3473742904279148
aF-0.255633663929176
aF0.8967590551892749
aF-0.09902388172500005
ababag1
(g2
g3
Ntp15
Rp16
(lp17
g1
(g7
g3
Ntp18
Rp19
(lp20
F0.14016371596592647
aF0.020129053757756744
aF-0.06424123679091685
abag1
(g11
g3
Ntp21
Rp22
(lp23
F0.14170550441288085
aF-0.14290455694979268
aF0.9793213261226001
aF0.02067795501364841
ababag1
(g2
g3
Ntp24
Rp25
(lp26
g1
(g7
g3
Ntp27
Rp28
(lp29
F0.16905741445584851
aF0.02437387987533944
aF-0.00586963219110064
abag1
(g11
g3
Ntp30
Rp31
(lp32
F-0.174287707345948
aF-0.16530419418358555
aF0.9702662631373784
aF-0.02969338429408762
ababag1
(g2
g3
Ntp33
Rp34
(lp35
g1
(g7
g3
Ntp36
Rp37
(lp38
F0.15057163704471557
aF0.0483647237328775
aF-0.048412837959638674
abag1
(g11
g3
Ntp39
Rp40
(lp41
F0.06029163841866623
aF-0.4234932897995997
aF0.9034487375845383
aF0.028261818561608972
ababag1
(g2
g3
Ntp42
Rp43
(lp44
g1
(g7
g3
Ntp45
Rp46
(lp47
F0.0577826587544979
aF0.0423679157411257
aF-0.0959613568599883
abag1
(g11
g3
Ntp48
Rp49
(lp50
F0.45560704693723614
aF-0.30847948477936193
aF0.8171156464284504
aF0.17200187967928215
ababag1
(g2
g3
Ntp51
Rp52
(lp53
g1
(g7
g3
Ntp54
Rp55
(lp56
F0.09278151654437367
aF0.042021369380768024
aF-0.07613732937509417
abag1
(g11
g3
Ntp57
Rp58
(lp59
F0.36357349508912223
aF-0.32710204772994583
aF0.861249736175299
aF0.13808495927339146
ababag1
(g2
g3
Ntp60
Rp61
(lp62
g1
(g7
g3
Ntp63
Rp64
(lp65
F0.0612536926886237
aF0.04260509013418043
aF-0.09362070686418739
abag1
(g11
g3
Ntp66
Rp67
(lp68
F0.4828391390437417
aF-0.14605544265079864
aF0.8595363120124949
aF0.08204573000185135
ababag1
(g2
g3
Ntp69
Rp70
(lp71
g1
(g7
g3
Ntp72
Rp73
(lp74
F0.13181768854414452
aF0.031916013166368926
aF-0.020216626291363865
abag1
(g11
g3
Ntp75
Rp76
(lp77
F0.12769033354970055
aF-0.21473094839550258
aF0.9678756425330766
aF0.028329121241552714
ababag1
(g2
g3
Ntp78
Rp79
(lp80
g1
(g7
g3
Ntp81
Rp82
(lp83
F0.050623492118179715
aF0.045900793037705306
aF-0.10009616351496507
abag1
(g11
g3
Ntp84
Rp85
(lp86
F0.483853435483203
aF-0.13505746272669847
aF0.8613299420321209
aF0.07586873988588304
ababag1
(g2
g3
Ntp87
Rp88
(lp89
g1
(g7
g3
Ntp90
Rp91
(lp92
F0.1339038589722273
aF0.040880986220476985
aF0.03348902164165024
abag1
(g11
g3
Ntp93
Rp94
(lp95
F-0.1901266677270966
aF-0.37862156563950444
aF0.9022929194370802
aF-0.0797812495852961
ababag1
(g2
g3
Ntp96
Rp97
(lp98
g1
(g7
g3
Ntp99
Rp100
(lp101
F0.14052335968890728
aF0.016998080495802655
aF-0.006916832387958962
abag1
(g11
g3
Ntp102
Rp103
(lp104
F0.012184438983287416
aF-0.32487407356797665
aF0.9456695271756683
aF0.004185826245732164
ababag1
(g2
g3
Ntp105
Rp106
(lp107
g1
(g7
g3
Ntp108
Rp109
(lp110
F0.11209606776383589
aF0.006660437224297473
aF-0.04787680445399171
abag1
(g11
g3
Ntp111
Rp112
(lp113
F0.15953051799929918
aF-0.3495885512452822
aF0.9212344778836565
aF0.06053837975637259
ababag1
(g2
g3
Ntp114
Rp115
(lp116
g1
(g7
g3
Ntp117
Rp118
(lp119
F0.1349854948097176
aF0.012645842656835023
aF0.03645198710893989
abag1
(g11
g3
Ntp120
Rp121
(lp122
F-0.35246133771018895
aF-0.18433695520403645
aF0.9147381996074558
aF-0.07102759002359291
ababag1
(g2
g3
Ntp123
Rp124
(lp125
g1
(g7
g3
Ntp126
Rp127
(lp128
F0.114368570060414
aF-0.0050466468247045825
aF-0.039564681157148264
abag1
(g11
g3
Ntp129
Rp130
(lp131
F0.19157187545508142
aF-0.21974580864018056
aF0.9555475444958553
aF0.04405549145835874
ababag1
(g2
g3
Ntp132
Rp133
(lp134
g1
(g7
g3
Ntp135
Rp136
(lp137
F0.1283806814588836
aF0.0035139497072776147
aF-0.03400235976830821
abag1
(g11
g3
Ntp138
Rp139
(lp140
F-0.027850644581575337
aF-0.11959372898613023
aF0.9924265300952503
aF-0.0033561803712142597
ababag1
(g2
g3
Ntp141
Rp142
(lp143
g1
(g7
g3
Ntp144
Rp145
(lp146
F0.08406782890832473
aF0.024654594538327294
aF-0.07169331993524306
abag1
(g11
g3
Ntp147
Rp148
(lp149
F0.4172483440429437
aF0.11232110443784672
aF0.9003211174588104
aF-0.05205453245398322
ababag1
(g2
g3
Ntp150
Rp151
(lp152
g1
(g7
g3
Ntp153
Rp154
(lp155
F0.11623653008533713
aF0.03196453322143243
aF-0.03173574834745897
abag1
(g11
g3
Ntp156
Rp157
(lp158
F0.12050801315210148
aF-0.42159694854765833
aF0.8969534229690728
aF0.05664264087681491
ababag1
(g2
g3
Ntp159
Rp160
(lp161
g1
(g7
g3
Ntp162
Rp163
(lp164
F0.0787821656737655
aF0.0573198155363568
aF-0.08102246339401499
abag1
(g11
g3
Ntp165
Rp166
(lp167
F0.3071221692139244
aF-0.43895127168906833
aF0.8285680620963262
aF0.16270439678700127
ababag1
(g2
g3
Ntp168
Rp169
(lp170
g1
(g7
g3
Ntp171
Rp172
(lp173
F0.12122386403968637
aF0.021382290635013994
aF-0.013241486721559923
abag1
(g11
g3
Ntp174
Rp175
(lp176
F0.12116994106923602
aF-0.2559629581991352
aF0.9585164650410852
aF0.0323573122550035
ababag1
(g2
g3
Ntp177
Rp178
(lp179
g1
(g7
g3
Ntp180
Rp181
(lp182
F0.1070214997199777
aF0.027315011067940806
aF-0.047343890047947604
abag1
(g11
g3
Ntp183
Rp184
(lp185
F0.3212852745541578
aF0.055868816147145596
aF0.945142192601368
aF-0.018991669269834536
ababag1
(g2
g3
Ntp186
Rp187
(lp188
g1
(g7
g3
Ntp189
Rp190
(lp191
F0.1347678828140327
aF0.03775239506288437
aF-0.018112962499953936
abag1
(g11
g3
Ntp192
Rp193
(lp194
F0.04864251535946772
aF-0.3902206601718785
aF0.9192036392382811
aF0.020649738149123877
ababag1
(g2
g3
Ntp195
Rp196
(lp197
g1
(g7
g3
Ntp198
Rp199
(lp200
F0.13624001613790138
aF0.05219157320539236
aF-0.035744446874736796
abag1
(g11
g3
Ntp201
Rp202
(lp203
F0.06847154272177787
aF-0.4825762906159387
aF0.872351445663216
aF0.03787778797604351
ababag1
(g2
g3
Ntp204
Rp205
(lp206
g1
(g7
g3
Ntp207
Rp208
(lp209
F0.13190235665101385
aF0.02292976388609567
aF-0.03566054419149183
abag1
(g11
g3
Ntp210
Rp211
(lp212
F0.20680675403890944
aF-0.23650087224693292
aF0.9479642851733548
aF0.05159474727237725
ababag1
(g2
g3
Ntp213
Rp214
(lp215
g1
(g7
g3
Ntp216
Rp217
(lp218
F0.1420931009085178
aF0.02596649835816818
aF0.021296619518979085
abag1
(g11
g3
Ntp219
Rp220
(lp221
F-0.12756187472425984
aF-0.42658685611083147
aF0.8933314786372237
aF-0.060913804561368
ababag1
(g2
g3
Ntp222
Rp223
(lp224
g1
(g7
g3
Ntp225
Rp226
(lp227
F0.07944307275732643
aF0.023614410122124715
aF-0.08788519067786996
abag1
(g11
g3
Ntp228
Rp229
(lp230
F0.4568809084652958
aF-0.09201866418047472
aF0.8834749096713714
aF0.047586604244569404
ababag1
(g2
g3
Ntp231
Rp232
(lp233
g1
(g7
g3
Ntp234
Rp235
(lp236
F0.12720480017547087
aF0.046987239584377914
aF-0.05680095364868856
abag1
(g11
g3
Ntp237
Rp238
(lp239
F0.13035950262237522
aF-0.3575736441493915
aF0.9233629112954596
aF0.0504819089352285
ababag1
(g2
g3
Ntp240
Rp241
(lp242
g1
(g7
g3
Ntp243
Rp244
(lp245
F0.119486030009987
aF0.013853433260956947
aF-0.06802109673055474
abag1
(g11
g3
Ntp246
Rp247
(lp248
F0.18464832402618553
aF0.05587920418240377
aF0.9811584590358938
aF-0.010516141715107414
ababag1
(g2
g3
Ntp249
Rp250
(lp251
g1
(g7
g3
Ntp252
Rp253
(lp254
F0.10984021202662943
aF0.01634529480816439
aF-0.060052128294611665
abag1
(g11
g3
Ntp255
Rp256
(lp257
F0.29268754033405264
aF-0.0929975721579238
aF0.9512448031649448
aF0.028614327837985058
ababag1
(g2
g3
Ntp258
Rp259
(lp260
g1
(g7
g3
Ntp261
Rp262
(lp263
F0.1227097431636855
aF0.03264664370428572
aF-0.05879193543096069
abag1
(g11
g3
Ntp264
Rp265
(lp266
F0.10741830757117074
aF-0.20797072267587174
aF0.9719471135961825
aF0.022984648795898427
ababa.