(lp0
ccopy_reg
_reconstructor
p1
(cgeometry_msgs.msg._Pose
Pose
p2
c__builtin__
object
p3
Ntp4
Rp5
(lp6
g1
(cgeometry_msgs.msg._Point
Point
p7
g3
Ntp8
Rp9
(lp10
F0.07461351072156683
aF-0.050289769974864576
aF-0.03809351410284402
abag1
(cgeometry_msgs.msg._Quaternion
Quaternion
p11
g3
Ntp12
Rp13
(lp14
F0.12837427028181328
aF0.1535270819580829
aF0.9795635063344665
aF-0.02012011164913235
ababag1
(g2
g3
Ntp15
Rp16
(lp17
g1
(g7
g3
Ntp18
Rp19
(lp20
F0.0687136593961915
aF-0.06452545992192646
aF0.014329416903201669
abag1
(g11
g3
Ntp21
Rp22
(lp23
F-0.19468957339047915
aF0.3582161630690693
aF0.909891368401415
aF0.07664755858935013
ababag1
(g2
g3
Ntp24
Rp25
(lp26
g1
(g7
g3
Ntp27
Rp28
(lp29
F0.05918083895952033
aF-0.03859113617502907
aF-0.05896875734165149
abag1
(g11
g3
Ntp30
Rp31
(lp32
F0.2076807277988572
aF0.07806467559793495
aF0.9749349140445528
aF-0.01662934459522283
ababag1
(g2
g3
Ntp33
Rp34
(lp35
g1
(g7
g3
Ntp36
Rp37
(lp38
F0.048597898808959185
aF-0.04116960852754273
aF-0.09805968559005743
abag1
(g11
g3
Ntp39
Rp40
(lp41
F0.25668502894079637
aF-0.13692804478853607
aF0.9560397222660911
aF0.0367635133988393
ababag1
(g2
g3
Ntp42
Rp43
(lp44
g1
(g7
g3
Ntp45
Rp46
(lp47
F0.07947829033406681
aF-0.06371133087426394
aF-0.019858960996732584
abag1
(g11
g3
Ntp48
Rp49
(lp50
F-0.11558198447447005
aF0.24223886807399458
aF0.9628684208353852
aF0.02907816736221359
ababag1
(g2
g3
Ntp51
Rp52
(lp53
g1
(g7
g3
Ntp54
Rp55
(lp56
F0.08140513142557482
aF-0.06793612038851969
aF-0.01706029923307587
abag1
(g11
g3
Ntp57
Rp58
(lp59
F-0.16416585794050328
aF0.23980589392658339
aF0.9559533243612307
aF0.041181864545481436
ababag1
(g2
g3
Ntp60
Rp61
(lp62
g1
(g7
g3
Ntp63
Rp64
(lp65
F0.03659629326088622
aF-0.04588235316250494
aF-0.0926771577815835
abag1
(g11
g3
Ntp66
Rp67
(lp68
F0.39488218446072876
aF-0.08151020018452558
aF0.9144316211824258
aF0.035198832978978516
ababag1
(g2
g3
Ntp69
Rp70
(lp71
g1
(g7
g3
Ntp72
Rp73
(lp74
F0.03569196383546843
aF-0.045276927472610265
aF-0.0944011918148966
abag1
(g11
g3
Ntp75
Rp76
(lp77
F0.33810709755137025
aF0.010934291917165476
aF0.941035917423407
aF-0.0039286084998909
ababag1
(g2
g3
Ntp78
Rp79
(lp80
g1
(g7
g3
Ntp81
Rp82
(lp83
F-0.00936892035226029
aF-0.03055527885412221
aF-0.11761287383568456
abag1
(g11
g3
Ntp84
Rp85
(lp86
F0.4595906586270181
aF-0.3174038582072308
aF0.8096736030396585
aF0.18016623945324883
ababag1
(g2
g3
Ntp87
Rp88
(lp89
g1
(g7
g3
Ntp90
Rp91
(lp92
F0.05029759307223191
aF-0.0399278871914416
aF-0.05880462079139204
abag1
(g11
g3
Ntp93
Rp94
(lp95
F0.19104075144156987
aF0.03139061806405526
aF0.9810610051558882
aF-0.006112654800931104
ababag1
(g2
g3
Ntp96
Rp97
(lp98
g1
(g7
g3
Ntp99
Rp100
(lp101
F0.04188746109777427
aF-0.03294439194144096
aF-0.0789941102037031
abag1
(g11
g3
Ntp102
Rp103
(lp104
F0.1921391433480372
aF-0.20280199312925637
aF0.9593247885209069
aF0.04061836168041502
ababag1
(g2
g3
Ntp105
Rp106
(lp107
g1
(g7
g3
Ntp108
Rp109
(lp110
F0.023750973041789258
aF-0.057769378919557364
aF0.058166404912362205
abag1
(g11
g3
Ntp111
Rp112
(lp113
F-0.3780892282382736
aF0.42569552288889456
aF0.7968932011804126
aF0.20197297639776451
ababag1
(g2
g3
Ntp114
Rp115
(lp116
g1
(g7
g3
Ntp117
Rp118
(lp119
F0.020168025953127618
aF-0.048212484737377936
aF-0.10462127891929666
abag1
(g11
g3
Ntp120
Rp121
(lp122
F0.4611371200955323
aF-0.054506092147558145
aF0.8851979399371026
aF0.02839453327509168
ababag1
(g2
g3
Ntp123
Rp124
(lp125
g1
(g7
g3
Ntp126
Rp127
(lp128
F0.057774598362000724
aF-0.04817534146873663
aF-0.056285790924858484
abag1
(g11
g3
Ntp129
Rp130
(lp131
F0.18202177696927171
aF0.07513874668197401
aF0.9803201510125542
aF-0.013951450631888246
ababag1
(g2
g3
Ntp132
Rp133
(lp134
g1
(g7
g3
Ntp135
Rp136
(lp137
F0.04027790163006126
aF-0.05058359120279032
aF-0.08138127284234312
abag1
(g11
g3
Ntp138
Rp139
(lp140
F0.32298818628833714
aF0.33318470491532676
aF0.8772793001910224
aF-0.12266871396165815
ababag1
(g2
g3
Ntp141
Rp142
(lp143
g1
(g7
g3
Ntp144
Rp145
(lp146
F0.045665878529267484
aF-0.0469520854744865
aF-0.07504018350737846
abag1
(g11
g3
Ntp147
Rp148
(lp149
F0.19651235743173381
aF-0.12049354965829172
aF0.9727649734670063
aF0.024341410458352305
ababag1
(g2
g3
Ntp150
Rp151
(lp152
g1
(g7
g3
Ntp153
Rp154
(lp155
F0.014506272305104971
aF-0.04925272113790261
aF-0.10574690536573954
abag1
(g11
g3
Ntp156
Rp157
(lp158
F0.44361662891649917
aF-0.11053644745270443
aF0.8876566436233404
aF0.05524186242916452
ababag1
(g2
g3
Ntp159
Rp160
(lp161
g1
(g7
g3
Ntp162
Rp163
(lp164
F0.02914022697545845
aF-0.05125779364799419
aF-0.09415473828931382
abag1
(g11
g3
Ntp165
Rp166
(lp167
F0.4242851358979372
aF-0.05412801311207041
aF0.903552018682032
aF0.025417143589186047
ababag1
(g2
g3
Ntp168
Rp169
(lp170
g1
(g7
g3
Ntp171
Rp172
(lp173
F0.09118443900433457
aF-0.03357982277293018
aF-0.05111903704006022
abag1
(g11
g3
Ntp174
Rp175
(lp176
F-0.007823627184978603
aF-0.10486369816391891
aF0.99445548671562
aF-0.0008249886401473865
ababag1
(g2
g3
Ntp177
Rp178
(lp179
g1
(g7
g3
Ntp180
Rp181
(lp182
F0.09604897242122215
aF-0.021429555218787966
aF-0.05640890407087005
abag1
(g11
g3
Ntp183
Rp184
(lp185
F-0.0635437805450585
aF-0.19591700526720762
aF0.9784767940278073
aF-0.012723150169456871
ababag1
(g2
g3
Ntp186
Rp187
(lp188
g1
(g7
g3
Ntp189
Rp190
(lp191
F0.06496449828815754
aF-0.012809301246778702
aF-0.10622304093975396
abag1
(g11
g3
Ntp192
Rp193
(lp194
F0.18039939211177172
aF-0.25843534783298355
aF0.9477591669957822
aF0.049191378224328994
ababag1
(g2
g3
Ntp195
Rp196
(lp197
g1
(g7
g3
Ntp198
Rp199
(lp200
F0.08790351121689309
aF-0.053812831244400394
aF0.02145130570009841
abag1
(g11
g3
Ntp201
Rp202
(lp203
F-0.3704123298387718
aF0.1568047690437192
aF0.9133250869167605
aF0.06359446451579637
ababag1
(g2
g3
Ntp204
Rp205
(lp206
g1
(g7
g3
Ntp207
Rp208
(lp209
F0.03432281506072749
aF0.0004618674327385079
aF-0.12474250598037309
abag1
(g11
g3
Ntp210
Rp211
(lp212
F0.32184495084117604
aF-0.3517255256555529
aF0.8693382393405086
aF0.13021523659200135
ababa.