(lp0
ccopy_reg
_reconstructor
p1
(cgeometry_msgs.msg._Pose
Pose
p2
c__builtin__
object
p3
Ntp4
Rp5
(lp6
g1
(cgeometry_msgs.msg._Point
Point
p7
g3
Ntp8
Rp9
(lp10
F0.07530623122846977
aF0.07459482432048715
aF-0.10207572635928054
abag1
(cgeometry_msgs.msg._Quaternion
Quaternion
p11
g3
Ntp12
Rp13
(lp14
F0.16116365222814757
aF-0.48336882243259766
aF0.8556233985387136
aF0.09104646381749418
ababag1
(g2
g3
Ntp15
Rp16
(lp17
g1
(g7
g3
Ntp18
Rp19
(lp20
F0.07093669894396416
aF-0.003260182643152638
aF-0.11341956189445153
abag1
(g11
g3
Ntp21
Rp22
(lp23
F0.3512670007755273
aF0.13701088009448903
aF0.9247328625059952
aF-0.05204465297576092
ababag1
(g2
g3
Ntp24
Rp25
(lp26
g1
(g7
g3
Ntp27
Rp28
(lp29
F0.08858405498176809
aF-0.0019676049833197966
aF0.029229902729453947
abag1
(g11
g3
Ntp30
Rp31
(lp32
F-0.39745284179243306
aF0.2469172835888181
aF0.8766591798340675
aF0.11194541539919678
ababag1
(g2
g3
Ntp33
Rp34
(lp35
g1
(g7
g3
Ntp36
Rp37
(lp38
F0.06545867894901632
aF0.026659209872548915
aF0.03932739758870604
abag1
(g11
g3
Ntp39
Rp40
(lp41
F-0.41035608907570514
aF-0.4392932625853596
aF0.7634646475002669
aF-0.23611658481118072
ababag1
(g2
g3
Ntp42
Rp43
(lp44
g1
(g7
g3
Ntp45
Rp46
(lp47
F0.078005087974197
aF0.008916814209392119
aF0.030318016191191753
abag1
(g11
g3
Ntp48
Rp49
(lp50
F-0.3485789143165957
aF0.28065593113521276
aF0.8874528972799044
aF0.11023767015858839
ababag1
(g2
g3
Ntp51
Rp52
(lp53
g1
(g7
g3
Ntp54
Rp55
(lp56
F0.05586940497057556
aF0.002116163184624277
aF-0.1195286596180857
abag1
(g11
g3
Ntp57
Rp58
(lp59
F0.3975584686539474
aF0.09265348765949774
aF0.9119930167213056
aF-0.04038975956393066
ababa.