(lp0
ccopy_reg
_reconstructor
p1
(cgeometry_msgs.msg._Pose
Pose
p2
c__builtin__
object
p3
Ntp4
Rp5
(lp6
g1
(cgeometry_msgs.msg._Point
Point
p7
g3
Ntp8
Rp9
(lp10
F0.09057506698828109
aF0.07400705627459431
aF0.02321412790870477
abag1
(cgeometry_msgs.msg._Quaternion
Quaternion
p11
g3
Ntp12
Rp13
(lp14
F-0.045673131855667626
aF0.42524612066251355
aF0.9036690567390621
aF0.02149273785053193
ababag1
(g2
g3
Ntp15
Rp16
(lp17
g1
(g7
g3
Ntp18
Rp19
(lp20
F0.08957499006833096
aF0.043188863812187034
aF0.05266957531100934
abag1
(g11
g3
Ntp21
Rp22
(lp23
F-0.271521621024785
aF0.38749452148624974
aF0.8726905863698128
aF0.12056179160798766
ababag1
(g2
g3
Ntp24
Rp25
(lp26
g1
(g7
g3
Ntp27
Rp28
(lp29
F0.033759144765473335
aF0.04816681359386288
aF-0.08837236626397889
abag1
(g11
g3
Ntp30
Rp31
(lp32
F0.45734177508288454
aF0.2713645010184637
aF0.8336902102914137
aF-0.14886383582084342
ababag1
(g2
g3
Ntp33
Rp34
(lp35
g1
(g7
g3
Ntp36
Rp37
(lp38
F0.07085313883286774
aF0.061518907762855304
aF-0.06357183918320113
abag1
(g11
g3
Ntp39
Rp40
(lp41
F0.33611727218983306
aF0.17862432167301337
aF0.9224327430880628
aF-0.06508736837170226
ababag1
(g2
g3
Ntp42
Rp43
(lp44
g1
(g7
g3
Ntp45
Rp46
(lp47
F0.13142734489188415
aF0.11602270285480333
aF-0.021271777798388132
abag1
(g11
g3
Ntp48
Rp49
(lp50
F-0.10687472236816678
aF-0.26239108708585157
aF0.9585785679053267
aF-0.029254748148042783
ababag1
(g2
g3
Ntp51
Rp52
(lp53
g1
(g7
g3
Ntp54
Rp55
(lp56
F0.054548967143585654
aF0.05691151063340004
aF-0.08712046204554716
abag1
(g11
g3
Ntp57
Rp58
(lp59
F0.3480320973166367
aF0.12377977217756331
aF0.9281151804773237
aF-0.04641593481336811
ababag1
(g2
g3
Ntp60
Rp61
(lp62
g1
(g7
g3
Ntp63
Rp64
(lp65
F0.014937898387495423
aF0.10958964915108117
aF-0.10260884442868808
abag1
(g11
g3
Ntp66
Rp67
(lp68
F0.45301957233715284
aF-0.3407046278335636
aF0.8009752344684107
aF0.19269742453009261
ababag1
(g2
g3
Ntp69
Rp70
(lp71
g1
(g7
g3
Ntp72
Rp73
(lp74
F0.10329976961817529
aF0.09994695253299324
aF-0.05843651937210652
abag1
(g11
g3
Ntp75
Rp76
(lp77
F0.23882121875198845
aF-0.060041152037528585
aF0.9690926434099787
aF0.014796419312833224
ababag1
(g2
g3
Ntp78
Rp79
(lp80
g1
(g7
g3
Ntp81
Rp82
(lp83
F0.12333320498679153
aF0.09488372768918393
aF0.05022065084517109
abag1
(g11
g3
Ntp84
Rp85
(lp86
F-0.3731672490404328
aF0.029290320367842182
aF0.9272266839409408
aF0.011788043274083362
ababag1
(g2
g3
Ntp87
Rp88
(lp89
g1
(g7
g3
Ntp90
Rp91
(lp92
F0.1243573089042595
aF0.07133749890896791
aF-0.020702845563197545
abag1
(g11
g3
Ntp93
Rp94
(lp95
F0.015199057406931208
aF0.3305793584875805
aF0.9436407818659996
aF-0.0053245840406171896
ababag1
(g2
g3
Ntp96
Rp97
(lp98
g1
(g7
g3
Ntp99
Rp100
(lp101
F0.12948214621025567
aF0.13222752390888567
aF-0.033677267839819926
abag1
(g11
g3
Ntp102
Rp103
(lp104
F-0.04326108530612054
aF-0.3284867864853884
aF0.943397056330349
aF-0.01506332333424373
ababag1
(g2
g3
Ntp105
Rp106
(lp107
g1
(g7
g3
Ntp108
Rp109
(lp110
F0.11972215266307991
aF0.07968158257904724
aF0.03274369293147591
abag1
(g11
g3
Ntp111
Rp112
(lp113
F-0.24468458584746028
aF0.09382021504027588
aF0.9647595676038527
aF0.023794903136608075
ababag1
(g2
g3
Ntp114
Rp115
(lp116
g1
(g7
g3
Ntp117
Rp118
(lp119
F0.09453248127719907
aF0.061656467535702024
aF-0.06291336149768473
abag1
(g11
g3
Ntp120
Rp121
(lp122
F0.2363338563784143
aF0.29868513696425864
aF0.9214471481218202
aF-0.07660711784236356
ababag1
(g2
g3
Ntp123
Rp124
(lp125
g1
(g7
g3
Ntp126
Rp127
(lp128
F0.09982473465455513
aF0.047844970333721086
aF0.03921662429953234
abag1
(g11
g3
Ntp129
Rp130
(lp131
F-0.2619565427691749
aF0.28899813440252714
aF0.9170847377714766
aF0.08254957152464559
ababag1
(g2
g3
Ntp132
Rp133
(lp134
g1
(g7
g3
Ntp135
Rp136
(lp137
F0.028591378940647956
aF0.05169932619631144
aF-0.09356209284093354
abag1
(g11
g3
Ntp138
Rp139
(lp140
F0.46532490069232313
aF0.2001063685338629
aF0.855323726286165
aF-0.10886460085729918
ababag1
(g2
g3
Ntp141
Rp142
(lp143
g1
(g7
g3
Ntp144
Rp145
(lp146
F0.03384660628288357
aF0.13272052457015063
aF-0.09052141021354347
abag1
(g11
g3
Ntp147
Rp148
(lp149
F0.30676300199098155
aF-0.4449046322604002
aF0.8249772870575678
aF0.1654351977115345
ababag1
(g2
g3
Ntp150
Rp151
(lp152
g1
(g7
g3
Ntp153
Rp154
(lp155
F0.11076373307201523
aF0.04862839062908483
aF0.039092914746518874
abag1
(g11
g3
Ntp156
Rp157
(lp158
F-0.2537215116592177
aF0.30636784491136754
aF0.913522710911808
aF0.08509050930666269
ababag1
(g2
g3
Ntp159
Rp160
(lp161
g1
(g7
g3
Ntp162
Rp163
(lp164
F0.11990071906892803
aF0.08453376958604139
aF0.040214579151733244
abag1
(g11
g3
Ntp165
Rp166
(lp167
F-0.36637118899831517
aF-0.12164610462661833
aF0.9212132342155647
aF-0.04837927456287362
ababag1
(g2
g3
Ntp168
Rp169
(lp170
g1
(g7
g3
Ntp171
Rp172
(lp173
F0.055422695335246575
aF0.05230792780403787
aF-0.08918942461895635
abag1
(g11
g3
Ntp174
Rp175
(lp176
F0.3864419241919777
aF0.2052690461704466
aF0.8948007265016179
aF-0.08865053729816778
ababa.