(lp0
ccopy_reg
_reconstructor
p1
(cgeometry_msgs.msg._Pose
Pose
p2
c__builtin__
object
p3
Ntp4
Rp5
(lp6
g1
(cgeometry_msgs.msg._Point
Point
p7
g3
Ntp8
Rp9
(lp10
F0.07730429229843988
aF-0.03469637890096372
aF-0.08378925781124583
abag1
(cgeometry_msgs.msg._Quaternion
Quaternion
p11
g3
Ntp12
Rp13
(lp14
F0.17708203553187235
aF0.2823213331916017
aF0.9413373409165082
aF-0.05310958588657006
ababag1
(g2
g3
Ntp15
Rp16
(lp17
g1
(g7
g3
Ntp18
Rp19
(lp20
F0.0449575672173215
aF-0.029478206285598357
aF-0.12552829947908525
abag1
(g11
g3
Ntp21
Rp22
(lp23
F0.31494771430636725
aF0.10236820093936753
aF0.9429526256521078
aF-0.03419114600928377
ababag1
(g2
g3
Ntp24
Rp25
(lp26
g1
(g7
g3
Ntp27
Rp28
(lp29
F0.08260741895055171
aF-0.02592629184579319
aF0.025049969445336693
abag1
(g11
g3
Ntp30
Rp31
(lp32
F-0.45809299615303956
aF0.061544847155431126
aF0.8862002767329805
aF0.031813647740156575
ababag1
(g2
g3
Ntp33
Rp34
(lp35
g1
(g7
g3
Ntp36
Rp37
(lp38
F0.09063306818409615
aF-0.02130157917131567
aF-0.022229259875995916
abag1
(g11
g3
Ntp39
Rp40
(lp41
F-0.11636236546650616
aF0.04997938637607998
aF0.9919311900286572
aF0.005863027276233868
ababag1
(g2
g3
Ntp42
Rp43
(lp44
g1
(g7
g3
Ntp45
Rp46
(lp47
F0.08340065044757662
aF-0.043813844517225684
aF0.013271526972191786
abag1
(g11
g3
Ntp48
Rp49
(lp50
F-0.3346047714382682
aF0.2854708013888068
aF0.8916671413197446
aF0.10712505577992172
ababag1
(g2
g3
Ntp51
Rp52
(lp53
g1
(g7
g3
Ntp54
Rp55
(lp56
F0.0972220774399717
aF0.01782654012409536
aF-0.061218107041807
abag1
(g11
g3
Ntp57
Rp58
(lp59
F-0.08450798798459006
aF-0.36585503879271297
aF0.9262258081716405
aF-0.0333802761158507
ababag1
(g2
g3
Ntp60
Rp61
(lp62
g1
(g7
g3
Ntp63
Rp64
(lp65
F0.06754340602367397
aF-0.06387848219379508
aF-0.08387197705090142
abag1
(g11
g3
Ntp66
Rp67
(lp68
F0.19620709058096855
aF0.44477374551767057
aF0.8680858379268479
aF-0.10052895550425528
ababag1
(g2
g3
Ntp69
Rp70
(lp71
g1
(g7
g3
Ntp72
Rp73
(lp74
F0.0851153246686821
aF-0.028899451689560804
aF-0.06483271411534863
abag1
(g11
g3
Ntp75
Rp76
(lp77
F-0.047852545862644855
aF-0.08570090814282608
aF0.9951625525708436
aF-0.004120941475119419
ababag1
(g2
g3
Ntp78
Rp79
(lp80
g1
(g7
g3
Ntp81
Rp82
(lp83
F0.04179626321406042
aF-0.05845098427435558
aF0.047783574743927706
abag1
(g11
g3
Ntp84
Rp85
(lp86
F-0.39264413230186196
aF0.4439875615871225
aF0.7732234451106847
aF0.22545761121772567
ababag1
(g2
g3
Ntp87
Rp88
(lp89
g1
(g7
g3
Ntp90
Rp91
(lp92
F0.04911010509639373
aF-0.06870391724377811
aF0.04243948671069064
abag1
(g11
g3
Ntp93
Rp94
(lp95
F-0.39845963052861055
aF0.423458445831884
aF0.7846466001697123
aF0.21504088061287344
ababag1
(g2
g3
Ntp96
Rp97
(lp98
g1
(g7
g3
Ntp99
Rp100
(lp101
F0.037849358919230525
aF-0.03458868966108451
aF-0.128381063439961
abag1
(g11
g3
Ntp102
Rp103
(lp104
F0.2862685984171098
aF-0.013658767711062095
aF0.9580433552279526
aF0.004081314553682463
ababag1
(g2
g3
Ntp105
Rp106
(lp107
g1
(g7
g3
Ntp108
Rp109
(lp110
F0.036462060871561036
aF-0.002059576530781456
aF-0.12994512910718253
abag1
(g11
g3
Ntp111
Rp112
(lp113
F0.2738364412860672
aF-0.30700952997785336
aF0.9067315545167657
aF0.09271806711838554
ababag1
(g2
g3
Ntp114
Rp115
(lp116
g1
(g7
g3
Ntp117
Rp118
(lp119
F0.028874770969543596
aF-0.051150837015449244
aF-0.1209132319609414
abag1
(g11
g3
Ntp120
Rp121
(lp122
F0.4357953316462806
aF0.29063506046325105
aF0.8383241017893481
aF-0.15108405244734982
ababag1
(g2
g3
Ntp123
Rp124
(lp125
g1
(g7
g3
Ntp126
Rp127
(lp128
F0.057795264770876584
aF-0.04429776611804313
aF0.017294829575534697
abag1
(g11
g3
Ntp129
Rp130
(lp131
F-0.26065605553989735
aF0.43021220380950104
aF0.8542505990386035
aF0.13126992970951779
ababag1
(g2
g3
Ntp132
Rp133
(lp134
g1
(g7
g3
Ntp135
Rp136
(lp137
F0.05535161464271154
aF-0.017695582143889128
aF-0.08588431488118937
abag1
(g11
g3
Ntp138
Rp139
(lp140
F0.22482083319519555
aF-0.14619708339168822
aF0.9627650347507769
aF0.0341393267437627
ababag1
(g2
g3
Ntp141
Rp142
(lp143
g1
(g7
g3
Ntp144
Rp145
(lp146
F0.07284931562156127
aF-0.03525896745536149
aF-0.05716339380194164
abag1
(g11
g3
Ntp147
Rp148
(lp149
F-0.040380218497318814
aF0.19142152683945127
aF0.9806452508029153
aF0.007882201104363357
ababag1
(g2
g3
Ntp150
Rp151
(lp152
g1
(g7
g3
Ntp153
Rp154
(lp155
F0.06324906958974898
aF-0.02958255061536547
aF0.0052733835397204346
abag1
(g11
g3
Ntp156
Rp157
(lp158
F-0.18530823109826464
aF0.36368670488930055
aF0.9098938131443873
aF0.07406813738417889
ababag1
(g2
g3
Ntp159
Rp160
(lp161
g1
(g7
g3
Ntp162
Rp163
(lp164
F0.02196229268777965
aF-0.022552537624485388
aF-0.12220295947156685
abag1
(g11
g3
Ntp165
Rp166
(lp167
F0.3786860351964678
aF0.03937555617778389
aF0.9245465612424405
aF-0.01612787703475187
ababag1
(g2
g3
Ntp168
Rp169
(lp170
g1
(g7
g3
Ntp171
Rp172
(lp173
F0.007361440265375407
aF0.017184056391249262
aF-0.1379407282985404
abag1
(g11
g3
Ntp174
Rp175
(lp176
F0.3499916829272196
aF-0.3219298332171131
aF0.8701142730291588
aF0.12949191572261531
ababag1
(g2
g3
Ntp177
Rp178
(lp179
g1
(g7
g3
Ntp180
Rp181
(lp182
F-0.00013954041384489814
aF-0.03727609062296924
aF-0.13198157988835477
abag1
(g11
g3
Ntp183
Rp184
(lp185
F0.4659723265110568
aF0.2030614300812301
aF0.8540260681006832
aF-0.11079405012782113
ababag1
(g2
g3
Ntp186
Rp187
(lp188
g1
(g7
g3
Ntp189
Rp190
(lp191
F0.06991099200614095
aF-0.021496214574231447
aF-0.021622241217496462
abag1
(g11
g3
Ntp192
Rp193
(lp194
F-0.041594728934281545
aF0.22845765134289847
aF0.9726158150063003
aF0.009770182567418883
ababag1
(g2
g3
Ntp195
Rp196
(lp197
g1
(g7
g3
Ntp198
Rp199
(lp200
F0.04335240713544998
aF-0.054546286883918146
aF0.03617317112561414
abag1
(g11
g3
Ntp201
Rp202
(lp203
F-0.37112179756635844
aF0.4132094656761603
aF0.8097280705976085
aF0.1893858509314028
ababag1
(g2
g3
Ntp204
Rp205
(lp206
g1
(g7
g3
Ntp207
Rp208
(lp209
F0.01850470930789372
aF-0.033030607668940164
aF-0.13005900817361157
abag1
(g11
g3
Ntp210
Rp211
(lp212
F0.3327746688148202
aF0.08514049908863093
aF0.9386698326809202
aF-0.030183777512085758
ababag1
(g2
g3
Ntp213
Rp214
(lp215
g1
(g7
g3
Ntp216
Rp217
(lp218
F0.038376110613992966
aF-0.03788082312139901
aF0.04033428889829778
abag1
(g11
g3
Ntp219
Rp220
(lp221
F-0.3690234930621544
aF0.3782229306500728
aF0.832252367359656
aF0.16770531691906693
ababag1
(g2
g3
Ntp222
Rp223
(lp224
g1
(g7
g3
Ntp225
Rp226
(lp227
F0.04721277239447808
aF-0.02453359847211458
aF0.03150041107222697
abag1
(g11
g3
Ntp228
Rp229
(lp230
F-0.2542012466177599
aF0.44132866307829627
aF0.8504163967665452
aF0.1319192536141203
ababag1
(g2
g3
Ntp231
Rp232
(lp233
g1
(g7
g3
Ntp234
Rp235
(lp236
F0.0725362081525536
aF-0.050394648627307366
aF-0.026588913255066574
abag1
(g11
g3
Ntp237
Rp238
(lp239
F-0.14575194991653798
aF0.32186343383517524
aF0.934151134298258
aF0.05021909342705047
ababag1
(g2
g3
Ntp240
Rp241
(lp242
g1
(g7
g3
Ntp243
Rp244
(lp245
F0.06905908524026623
aF-0.04851748240573226
aF-0.0006103454871650626
abag1
(g11
g3
Ntp246
Rp247
(lp248
F-0.23293864235417852
aF0.29018201259956367
aF0.9253094442813349
aF0.0730508096165003
ababag1
(g2
g3
Ntp249
Rp250
(lp251
g1
(g7
g3
Ntp252
Rp253
(lp254
F0.03742879057537143
aF-0.060005741602653005
aF0.04488444049012836
abag1
(g11
g3
Ntp255
Rp256
(lp257
F-0.4244004866619447
aF0.3905393415582255
aF0.7894860622426432
aF0.20994048475931892
ababag1
(g2
g3
Ntp258
Rp259
(lp260
g1
(g7
g3
Ntp261
Rp262
(lp263
F0.034319842162969454
aF-0.03923380826188377
aF-0.11153516276098598
abag1
(g11
g3
Ntp264
Rp265
(lp266
F0.37321453450789976
aF0.19504703153964817
aF0.9034240748946062
aF-0.08057609831983906
ababag1
(g2
g3
Ntp267
Rp268
(lp269
g1
(g7
g3
Ntp270
Rp271
(lp272
F0.030276413325108165
aF-0.03178093973969257
aF0.05024866817447109
abag1
(g11
g3
Ntp273
Rp274
(lp275
F-0.3628327094667223
aF0.4343139336560785
aF0.8006138466825837
aF0.19682809879012955
ababag1
(g2
g3
Ntp276
Rp277
(lp278
g1
(g7
g3
Ntp279
Rp280
(lp281
F0.07603561392956278
aF-0.03864278953703935
aF-0.061882060165244786
abag1
(g11
g3
Ntp282
Rp283
(lp284
F-0.0514670456969436
aF0.08325505196965781
aF0.9951890279179135
aF0.0043056057131060175
ababag1
(g2
g3
Ntp285
Rp286
(lp287
g1
(g7
g3
Ntp288
Rp289
(lp290
F0.07608981852067435
aF-0.05242440928055628
aF-0.011443224335141913
abag1
(g11
g3
Ntp291
Rp292
(lp293
F-0.2521751066687663
aF0.2336282505326567
aF0.9369480617787815
aF0.06287993049162224
ababag1
(g2
g3
Ntp294
Rp295
(lp296
g1
(g7
g3
Ntp297
Rp298
(lp299
F0.0048682235456542315
aF-0.004887392402918462
aF-0.13485918953388903
abag1
(g11
g3
Ntp300
Rp301
(lp302
F0.40239968312720725
aF-0.29882573532111906
aF0.8537806917283881
aF0.14084106418481426
ababag1
(g2
g3
Ntp303
Rp304
(lp305
g1
(g7
g3
Ntp306
Rp307
(lp308
F0.06982176702761092
aF-0.01096654198998899
aF-0.07048110302418331
abag1
(g11
g3
Ntp309
Rp310
(lp311
F0.03465283809218501
aF-0.3497755258374687
aF0.9361028843696043
aF0.0129480582400054
ababag1
(g2
g3
Ntp312
Rp313
(lp314
g1
(g7
g3
Ntp315
Rp316
(lp317
F0.06910172141602454
aF-0.02733328404371675
aF-0.06719862245661513
abag1
(g11
g3
Ntp318
Rp319
(lp320
F0.16412548684176262
aF0.12171133658028196
aF0.9786892101576439
aF-0.020410904874676974
ababag1
(g2
g3
Ntp321
Rp322
(lp323
g1
(g7
g3
Ntp324
Rp325
(lp326
F0.07309527888676752
aF-0.050566018260413986
aF-0.010184003244893483
abag1
(g11
g3
Ntp327
Rp328
(lp329
F-0.10754400688824
aF0.4937963465005606
aF0.8606930660452612
aF0.061700087736795375
ababag1
(g2
g3
Ntp330
Rp331
(lp332
g1
(g7
g3
Ntp333
Rp334
(lp335
F0.0039020040045854073
aF0.0021480793655767483
aF-0.1416419697521654
abag1
(g11
g3
Ntp336
Rp337
(lp338
F0.38810833484763263
aF-0.24110490977037344
aF0.8831843488871045
aF0.10595163418880946
ababag1
(g2
g3
Ntp339
Rp340
(lp341
g1
(g7
g3
Ntp342
Rp343
(lp344
F0.023659270998121294
aF-0.03557613073209529
aF-0.11990977232031673
abag1
(g11
g3
Ntp345
Rp346
(lp347
F0.45599997246790047
aF0.2660914800937574
aF0.8367997028022205
aF-0.1450020921259513
ababag1
(g2
g3
Ntp348
Rp349
(lp350
g1
(g7
g3
Ntp351
Rp352
(lp353
F0.059315468948953995
aF-0.029102142397561755
aF-0.10048514253877017
abag1
(g11
g3
Ntp354
Rp355
(lp356
F0.145157517723736
aF0.036080696228510775
aF0.9887362740801373
aF-0.0052970488082348804
ababag1
(g2
g3
Ntp357
Rp358
(lp359
g1
(g7
g3
Ntp360
Rp361
(lp362
F0.07592076197519586
aF-0.050640173148675964
aF-0.005054253397803912
abag1
(g11
g3
Ntp363
Rp364
(lp365
F-0.25456319139007283
aF0.2911681916179632
aF0.9186449945114613
aF0.08068481789198952
ababag1
(g2
g3
Ntp366
Rp367
(lp368
g1
(g7
g3
Ntp369
Rp370
(lp371
F0.035782603153592336
aF0.02257812799189904
aF-0.12385125276094737
abag1
(g11
g3
Ntp372
Rp373
(lp374
F0.2472559198704136
aF-0.43576130613035824
aF0.8562372105311322
aF0.12583494534693213
ababag1
(g2
g3
Ntp375
Rp376
(lp377
g1
(g7
g3
Ntp378
Rp379
(lp380
F0.016489316037888665
aF-0.005767742622413312
aF-0.12880224586203068
abag1
(g11
g3
Ntp381
Rp382
(lp383
F0.3918882428593554
aF-0.299698064882321
aF0.8590176246132669
aF0.13672379316775657
ababag1
(g2
g3
Ntp384
Rp385
(lp386
g1
(g7
g3
Ntp387
Rp388
(lp389
F0.06591401404891224
aF-0.047810216243740114
aF-0.08562029639250351
abag1
(g11
g3
Ntp390
Rp391
(lp392
F0.10644025876050542
aF0.2566593173387031
aF0.9602015389843473
aF-0.028451198047154527
ababag1
(g2
g3
Ntp393
Rp394
(lp395
g1
(g7
g3
Ntp396
Rp397
(lp398
F0.01729417533282266
aF-0.022348967611520585
aF-0.13010030580577822
abag1
(g11
g3
Ntp399
Rp400
(lp401
F0.39409409815706303
aF-0.006051278083310512
aF0.9190465117004307
aF0.0025948338289511837
ababag1
(g2
g3
Ntp402
Rp403
(lp404
g1
(g7
g3
Ntp405
Rp406
(lp407
F0.07695220579674646
aF-0.04858053756950054
aF-0.010558673365592882
abag1
(g11
g3
Ntp408
Rp409
(lp410
F-0.22647800681633157
aF0.30474361861391225
aF0.9220827205389076
aF0.07484982181787121
ababag1
(g2
g3
Ntp411
Rp412
(lp413
g1
(g7
g3
Ntp414
Rp415
(lp416
F0.07910170750241462
aF-0.018880120109526465
aF-0.0652408002434856
abag1
(g11
g3
Ntp417
Rp418
(lp419
F-0.04927692029794503
aF-0.046486462422645494
aF0.9977001164509884
aF-0.0022959902138556566
ababag1
(g2
g3
Ntp420
Rp421
(lp422
g1
(g7
g3
Ntp423
Rp424
(lp425
F0.06265306124785158
aF0.0067012700537351505
aF-0.09739983349328972
abag1
(g11
g3
Ntp426
Rp427
(lp428
F0.10880983608970994
aF-0.3310194025689512
aF0.9365401748121251
aF0.038458752656571
ababag1
(g2
g3
Ntp429
Rp430
(lp431
g1
(g7
g3
Ntp432
Rp433
(lp434
F0.0581786384410775
aF-0.0022170040356046883
aF-0.0972254975268091
abag1
(g11
g3
Ntp435
Rp436
(lp437
F0.16193303360561945
aF-0.31880387612399647
aF0.9322420048507116
aF0.05537712151712796
ababag1
(g2
g3
Ntp438
Rp439
(lp440
g1
(g7
g3
Ntp441
Rp442
(lp443
F0.04206878189901932
aF-0.026956570742509903
aF-0.11984715516024882
abag1
(g11
g3
Ntp444
Rp445
(lp446
F0.2398520070977882
aF0.04199550945802792
aF0.9698451036677302
aF-0.010385892751852322
ababag1
(g2
g3
Ntp447
Rp448
(lp449
g1
(g7
g3
Ntp450
Rp451
(lp452
F-0.004140091865842521
aF-0.0037924824223058914
aF-0.14238610000142057
abag1
(g11
g3
Ntp453
Rp454
(lp455
F0.4334960669598399
aF-0.17108138681724439
aF0.8807507789975183
aF0.08420441977891163
ababa.