(lp0
ccopy_reg
_reconstructor
p1
(cgeometry_msgs.msg._Pose
Pose
p2
c__builtin__
object
p3
Ntp4
Rp5
(lp6
g1
(cgeometry_msgs.msg._Point
Point
p7
g3
Ntp8
Rp9
(lp10
F0.03210334340298973
aF0.019465692986679183
aF-0.1269008178248968
abag1
(cgeometry_msgs.msg._Quaternion
Quaternion
p11
g3
Ntp12
Rp13
(lp14
F0.4202224028082826
aF-0.0993807179817017
aF0.9007702922502347
aF0.046362545992448725
ababag1
(g2
g3
Ntp15
Rp16
(lp17
g1
(g7
g3
Ntp18
Rp19
(lp20
F0.02515376306921681
aF0.044741700151998944
aF-0.13823032623267087
abag1
(g11
g3
Ntp21
Rp22
(lp23
F0.36277740442006945
aF-0.2797558574202193
aF0.8814027733637242
aF0.11514497899626776
ababag1
(g2
g3
Ntp24
Rp25
(lp26
g1
(g7
g3
Ntp27
Rp28
(lp29
F0.07331269511888741
aF0.0006330342505104412
aF-0.10259696904975166
abag1
(g11
g3
Ntp30
Rp31
(lp32
F0.24422172954896212
aF0.2872885508931652
aF0.9230620176495518
aF-0.07601017638814976
ababag1
(g2
g3
Ntp33
Rp34
(lp35
g1
(g7
g3
Ntp36
Rp37
(lp38
F0.09910588577857712
aF0.004354721931747073
aF-0.046398747400504314
abag1
(g11
g3
Ntp39
Rp40
(lp41
F0.0
aF0.03617830286229215
aF0.9993453509182921
aF0.0
ababag1
(g2
g3
Ntp42
Rp43
(lp44
g1
(g7
g3
Ntp45
Rp46
(lp47
F0.09030592035873317
aF-0.018858239267429588
aF0.016960188736765525
abag1
(g11
g3
Ntp48
Rp49
(lp50
F-0.3499050074865714
aF0.2885724414750268
aF0.8838789585958544
aF0.11423842745973366
ababag1
(g2
g3
Ntp51
Rp52
(lp53
g1
(g7
g3
Ntp54
Rp55
(lp56
F0.05539356061359088
aF-0.022313137988987472
aF-0.11674161331186866
abag1
(g11
g3
Ntp57
Rp58
(lp59
F0.35875534952337085
aF0.3575154647552281
aF0.8489108223602844
aF-0.15108840898230114
ababag1
(g2
g3
Ntp60
Rp61
(lp62
g1
(g7
g3
Ntp63
Rp64
(lp65
F0.057470793105043355
aF0.007131750390586575
aF-0.12485462848552399
abag1
(g11
g3
Ntp66
Rp67
(lp68
F0.3195861728660414
aF0.15416008321764194
aF0.9334417904933635
aF-0.052780399919952925
ababag1
(g2
g3
Ntp69
Rp70
(lp71
g1
(g7
g3
Ntp72
Rp73
(lp74
F0.0709585260347936
aF-0.007084627281360406
aF0.03107728242858986
abag1
(g11
g3
Ntp75
Rp76
(lp77
F-0.4720652899278468
aF0.15480974984327728
aF0.8637299509236339
aF0.08461013695921431
ababag1
(g2
g3
Ntp78
Rp79
(lp80
g1
(g7
g3
Ntp81
Rp82
(lp83
F0.005847710846842304
aF0.02359763854392072
aF-0.14023968547382565
abag1
(g11
g3
Ntp84
Rp85
(lp86
F0.4703926609574162
aF-0.18741664804951633
aF0.8561557505039294
aF0.10297123593673382
ababag1
(g2
g3
Ntp87
Rp88
(lp89
g1
(g7
g3
Ntp90
Rp91
(lp92
F0.059070832851370055
aF-0.014340103188663467
aF-0.11247224401350343
abag1
(g11
g3
Ntp93
Rp94
(lp95
F0.24855472055135433
aF0.21572426830243527
aF0.9425749721600142
aF-0.05688596324723401
ababag1
(g2
g3
Ntp96
Rp97
(lp98
g1
(g7
g3
Ntp99
Rp100
(lp101
F0.12625358284230326
aF0.052212881424256084
aF-0.029603822836222562
abag1
(g11
g3
Ntp102
Rp103
(lp104
F-0.19991976670496728
aF-0.27502158215962313
aF0.9385966612075751
aF-0.0585792095972769
ababag1
(g2
g3
Ntp105
Rp106
(lp107
g1
(g7
g3
Ntp108
Rp109
(lp110
F0.09947364224992818
aF0.0075021283310581525
aF-0.09633136453719837
abag1
(g11
g3
Ntp111
Rp112
(lp113
F0.1864498637158607
aF0.2722761906156853
aF0.9424439285711274
aF-0.053866184601917014
ababag1
(g2
g3
Ntp114
Rp115
(lp116
g1
(g7
g3
Ntp117
Rp118
(lp119
F0.06888822304921355
aF-0.006082199407369643
aF-0.08976854774103017
abag1
(g11
g3
Ntp120
Rp121
(lp122
F0.17107161555604358
aF0.32992846632298395
aF0.9263744309673513
aF-0.060927195165417704
ababag1
(g2
g3
Ntp123
Rp124
(lp125
g1
(g7
g3
Ntp126
Rp127
(lp128
F0.04636199243260599
aF0.016542435101417778
aF-0.11142590388529396
abag1
(g11
g3
Ntp129
Rp130
(lp131
F0.3704493882657555
aF0.07060992807946924
aF0.9257338144358451
aF-0.02825585957283958
ababag1
(g2
g3
Ntp132
Rp133
(lp134
g1
(g7
g3
Ntp135
Rp136
(lp137
F0.07029283315612604
aF-0.0033074128652480204
aF0.02593927526046064
abag1
(g11
g3
Ntp138
Rp139
(lp140
F-0.40355445632076425
aF0.094381626016035
aF0.9091098002784541
aF0.04189606773780744
ababag1
(g2
g3
Ntp141
Rp142
(lp143
g1
(g7
g3
Ntp144
Rp145
(lp146
F0.09241825556578855
aF0.04047820201350026
aF-0.001420017101877896
abag1
(g11
g3
Ntp147
Rp148
(lp149
F-0.33439820746183174
aF-0.34067824925790613
aF0.8688640270159244
aF-0.13111625332716298
ababag1
(g2
g3
Ntp150
Rp151
(lp152
g1
(g7
g3
Ntp153
Rp154
(lp155
F0.09966878919527249
aF0.008310453483242667
aF-0.012636405563080452
abag1
(g11
g3
Ntp156
Rp157
(lp158
F-0.2342612370208833
aF-0.07877140676120536
aF0.9687899300940018
aF-0.01904756296131674
ababag1
(g2
g3
Ntp159
Rp160
(lp161
g1
(g7
g3
Ntp162
Rp163
(lp164
F0.09475902283065626
aF-0.019956219240634565
aF-0.07011791855219254
abag1
(g11
g3
Ntp165
Rp166
(lp167
F0.03371250615344197
aF0.2805831588965851
aF0.9591867940046633
aF-0.00986164689711869
ababa.