(lp0
ccopy_reg
_reconstructor
p1
(cgeometry_msgs.msg._Pose
Pose
p2
c__builtin__
object
p3
Ntp4
Rp5
(lp6
g1
(cgeometry_msgs.msg._Point
Point
p7
g3
Ntp8
Rp9
(lp10
F0.10237381791126013
aF0.003921666224142125
aF-0.045083224403371605
abag1
(cgeometry_msgs.msg._Quaternion
Quaternion
p11
g3
Ntp12
Rp13
(lp14
F-0.10339805343534302
aF-0.17949832254818907
aF0.9781253242694193
aF-0.018974845744081665
ababag1
(g2
g3
Ntp15
Rp16
(lp17
g1
(g7
g3
Ntp18
Rp19
(lp20
F0.06123602283706772
aF-0.011862331679931157
aF-0.11878635937548708
abag1
(g11
g3
Ntp21
Rp22
(lp23
F0.27295432109712797
aF0.04626981101418082
aF0.9608237431394722
aF-0.013144497045213888
ababag1
(g2
g3
Ntp24
Rp25
(lp26
g1
(g7
g3
Ntp27
Rp28
(lp29
F0.10299985525641787
aF-0.024811592781019725
aF-0.02792935574447819
abag1
(g11
g3
Ntp30
Rp31
(lp32
F-0.18008969870900726
aF0.201540617199429
aF0.9620424736704634
aF0.037727428905082946
ababag1
(g2
g3
Ntp33
Rp34
(lp35
g1
(g7
g3
Ntp36
Rp37
(lp38
F0.0958227804073428
aF-0.009895152376443997
aF-0.06116221555426962
abag1
(g11
g3
Ntp39
Rp40
(lp41
F-0.04342727494323182
aF0.12618542060464738
aF0.9910402296609049
aF0.005529431389783616
ababag1
(g2
g3
Ntp42
Rp43
(lp44
g1
(g7
g3
Ntp45
Rp46
(lp47
F0.05025018823829276
aF0.04669523244150244
aF-0.11948337982490485
abag1
(g11
g3
Ntp48
Rp49
(lp50
F0.22528999407654737
aF-0.2844560530735083
aF0.9292865369626279
aF0.06896161728698968
ababag1
(g2
g3
Ntp51
Rp52
(lp53
g1
(g7
g3
Ntp54
Rp55
(lp56
F0.023576180563440175
aF0.005049867114179671
aF-0.13189612566093895
abag1
(g11
g3
Ntp57
Rp58
(lp59
F0.38410202795125287
aF0.14339590228045646
aF0.9100771793635324
aF-0.06052086363086544
ababag1
(g2
g3
Ntp60
Rp61
(lp62
g1
(g7
g3
Ntp63
Rp64
(lp65
F0.07353739083976249
aF-0.002959358510026975
aF-0.09652746261724059
abag1
(g11
g3
Ntp66
Rp67
(lp68
F0.23032652363961492
aF0.21480899039626178
aF0.9476714067356148
aF-0.05220818909682423
ababag1
(g2
g3
Ntp69
Rp70
(lp71
g1
(g7
g3
Ntp72
Rp73
(lp74
F0.04026067530995962
aF0.03294681149379925
aF-0.13510759336212264
abag1
(g11
g3
Ntp75
Rp76
(lp77
F0.3196927580021568
aF-0.21614000787060064
aF0.9194740496558141
aF0.07514991342781858
ababag1
(g2
g3
Ntp78
Rp79
(lp80
g1
(g7
g3
Ntp81
Rp82
(lp83
F0.02783293396164784
aF-0.00449393494460242
aF-0.13397687180691986
abag1
(g11
g3
Ntp84
Rp85
(lp86
F0.421230440263145
aF0.14162008189441802
aF0.8933361314040688
aF-0.06677742828192593
ababag1
(g2
g3
Ntp87
Rp88
(lp89
g1
(g7
g3
Ntp90
Rp91
(lp92
F0.01741504539434406
aF-0.005571790917349345
aF-0.1381131290693913
abag1
(g11
g3
Ntp93
Rp94
(lp95
F0.4610936236541676
aF0.055864004442780765
aF0.885112963538998
aF-0.029101976020509818
ababag1
(g2
g3
Ntp96
Rp97
(lp98
g1
(g7
g3
Ntp99
Rp100
(lp101
F0.10945747122191453
aF0.02561818928344325
aF-0.06727220022812305
abag1
(g11
g3
Ntp102
Rp103
(lp104
F-0.07488279972508405
aF-0.0849768332089018
aF0.993544404943367
aF-0.0064046490028966336
ababag1
(g2
g3
Ntp105
Rp106
(lp107
g1
(g7
g3
Ntp108
Rp109
(lp110
F0.10577954259381545
aF-0.0005491464728018904
aF-0.049235721795313034
abag1
(g11
g3
Ntp111
Rp112
(lp113
F-0.05842349378053373
aF0.23550943887719492
aF0.9700107188294941
aF0.014184672365375538
ababag1
(g2
g3
Ntp114
Rp115
(lp116
g1
(g7
g3
Ntp117
Rp118
(lp119
F0.0633864563843644
aF0.024125747498349108
aF-0.12540127732812745
abag1
(g11
g3
Ntp120
Rp121
(lp122
F0.2675620896973274
aF-0.07049453458428655
aF0.9607578418035199
aF0.019632069773383685
ababag1
(g2
g3
Ntp123
Rp124
(lp125
g1
(g7
g3
Ntp126
Rp127
(lp128
F0.11420213865615395
aF0.05273518212200814
aF-0.026066343569032095
abag1
(g11
g3
Ntp129
Rp130
(lp131
F-0.23645348926927554
aF-0.33472811825455717
aF0.9079915238458527
aF-0.08716780877270106
ababag1
(g2
g3
Ntp132
Rp133
(lp134
g1
(g7
g3
Ntp135
Rp136
(lp137
F0.09970489073338058
aF0.0063912817428829274
aF-0.0765643576021084
abag1
(g11
g3
Ntp138
Rp139
(lp140
F0.023641527305641702
aF0.1141563831555569
aF0.9931777354897322
aF-0.0027173698654799293
ababag1
(g2
g3
Ntp141
Rp142
(lp143
g1
(g7
g3
Ntp144
Rp145
(lp146
F0.0880818132536596
aF0.039085482870298976
aF-0.0988913638072265
abag1
(g11
g3
Ntp147
Rp148
(lp149
F0.11768190418714251
aF-0.26299060225666393
aF0.9570481450714986
aF0.03233822145339981
ababag1
(g2
g3
Ntp150
Rp151
(lp152
g1
(g7
g3
Ntp153
Rp154
(lp155
F0.10163981878542702
aF0.01575566869272721
aF-0.04431713688257219
abag1
(g11
g3
Ntp156
Rp157
(lp158
F0.0031017168980532273
aF0.01882760528589569
aF0.9998179320355911
aF-5.840853578835401e-05
ababag1
(g2
g3
Ntp159
Rp160
(lp161
g1
(g7
g3
Ntp162
Rp163
(lp164
F0.05324247274561695
aF-0.0022025075607387057
aF0.04124973001321886
abag1
(g11
g3
Ntp165
Rp166
(lp167
F-0.48041927386513733
aF0.21528740816202327
aF0.8412690707799213
aF0.12294309144828149
ababag1
(g2
g3
Ntp168
Rp169
(lp170
g1
(g7
g3
Ntp171
Rp172
(lp173
F0.022074117306994316
aF0.018142976873723123
aF-0.12483594999752887
abag1
(g11
g3
Ntp174
Rp175
(lp176
F0.4627648601184593
aF-0.09849957196395807
aF0.8794658819737712
aF0.051829345033067006
ababag1
(g2
g3
Ntp177
Rp178
(lp179
g1
(g7
g3
Ntp180
Rp181
(lp182
F0.06835217443903997
aF0.04592503146095386
aF-0.10314692726403052
abag1
(g11
g3
Ntp183
Rp184
(lp185
F0.09421638676125808
aF-0.29192376839758166
aF0.9513506031171095
aF0.028910480088027855
ababag1
(g2
g3
Ntp186
Rp187
(lp188
g1
(g7
g3
Ntp189
Rp190
(lp191
F0.07932801875908636
aF0.008385727995543959
aF-0.009554922595058336
abag1
(g11
g3
Ntp192
Rp193
(lp194
F-0.18682740391038813
aF0.15203489879338836
aF0.9701152683698091
aF0.02927928914373049
ababag1
(g2
g3
Ntp195
Rp196
(lp197
g1
(g7
g3
Ntp198
Rp199
(lp200
F0.0746247970064247
aF-0.015844560814239513
aF-0.0912010033744632
abag1
(g11
g3
Ntp201
Rp202
(lp203
F0.18926675991628478
aF0.3292164216034734
aF0.9226232229469004
aF-0.06753539676695207
ababag1
(g2
g3
Ntp204
Rp205
(lp206
g1
(g7
g3
Ntp207
Rp208
(lp209
F0.05917483650397595
aF0.03205891538657151
aF-0.11732660519347113
abag1
(g11
g3
Ntp210
Rp211
(lp212
F0.23112451771425113
aF-0.27516218880852716
aF0.93069754505233
aF0.06833232613500954
ababag1
(g2
g3
Ntp213
Rp214
(lp215
g1
(g7
g3
Ntp216
Rp217
(lp218
F0.08552211028664765
aF-0.01995873692015501
aF0.0048294139602020605
abag1
(g11
g3
Ntp219
Rp220
(lp221
F-0.23940403215647837
aF0.3925133764519234
aF0.8816224936564723
aF0.10658675983664237
ababag1
(g2
g3
Ntp222
Rp223
(lp224
g1
(g7
g3
Ntp225
Rp226
(lp227
F0.0748000752602442
aF-0.010564352126279122
aF0.016508349541031912
abag1
(g11
g3
Ntp228
Rp229
(lp230
F-0.3339243200636733
aF0.11893322882218799
aF0.9340994473084574
aF0.04251656253717047
ababag1
(g2
g3
Ntp231
Rp232
(lp233
g1
(g7
g3
Ntp234
Rp235
(lp236
F0.09446833894819887
aF0.031688097440860506
aF-0.05485485263554652
abag1
(g11
g3
Ntp237
Rp238
(lp239
F-0.11824609532422019
aF-0.34808473728898986
aF0.9289195732211322
aF-0.04430917617943427
ababa.