(lp0
(lp1
F-0.3490658503988659
aF0.8487500000000006
aF0.08487500000000006
aF0.4958750000000004
aF-0.3490658503988659
aF0.8547416330680908
aF0.014625000000000006
aF1.5707963267948966
aF-0.3490658503988659
aF0.6233212918465489
aF0.8758620147521603
aF0.3598750000000003
aF-0.9709475511965975
aF0.07625
aF-0.44734877559829883
aF0.07625
aa(lp2
F-0.3490658503988659
aF0.8041001638291189
aF0.008812500000000001
aF1.482021598040236
aF-0.3490658503988659
aF0.34345089581608657
aF1.5707963267948966
aF0.014187500000000006
aF-0.3490658503988659
aF0.3918750000000002
aF1.3526328051934042
aF0.03918750000000003
aF-0.18693577512206783
aF0.42802729320645583
aF-0.5029737755982988
aF0.020624999999999998
aa(lp3
F0.3490658503988659
aF1.5444660084195956
aF0.5049775830827442
aF0.1422500000000001
aF-0.3490658503988659
aF1.502500000000001
aF0.33025000000000027
aF0.33025000000000027
aF-0.3490658503988659
aF1.5707963267948966
aF0.14654372076405178
aF0.021250000000000012
aF-1.0146975511965977
aF1.2217304763960306
aF0.5235987755982988
aF0.28080328467982146
aa(lp4
F-0.3490658503988659
aF0.7687500000000006
aF0.07687500000000005
aF1.5320053952627861
aF-0.3490658503988659
aF1.2382595997380734
aF0.009625000000000002
aF0.009625000000000002
aF-0.3490658503988659
aF1.0237500000000006
aF0.7357114199638581
aF0.10237500000000008
aF0.4634044783417982
aF1.2217304763960306
aF-0.2973487755982986
aF0.2262500000000001
aa(lp5
F0.3490658503988659
aF1.5183499867053225
aF0.004875000000000001
aF0.004875000000000001
aF-0.3490658503988659
aF1.2140969927177578
aF1.1382606121381473
aF1.5707963267948966
aF0.07484002174689985
aF0.3712500000000002
aF1.5707963267948966
aF0.19079767260619723
aF-0.8059475511965974
aF1.2217304763960306
aF-0.2823487755982985
aF1.5707963267948966
aa(lp6
F-0.3490658503988659
aF0.35937500000000017
aF1.5707963267948966
aF1.5707963267948966
aF-0.3490658503988659
aF0.8791277499918606
aF0.010937500000000003
aF1.5707963267948966
aF-0.3490658503988659
aF0.8180080301966641
aF0.04018750000000003
aF1.5707963267948966
aF-0.9603225511965976
aF0.08687500000000001
aF-0.4367237755982987
aF0.2265494567397686
aa(lp7
F-0.3490658503988659
aF0.6437500000000004
aF1.5090374168659078
aF1.0967025839917022
aF-0.3490658503988659
aF0.7956549178767888
aF1.5707963267948966
aF0.016375000000000008
aF-0.3490658503988659
aF1.453750000000001
aF0.14537500000000012
aF0.43737500000000035
aF-0.9796975511965975
aF0.43199668746645126
aF-0.4560987755982987
aF0.5437500000000003
aa(lp8
F-0.3490658503988659
aF0.44687500000000024
aF1.5707963267948966
aF0.04468750000000003
aF-0.3490658503988659
aF0.43937500000000024
aF1.5707963267948966
aF0.04393750000000003
aF-0.3490658503988659
aF1.0593750000000006
aF0.159779335791257
aF0.3359375000000003
aF-0.7753511587784191
aF0.15437499999999998
aF-0.36922377559829866
aF0.15437499999999998
aa(lp9
F-0.3113012080933646
aF0.2875000000000001
aF1.5707963267948966
aF0.02875000000000002
aF-0.3490658503988659
aF0.21375000000000005
aF1.5707963267948966
aF0.021375000000000012
aF-0.3490658503988659
aF0.7900000000000005
aF0.07900000000000006
aF0.4990000000000004
aF-0.47782367798968683
aF0.058750000000000004
aF-0.46484877559829874
aF0.058750000000000004
aa(lp10
F-0.3490658503988659
aF0.5868750000000004
aF1.098733100255029
aF1.5707963267948966
aF-0.3490658503988659
aF1.0518750000000008
aF1.4353382515303301
aF1.5707963267948966
aF-0.3490658503988659
aF1.0016356464203853
aF0.9617820490682528
aF0.006125
aF0.1965063357828741
aF1.0298368931948099
aF-0.40172377559829875
aF0.12187499999999998
aa(lp11
F-0.3490658503988659
aF0.8812500000000005
aF0.7495920929893162
aF1.5707963267948966
aF-0.3490658503988659
aF0.7450000000000004
aF1.5707963267948966
aF0.07450000000000005
aF-0.3490658503988659
aF1.1951034036137287
aF0.03987500000000003
aF1.5707963267948966
aF0.09435662909233228
aF0.25500000000000006
aF0.5235987755982988
aF0.5637500000000003
aa(lp12
F-0.3490658503988659
aF0.48875000000000024
aF0.048875000000000036
aF1.3340695179864854
aF-0.3490658503988659
aF0.3812500000000002
aF0.18987500000000015
aF1.5707963267948966
aF-0.3490658503988659
aF0.09624999999999999
aF0.4473099445591113
aF1.5707963267948966
aF-0.28909883254621954
aF0.03875000000000001
aF-0.4848487755982988
aF0.03875000000000001
aa(lp13
F-0.3490658503988659
aF0.05
aF1.5707963267948966
aF0.005
aF-0.3490658503988659
aF0.7600000000000006
aF0.07600000000000005
aF0.4980000000000004
aF-0.3490658503988659
aF0.6116549568875886
aF0.04150000000000003
aF0.9765641308844479
aF-0.11197933986201238
aF0.0975
aF-0.4260987755982988
aF0.0975
aa(lp14
F-0.3490658503988659
aF1.0610883335973513
aF0.036437500000000025
aF1.5707963267948966
aF-0.3490658503988659
aF1.0906250000000008
aF0.6788176147637293
aF0.10906250000000009
aF-0.3490658503988659
aF0.5443750000000004
aF1.5707963267948966
aF1.5707963267948966
aF-0.41783563354085046
aF0.4044785809582647
aF-0.45797377559829877
aF0.06562500000000002
aa(lp15
F0.27726951423383434
aF0.21687500000000007
aF0.4980000000000004
aF1.5707963267948966
aF-0.3490658503988659
aF0.8087500000000006
aF0.08087500000000006
aF1.110241470841314
aF-0.3490658503988659
aF1.0800000000000007
aF0.14598800487682403
aF0.10800000000000008
aF0.4398195289648593
aF1.2217304763960306
aF-0.41672377559829876
aF0.106875
aa(lp16
F-0.3490658503988659
aF0.9418794454196244
aF0.004750000000000001
aF1.5707963267948966
aF-0.3490658503988659
aF0.45000000000000023
aF1.5707963267948966
aF0.04500000000000003
aF-0.3490658503988659
aF0.9350000000000006
aF0.09350000000000007
aF1.5707963267948966
aF-1.0221975511965975
aF0.025
aF-0.37408912912619596
aF0.21750000000000005
aa(lp17
F0.3017022902978681
aF1.355231501885947
aF0.05350000000000004
aF0.4982500000000004
aF-0.3490658503988659
aF0.7125000000000005
aF1.527628291347181
aF0.07125000000000005
aF-0.3490658503988659
aF1.1237454085425482
aF0.04250000000000003
aF1.5707963267948966
aF-0.41789335003486716
aF0.804141038967537
aF-0.41234877559829874
aF0.11124999999999999
aa(lp18
F-0.3490658503988659
aF0.7450000000000006
aF0.07450000000000005
aF0.5708410979455257
aF-0.3490658503988659
aF0.4712500000000003
aF0.2564923837164357
aF1.5707963267948966
aF-0.3490658503988659
aF0.03875000000000001
aF1.5707963267948966
aF0.003875000000000001
aF0.23332919623238513
aF0.4372072739798514
aF-0.5185987755982988
aF0.005
aa(lp19
F-0.3490658503988659
aF0.21562500000000004
aF0.8213307494186015
aF0.2725625000000002
aF-0.3490658503988659
aF0.178125
aF0.3874199987950168
aF1.5707963267948966
aF-0.3490658503988659
aF0.14937499999999998
aF0.4985625000000004
aF0.4985625000000004
aF0.08497822295142574
aF0.044375
aF-0.41846576939366054
aF0.044375
aa(lp20
F-0.3490658503988659
aF0.8093750000000006
aF0.08093750000000006
aF1.5707963267948966
aF-0.3490658503988659
aF0.4370449123674201
aF1.2676373652654962
aF0.4105640059541956
aF-0.3490658503988659
aF0.46187500000000026
aF0.6716238220634405
aF1.5707963267948966
aF-0.9715725511965976
aF0.075625
aF-0.44797377559829876
aF0.075625
aa(lp21
F-0.3490658503988659
aF1.0985201151462611
aF0.006750000000000001
aF1.5707963267948966
aF-0.3490658503988659
aF0.45886943019308585
aF1.5707963267948966
aF1.5707963267948966
aF-0.3490658503988659
aF0.6600000000000004
aF1.5707963267948966
aF0.06600000000000004
aF-0.7496975511965973
aF1.2217304763960306
aF0.5235987755982988
aF1.5707963267948966
aa(lp22
F-0.11067413843770053
aF0.060000000000000005
aF1.5707963267948966
aF0.3913572363349971
aF-0.3490658503988659
aF0.24875000000000005
aF1.5076161377305737
aF0.024875000000000015
aF-0.3490658503988659
aF0.5887500000000003
aF0.2298750000000002
aF1.5707963267948966
aF-0.6012973451935519
aF0.01
aF-0.5135987755982988
aF0.01
aa(lp23
F-0.3490658503988659
aF0.4125000000000002
aF1.5707963267948966
aF0.11467477630217562
aF-0.3490658503988659
aF0.7025000000000005
aF1.5707963267948966
aF1.2278555909980127
aF-0.3490658503988659
aF0.773316375609597
aF0.3014740371084661
aF0.8280885986683579
aF-0.9896975511965975
aF0.05750000000000001
aF-0.46609877559829876
aF0.05750000000000001
aa(lp24
F-0.3490658503988659
aF0.8487500000000007
aF0.4088750000000003
aF0.4948750000000004
aF-0.3490658503988659
aF0.9487500000000008
aF0.31587500000000024
aF0.6344225660351084
aF-0.3490658503988659
aF0.8522631429656792
aF0.01762500000000001
aF1.5707963267948966
aF-0.8157443820628807
aF0.4466959790020093
aF-0.5023487755982988
aF0.40591584268713593
aa(lp25
F-0.3490658503988659
aF0.7175000000000005
aF0.07175000000000005
aF1.5707963267948966
aF-0.3490658503988659
aF0.6887500000000004
aF0.06887500000000005
aF1.5707963267948966
aF-0.3490658503988659
aF0.08374999999999999
aF1.5707963267948966
aF0.008375
aF-0.3375064819164795
aF0.02375
aF-0.49984877559829877
aF0.02375
aa(lp26
F0.1647982106372896
aF1.3514593518454836
aF0.011750000000000003
aF1.5707963267948966
aF-0.3490658503988659
aF1.4975000000000012
aF0.29975000000000024
aF0.29975000000000024
aF-0.1826574789181437
aF1.2604009784976165
aF1.5707963267948966
aF1.5707963267948966
aF-1.0034475511965977
aF0.7885394937567718
aF0.5235987755982988
aF0.043750000000000004
aa(lp27
F-0.3490658503988659
aF0.6725000000000003
aF1.5707963267948966
aF0.7496995075820587
aF-0.3490658503988659
aF1.3462500000000008
aF0.1346250000000001
aF1.0881594464683626
aF-0.3490658503988659
aF1.2354779710433879
aF0.6510703220762742
aF0.08212500000000006
aF-0.355947551196597
aF0.6912500000000003
aF0.5235987755982988
aF0.6912500000000003
aa(lp28
F0.2569657243186747
aF0.9750000000000006
aF0.09750000000000007
aF0.34850000000000025
aF-0.3490658503988659
aF0.7250000000000004
aF0.07250000000000005
aF1.5707963267948966
aF-0.3490658503988659
aF0.7052601779365851
aF0.015000000000000006
aF1.5707963267948966
aF-0.9671975511965974
aF0.07999999999999999
aF-0.44359877559829874
aF0.07999999999999999
aa.