(lp0
(lp1
F0.2273247266686163
aF0.18500000000000003
aF1.5707963267948966
aF0.24929242134019042
aF-0.3490658503988659
aF0.9912500000000006
aF0.09912500000000007
aF1.5707963267948966
aF-0.3490658503988659
aF1.1240701208625918
aF0.07337500000000005
aF1.5707963267948966
aF-0.22338660375648695
aF1.2217304763960306
aF-0.46859877559829877
aF1.5707963267948966
aa(lp2
F-0.3490658503988659
aF0.16
aF0.016000000000000007
aF1.5707963267948966
aF-0.3490658503988659
aF0.6362500000000004
aF0.06362500000000004
aF0.4826250000000004
aF-0.3490658503988659
aF1.5707963267948966
aF0.49762500000000043
aF1.3913867547636833
aF1.0471975511965976
aF1.2217304763960306
aF-0.3510987755982986
aF0.17250000000000001
aa(lp3
F-0.3490658503988659
aF0.09812499999999999
aF0.009812500000000002
aF1.5707963267948966
aF-0.3490658503988659
aF0.21812500000000007
aF0.40681250000000035
aF0.49681250000000043
aF-0.3490658503988659
aF0.0025
aF0.49681250000000043
aF0.49681250000000043
aF0.4263415268251929
aF0.8895836001963231
aF-0.49922377559829884
aF0.8635356698148235
aa(lp4
F-0.3490658503988659
aF0.30062500000000014
aF0.10481250000000009
aF1.5707963267948966
aF-0.3490658503988659
aF0.6116480852108567
aF0.03331250000000002
aF1.5707963267948966
aF-0.3490658503988659
aF0.4681250000000003
aF1.5707963267948966
aF1.5707963267948966
aF0.808423867123781
aF1.2217304763960306
aF-0.436244906049703
aF0.5495973527022212
aa(lp5
F-0.3490658503988659
aF0.7350000000000005
aF0.07350000000000005
aF0.07350000000000005
aF-0.3490658503988659
aF0.005
aF1.5707963267948966
aF0.0005
aF-0.3490658503988659
aF0.284336253500386
aF0.9022599832301756
aF0.011250000000000003
aF0.4977720654059203
aF0.6494635042938275
aF-0.3910987755982987
aF0.13249999999999998
aa(lp6
F-0.3490658503988659
aF0.5431250000000003
aF0.05431250000000004
aF0.05431250000000004
aF-0.3490658503988659
aF0.2831250000000001
aF1.5707963267948966
aF1.5707963267948966
aF-0.3490658503988659
aF0.42312500000000025
aF0.04231250000000003
aF1.5707963267948966
aF0.8352470394041992
aF1.2217304763960306
aF-0.43797377559829875
aF0.085625
aa(lp7
F-0.3490658503988659
aF0.5000000000000002
aF0.9696032993426356
aF0.05000000000000004
aF-0.3490658503988659
aF0.3637500000000002
aF1.5707963267948966
aF0.036375000000000025
aF-0.3490658503988659
aF1.5707963267948966
aF0.4930000000000004
aF0.4930000000000004
aF1.0471975511965976
aF1.2217304763960306
aF-0.4773487755982988
aF0.04625
aa(lp8
F-0.18975122536276118
aF0.16625
aF1.5707963267948966
aF0.016625000000000008
aF-0.3490658503988659
aF1.0462500000000006
aF0.10462500000000008
aF0.5810452003639488
aF-0.3490658503988659
aF0.995878041642107
aF0.059375000000000046
aF1.5707963267948966
aF-0.4159141538222969
aF1.2217304763960306
aF-0.04984877559829851
aF1.5707963267948966
aa(lp9
F-0.3490658503988659
aF0.005
aF1.5707963267948966
aF0.0005
aF-0.3490658503988659
aF0.7912500000000006
aF0.07912500000000006
aF1.5707963267948966
aF-0.3490658503988659
aF1.5707963267948966
aF0.4661250000000004
aF0.4661250000000004
aF1.0471975511965976
aF1.2217304763960306
aF-0.4860987755982988
aF0.037500000000000006
aa(lp10
F-0.3490658503988659
aF0.02625
aF1.5707963267948966
aF0.0026249999999999997
aF-0.3490658503988659
aF1.0870749491919323
aF0.03050000000000002
aF0.4012711778390064
aF-0.3490658503988659
aF1.5707963267948966
aF0.4995000000000004
aF0.4995000000000004
aF1.0471975511965976
aF1.2217304763960306
aF-0.39734877559829873
aF0.12624999999999997
aa(lp11
F-0.3490658503988659
aF0.09125
aF0.08002320845171836
aF1.5707963267948966
aF-0.3490658503988659
aF0.1675
aF0.2437500000000002
aF1.5707963267948966
aF-0.3490658503988659
aF0.10624999999999998
aF0.4967500000000004
aF0.4967500000000004
aF0.2588587856207961
aF1.2217304763960306
aF-0.38609877559829864
aF1.4285376102611327
aa(lp12
F-0.20286167639894337
aF0.5475000000000003
aF0.08113668431011675
aF0.05475000000000004
aF-0.3490658503988659
aF0.4862500000000003
aF0.048625000000000036
aF0.4857500000000004
aF-0.3490658503988659
aF0.22250000000000006
aF0.022250000000000013
aF1.5707963267948966
aF0.9055741707536753
aF0.3413719596419867
aF-0.4210987755982988
aF0.1025
aa(lp13
F-0.3490658503988659
aF0.5291598915029128
aF1.5707963267948966
aF0.02000000000000001
aF-0.3490658503988659
aF1.1006541859101755
aF1.5707963267948966
aF1.5707963267948966
aF-0.3490658503988659
aF0.7750000000000005
aF1.5707963267948966
aF0.07750000000000005
aF-0.9946975511965976
aF1.2217304763960306
aF0.5235987755982988
aF1.5707963267948966
aa(lp14
F-0.3490658503988659
aF0.0025
aF1.5707963267948966
aF0.00025
aF-0.3490658503988659
aF0.8894853718986189
aF0.023062500000000014
aF0.49681250000000043
aF-0.3490658503988659
aF0.9181250000000005
aF0.3168125000000003
aF0.49681250000000043
aF0.4141560880427387
aF1.2217304763960306
aF-0.47047377559829884
aF0.13312499999999997
aa(lp15
F-0.3490658503988659
aF0.3306250000000001
aF1.5707963267948966
aF0.03306250000000002
aF-0.3490658503988659
aF0.8531250000000006
aF0.08531250000000007
aF1.5707963267948966
aF-0.3490658503988659
aF1.098125000000001
aF1.0312678798398973
aF1.5707963267948966
aF0.6341643735654054
aF1.2217304763960306
aF-0.5104737755982988
aF0.013125000000000001
aa(lp16
F0.02159175058051286
aF0.11812499999999998
aF1.0859410088009267
aF0.6235271260764907
aF-0.3490658503988659
aF0.7095400785520091
aF0.06993750000000006
aF1.5707963267948966
aF-0.3490658503988659
aF0.7981250000000006
aF0.07981250000000006
aF1.5707963267948966
aF0.4253610474763496
aF1.2217304763960306
aF-0.44922377559829874
aF0.07437500000000001
aa(lp17
F-0.3490658503988659
aF1.5468080504349937
aF1.5707963267948966
aF0.4973750000000004
aF0.13900895480738315
aF0.7237500000000004
aF0.07237500000000005
aF0.4828307609592131
aF-0.05236225838008849
aF0.10374999999999997
aF1.5707963267948966
aF0.010375000000000002
aF0.48146175146924597
aF1.2217304763960306
aF-0.4710987755982987
aF0.052500000000000005
aa(lp18
F-0.3490658503988659
aF0.3200000000000001
aF0.03200000000000002
aF1.5188084030118565
aF-0.3490658503988659
aF0.9000000000000006
aF0.09000000000000007
aF0.09000000000000007
aF-0.3490658503988659
aF1.058876215113849
aF1.5707963267948966
aF0.035250000000000024
aF1.0471975511965976
aF1.2217304763960306
aF-0.3935987755982987
aF0.12999999999999998
aa(lp19
F-0.16858806973669577
aF1.545000000000001
aF1.5707963267948966
aF1.5707963267948966
aF-0.3490658503988659
aF0.5108089385492876
aF1.5707963267948966
aF0.04025000000000003
aF-0.3490658503988659
aF0.4850000000000002
aF1.5707963267948966
aF0.048500000000000036
aF0.026227024306751393
aF1.2217304763960306
aF-0.45859877559829876
aF0.12499999999999997
aa.