(lp0
(lp1
F0.11770037559882421
aF0.815056897346977
aF0.02900000000000002
aF1.5707963267948966
aF-0.3490658503988659
aF0.4225000000000002
aF1.5707963267948966
aF0.04225000000000003
aF-0.3490658503988659
aF1.5707963267948966
aF1.5707963267948966
aF0.6364995067770094
aF-0.2724734388998105
aF1.2217304763960306
aF0.2470789239030466
aF0.11374999999999999
aa(lp2
F-0.3490658503988659
aF0.22000000000000008
aF1.2126313553491457
aF0.022000000000000013
aF-0.3490658503988659
aF0.09124999999999998
aF1.5707963267948966
aF0.009125000000000001
aF-0.3490658503988659
aF0.9187500000000007
aF0.09187500000000007
aF0.09187500000000007
aF0.11703004827237218
aF1.2217304763960306
aF-0.49984877559829877
aF0.02375
aa(lp3
F-0.3490658503988659
aF1.45365102153507
aF1.5707963267948966
aF1.5707963267948966
aF-0.3490658503988659
aF0.22500000000000006
aF1.5707963267948966
aF0.022500000000000013
aF-0.3490658503988659
aF0.43375000000000025
aF1.5707963267948966
aF0.04337500000000003
aF-0.4484475511965972
aF1.2217304763960306
aF0.23015122440170158
aF1.5707963267948966
aa(lp4
F-0.3490658503988659
aF0.8136974762597629
aF0.002
aF0.4783750000000004
aF-0.3490658503988659
aF0.17375000000000002
aF1.5707963267948966
aF0.01737500000000001
aF-0.3490658503988659
aF1.5707963267948966
aF1.5707963267948966
aF0.4973750000000004
aF-0.711146150257261
aF1.2217304763960306
aF0.5235987755982988
aF1.0253612718915472
aa(lp5
F-0.3490658503988659
aF0.4225000000000002
aF0.04225000000000003
aF1.5707963267948966
aF-0.3490658503988659
aF0.2900000000000001
aF0.6839580636288273
aF0.8885713363005172
aF-0.3490658503988659
aF0.8093750000000005
aF0.08093750000000005
aF0.08093750000000005
aF-0.3321054203764
aF1.2217304763960306
aF-0.3323487755982986
aF1.5707963267948966
aa(lp6
F0.11461795071985637
aF0.37632764566174265
aF1.5707963267948966
aF0.022250000000000013
aF-0.3490658503988659
aF1.102500000000001
aF1.5707963267948966
aF1.5707963267948966
aF-0.3490658503988659
aF1.2776509397254867
aF0.05000000000000004
aF1.5707963267948966
aF-0.8221975511965974
aF1.2217304763960306
aF0.5235987755982988
aF0.22500000000000006
aa(lp7
F-0.3490658503988659
aF0.4218750000000002
aF0.2939184189799342
aF0.3619375000000003
aF-0.3490658503988659
aF0.5093750000000004
aF0.05093750000000004
aF0.8396132452180973
aF-0.3490658503988659
aF0.46780890245608675
aF0.013937500000000005
aF1.5707963267948966
aF0.2741325724703831
aF1.2217304763960306
aF-0.4979737755982988
aF0.025625000000000002
aa(lp8
F-0.3490658503988659
aF0.7743783884717528
aF0.006875000000000001
aF0.878803776756673
aF-0.3490658503988659
aF0.7343750000000006
aF0.07343750000000006
aF0.9302671409520595
aF-0.3490658503988659
aF0.18625751220004985
aF0.7767267185471622
aF1.381701097614478
aF-0.8703225511965975
aF1.2217304763960306
aF0.5235987755982988
aF0.17687500000000003
aa(lp9
F-0.3490658503988659
aF0.7344272743573471
aF0.014875000000000006
aF1.0870797348349672
aF-0.3490658503988659
aF1.0087500000000007
aF1.5707963267948966
aF1.5707963267948966
aF-0.3490658503988659
aF1.1621861387359114
aF0.012250000000000004
aF1.5707963267948966
aF-0.5210000030136521
aF1.2217304763960306
aF0.5235987755982988
aF0.0
aa(lp10
F-0.3490658503988659
aF0.6399215752690076
aF0.39596175814432344
aF0.7009734853940163
aF-0.3490658503988659
aF0.3687500000000002
aF1.5707963267948966
aF0.036875000000000026
aF-0.3490658503988659
aF1.5707963267948966
aF1.5707963267948966
aF1.5707963267948966
aF-0.6421975511965974
aF1.2217304763960306
aF-0.11859877559829846
aF1.5707963267948966
aa(lp11
F0.3490658503988659
aF1.5461102195150902
aF1.5707963267948966
aF1.5707963267948966
aF-0.3490658503988659
aF1.0075000000000007
aF0.4127010314247403
aF1.0235253498075656
aF-0.3490658503988659
aF0.17250000000000001
aF1.5707963267948966
aF0.4933204689233468
aF-0.9396975511965975
aF0.10749999999999998
aF-0.41609877559829866
aF1.5707963267948966
aa(lp12
F-0.3490658503988659
aF0.7328251437593201
aF0.005750000000000001
aF1.5707963267948966
aF-0.3490658503988659
aF1.0875000000000008
aF0.10875000000000008
aF0.4987500000000004
aF-0.3490658503988659
aF0.9550000000000007
aF0.1914322104611373
aF1.5707963267948966
aF0.005198654857338169
aF1.2217304763960306
aF-0.3610987755982987
aF0.1625
aa(lp13
F-0.3490658503988659
aF0.7882405707042903
aF0.01925000000000001
aF1.5707963267948966
aF-0.3490658503988659
aF1.0101507779782182
aF0.06087500000000005
aF0.3995000000000003
aF-0.3490658503988659
aF0.7650000000000006
aF0.07650000000000005
aF1.5707963267948966
aF-0.9371975511965975
aF0.9544124269849756
aF0.5235987755982988
aF0.21250000000000005
aa(lp14
F-0.16041203360335776
aF0.7225000000000005
aF0.07225000000000005
aF0.4982500000000004
aF0.04684956237827472
aF1.0606459660014427
aF0.016000000000000007
aF0.1382500000000001
aF0.13756349828075992
aF0.14875
aF1.5707963267948966
aF0.08684759279608271
aF-0.8396975511965974
aF1.2217304763960306
aF0.5235987755982988
aF0.20750000000000005
aa(lp15
F-0.3490658503988659
aF0.6562500000000004
aF0.06562500000000004
aF1.5707963267948966
aF-0.3490658503988659
aF1.4962500000000012
aF1.5707963267948966
aF1.5707963267948966
aF-0.3490658503988659
aF0.5944125422590096
aF0.32783119428193397
aF1.2725664150339
aF-0.8259475511965974
aF1.2217304763960306
aF0.5235987755982988
aF0.22125000000000006
aa(lp16
F-0.3490658503988659
aF0.6727357435288776
aF0.025000000000000015
aF1.5707963267948966
aF-0.3490658503988659
aF0.47750000000000026
aF0.047750000000000035
aF0.4987500000000004
aF-0.3490658503988659
aF0.145
aF0.42375000000000035
aF1.5707963267948966
aF-0.7971975511965974
aF1.2217304763960306
aF-0.09384344474008827
aF1.5707963267948966
aa(lp17
F-0.2696603647126835
aF0.5962500000000004
aF0.059625000000000046
aF1.5707963267948966
aF-0.3490658503988659
aF0.633514659486828
aF1.5707963267948966
aF1.5707963267948966
aF-0.3490658503988659
aF0.9462147655317568
aF0.08087500000000006
aF1.5707963267948966
aF-0.5044504289441951
aF1.2217304763960306
aF0.5235987755982988
aF0.31125000000000014
aa(lp18
F0.06472362912435281
aF1.5500000000000012
aF0.4980000000000004
aF1.5707963267948966
aF-0.3490658503988659
aF1.1199178396387872
aF0.012250000000000004
aF0.9481919806963157
aF-0.14201236900379077
aF0.6300000000000003
aF0.6900974985923767
aF1.5707963267948966
aF-0.9096975511965976
aF1.2217304763960306
aF-0.38609877559829875
aF1.5707963267948966
aa.