(lp0
(lp1
F-0.09453711121387658
aF0.061875
aF0.0061875
aF1.5707963267948966
aF-0.3490658503988659
aF0.4281250000000003
aF0.19281250000000016
aF0.8971950289745633
aF-0.3490658503988659
aF0.3356250000000002
aF0.3970926389246914
aF1.5707963267948966
aF0.5111159033219511
aF1.2217304763960306
aF-0.0521106916751643
aF0.05562500000000001
aa(lp2
F-0.3490658503988659
aF0.12499999999999997
aF0.7457785021531731
aF0.012500000000000004
aF-0.3490658503988659
aF0.4212500000000002
aF0.04212500000000003
aF0.9811659445158516
aF-0.3490658503988659
aF0.025
aF1.5707963267948966
aF0.0025
aF0.16311977785932996
aF1.2217304763960306
aF0.5235987755982988
aF0.33500000000000013
aa(lp3
F-0.3490658503988659
aF1.161864453520007
aF1.5707963267948966
aF1.5707963267948966
aF-0.3490658503988659
aF1.2419103806174123
aF0.10125000000000008
aF0.10125000000000008
aF-0.3490658503988659
aF0.6425000000000003
aF0.996718371065774
aF1.4109426488662116
aF-0.5221975511965972
aF1.2217304763960306
aF0.06278553825721081
aF1.5707963267948966
aa(lp4
F0.11030638806957727
aF0.19187500000000005
aF0.1419375000000001
aF1.5707963267948966
aF-0.3490658503988659
aF0.8568750000000006
aF0.08568750000000007
aF1.5707963267948966
aF-0.3490658503988659
aF1.1593750000000007
aF0.9992539651931974
aF0.1159375000000001
aF0.7470978934071449
aF1.2217304763960306
aF-0.5017237755982988
aF0.021875
aa(lp5
F-0.3490658503988659
aF0.6796839645427754
aF1.5707963267948966
aF1.5707963267948966
aF-0.3490658503988659
aF1.1427945321303472
aF0.015812500000000007
aF1.073863835685361
aF-0.3490658503988659
aF1.349375000000001
aF0.13493750000000013
aF0.13493750000000013
aF-0.0015185027212595496
aF1.2217304763960306
aF-0.48047377559829874
aF0.043125
aa(lp6
F-0.3490658503988659
aF0.9725000000000006
aF0.09725000000000007
aF1.5707963267948966
aF-0.3490658503988659
aF0.5794906711447656
aF1.4662243421688181
aF0.02875000000000002
aF-0.3490658503988659
aF1.2412500000000009
aF0.1241250000000001
aF0.1241250000000001
aF-0.6971975511965973
aF1.2217304763960306
aF0.5235987755982988
aF0.845877775319986
aa(lp7
F-0.3490658503988659
aF0.8542795735722826
aF0.004625000000000001
aF1.5707963267948966
aF-0.3490658503988659
aF1.3475000000000008
aF0.1347500000000001
aF0.43675000000000036
aF-0.3490658503988659
aF1.5707963267948966
aF1.5707963267948966
aF1.5707963267948966
aF0.04044085039566675
aF1.2217304763960306
aF-0.4535987755982988
aF0.07
aa(lp8
F-0.3490658503988659
aF0.10374999999999998
aF1.5707963267948966
aF0.010375000000000002
aF-0.3490658503988659
aF0.6612500000000004
aF0.3521250000000003
aF1.5707963267948966
aF-0.3490658503988659
aF0.7449786507725492
aF1.1620985437510336
aF0.07112500000000005
aF-0.3402121261126156
aF1.2217304763960306
aF0.5235987755982988
aF1.5707963267948966
aa(lp9
F-0.3490658503988659
aF0.44000000000000017
aF0.4970000000000004
aF0.7937113789756913
aF-0.3490658503988659
aF0.0275
aF1.5707963267948966
aF1.5707963267948966
aF-0.3490658503988659
aF0.9074331535400374
aF0.3760000000000003
aF1.5707963267948966
aF-0.8896975511965974
aF0.1575
aF-0.3660987755982986
aF0.8932274759857878
aa(lp10
F-0.3490658503988659
aF0.8943750000000006
aF0.08943750000000007
aF0.5521805123351696
aF-0.3490658503988659
aF0.29812500000000014
aF1.5707963267948966
aF0.02981250000000002
aF-0.3490658503988659
aF0.18312500000000004
aF1.5707963267948966
aF0.3251798943673549
aF0.2810698175376676
aF1.2217304763960306
aF-0.42172377559829877
aF0.30812500000000015
aa(lp11
F-0.3490658503988659
aF0.36000000000000015
aF0.4980000000000004
aF1.5707963267948966
aF0.3490658503988659
aF1.4641294289605598
aF0.0011250000000000001
aF1.4078296513505726
aF-0.3490658503988659
aF1.2889135320972784
aF0.03200000000000002
aF1.5707963267948966
aF-0.9996975511965976
aF0.774228182160079
aF0.5235987755982988
aF0.0475
aa(lp12
F0.09767085641860489
aF0.17125
aF1.5707963267948966
aF0.01712500000000001
aF-0.3490658503988659
aF0.9250000000000007
aF0.09250000000000007
aF1.5707963267948966
aF-0.3490658503988659
aF1.2862500000000012
aF0.1286250000000001
aF0.1286250000000001
aF-0.2635585458862946
aF1.2217304763960306
aF-0.41234877559829874
aF1.2038492348479046
aa(lp13
F-0.21814760098977895
aF1.333203982054463
aF0.026125000000000016
aF0.4511250000000004
aF-0.3490658503988659
aF1.2911915702528065
aF0.008125
aF1.1845636668022252
aF-0.3490658503988659
aF1.5707963267948966
aF0.07312500000000005
aF0.20712500000000017
aF-1.0071975511965976
aF1.2217304763960306
aF0.5235987755982988
aF1.5707963267948966
aa(lp14
F-0.3490658503988659
aF0.02375
aF1.3716230734600616
aF0.7982659213977413
aF-0.3490658503988659
aF0.9375000000000006
aF0.09375000000000007
aF1.5707963267948966
aF-0.3490658503988659
aF0.9731599429562039
aF0.07112500000000005
aF1.5707963267948966
aF-0.2687652736434798
aF1.2217304763960306
aF-0.47984877559829875
aF1.5707963267948966
aa(lp15
F-0.3490658503988659
aF0.26750000000000007
aF0.026750000000000017
aF0.2585000000000002
aF-0.3490658503988659
aF0.2850000000000001
aF0.02850000000000002
aF0.4965000000000004
aF-0.3490658503988659
aF0.0
aF0.21450000000000016
aF1.5707963267948966
aF1.0471975511965976
aF0.07625000000000001
aF-0.4473487755982987
aF0.07625000000000001
aa(lp16
F-0.3490658503988659
aF0.5125000000000003
aF1.5707963267948966
aF0.05125000000000004
aF-0.3490658503988659
aF1.2252047055147637
aF0.021375000000000012
aF1.5707963267948966
aF-0.3490658503988659
aF1.3975000000000009
aF0.1397500000000001
aF0.1397500000000001
aF-0.7046975511965973
aF1.2217304763960306
aF0.5235987755982988
aF0.3425000000000002
aa(lp17
F-0.3490658503988659
aF0.9462500000000006
aF0.7556930735442395
aF1.1963892320555094
aF-0.3490658503988659
aF0.7912500000000005
aF1.5707963267948966
aF1.5707963267948966
aF-0.3490658503988659
aF0.3871333807481049
aF1.5707963267948966
aF1.1023912155678752
aF-0.48094755119659716
aF1.2217304763960306
aF0.04265122440170151
aF1.5707963267948966
aa(lp18
F-0.3490658503988659
aF0.5712500000000004
aF1.0681243895020462
aF1.5707963267948966
aF-0.3490658503988659
aF0.5562500000000004
aF0.05562500000000004
aF1.5707963267948966
aF-0.3490658503988659
aF0.08625
aF1.5707963267948966
aF0.008625
aF-0.28633492389768944
aF1.2217304763960306
aF0.5235987755982988
aF1.5707963267948966
aa(lp19
F-0.3490658503988659
aF1.2410818142557236
aF0.0017500000000000003
aF1.4046827701101972
aF-0.3490658503988659
aF1.49850364272316
aF0.28712500000000024
aF0.28712500000000024
aF-0.3490658503988659
aF1.5707963267948966
aF0.1351506137327146
aF0.10012500000000008
aF-0.8559475511965974
aF1.2217304763960306
aF0.5235987755982988
aF0.19125000000000003
aa(lp20
F-0.3490658503988659
aF0.1675
aF0.8307059755886705
aF0.4980000000000004
aF-0.3490658503988659
aF0.045
aF1.5707963267948966
aF0.0045000000000000005
aF-0.3490658503988659
aF0.5700000000000003
aF0.4980000000000004
aF0.4980000000000004
aF0.016670488342896174
aF1.2217304763960306
aF0.13492909613333112
aF1.5707963267948966
aa(lp21
F0.19444361207795272
aF0.8937500000000006
aF0.08937500000000007
aF1.5707963267948966
aF-0.3490658503988659
aF0.35000000000000014
aF1.5707963267948966
aF0.035000000000000024
aF-0.32276669444289613
aF0.37000000000000016
aF1.5707963267948966
aF1.5707963267948966
aF-0.36101511430436295
aF1.2217304763960306
aF0.5235987755982988
aF0.25000000000000006
aa(lp22
F-0.3490658503988659
aF0.12937499999999996
aF0.012937500000000005
aF0.6525406682798758
aF-0.3490658503988659
aF0.176875
aF0.01768750000000001
aF1.0524739237227945
aF-0.3490658503988659
aF0.0025
aF0.22568750000000018
aF1.5707963267948966
aF1.0471975511965976
aF0.06937499999999999
aF-0.4542237755982988
aF0.06937499999999999
aa(lp23
F0.1595781583688077
aF0.011250000000000001
aF1.438985043660296
aF0.0011250000000000001
aF-0.3490658503988659
aF1.0452418411057496
aF0.026250000000000016
aF1.2131201363837325
aF-0.3490658503988659
aF1.1162500000000009
aF0.11162500000000009
aF0.6951815840872536
aF0.4373847335702975
aF1.2217304763960306
aF-0.5110987755982989
aF0.012500000000000002
aa(lp24
F-0.3490658503988659
aF0.04875
aF0.21825000000000017
aF0.4962500000000004
aF-0.3490658503988659
aF0.10749999999999998
aF0.010750000000000003
aF1.5707963267948966
aF-0.3490658503988659
aF0.23250000000000007
aF0.22537111029087947
aF1.5707963267948966
aF0.8878567264754657
aF1.1077690259509614
aF-0.5123487755982988
aF0.10749999999999998
aa(lp25
F-0.3490658503988659
aF1.5456303978738157
aF1.5707963267948966
aF1.5707963267948966
aF-0.3490658503988659
aF0.39375000000000016
aF1.5707963267948966
aF1.5707963267948966
aF-0.3490658503988659
aF0.3512500000000002
aF0.17737500000000014
aF1.5707963267948966
aF0.6208201370400805
aF1.2217304763960306
aF-0.4823487755982988
aF0.04125
aa(lp26
F-0.3490658503988659
aF0.179375
aF1.5707963267948966
aF1.2405177347851983
aF-0.3490658503988659
aF1.1508394518611738
aF0.01931250000000001
aF1.2965604163271616
aF-0.3490658503988659
aF1.417269653866341
aF0.057562500000000044
aF0.057562500000000044
aF-0.11829132635851278
aF1.0978201871909752
aF-0.3748636723290605
aF0.08437499999999999
aa(lp27
F0.2410277030728912
aF0.4108480424714926
aF1.5707963267948966
aF0.2009913005505382
aF-0.3490658503988659
aF0.8437500000000007
aF0.9262581004192132
aF0.7604542791473117
aF-0.3490658503988659
aF1.1559971433673188
aF0.129367787339197
aF1.5707963267948966
aF-0.3323611227206612
aF1.2217304763960306
aF-0.4773487755982988
aF1.5707963267948966
aa(lp28
F-0.3490658503988659
aF0.36750000000000016
aF0.0640004124073704
aF0.4977500000000004
aF-0.3490658503988659
aF0.11249999999999999
aF1.3075646537871697
aF0.011250000000000003
aF-0.3490658503988659
aF0.0475
aF1.5707963267948966
aF0.004750000000000001
aF0.7212666252014082
aF1.2217304763960306
aF-0.5185987755982988
aF0.2925000000000001
aa(lp29
F-0.3490658503988659
aF0.9400000000000006
aF0.09400000000000008
aF1.5707963267948966
aF-0.3490658503988659
aF1.1312500000000008
aF0.2711949487648611
aF0.1131250000000001
aF-0.3490658503988659
aF0.5976799826222123
aF1.110045627410626
aF1.49591774282611
aF-0.4780554683917926
aF1.2217304763960306
aF0.17379532994342206
aF1.5707963267948966
aa.