(lp0
(lp1
F-0.31666439585640016
aF1.5475000000000012
aF0.4957500000000004
aF0.4957500000000004
aF-0.2973964724498458
aF1.5002652460772843
aF0.43575000000000036
aF1.5707963267948966
aF-0.3490658503988659
aF1.5707963267948966
aF0.07275000000000005
aF1.5707963267948966
aF-0.5396975511965971
aF1.2217304763960306
aF0.5235987755982988
aF1.277500000000001
aa(lp2
F-0.3490658503988659
aF0.9800000000000006
aF1.5707963267948966
aF1.5707963267948966
aF-0.3490658503988659
aF1.0650000000000008
aF1.5707963267948966
aF1.5707963267948966
aF-0.3490658503988659
aF1.5707963267948966
aF0.05200000000000004
aF1.5707963267948966
aF-0.48719755119659713
aF1.2217304763960306
aF0.5235987755982988
aF1.5707963267948966
aa(lp3
F-0.16401362193229568
aF1.2156008641344973
aF1.5707963267948966
aF0.016750000000000008
aF-0.3490658503988659
aF1.0858296288179656
aF1.5707963267948966
aF1.5707963267948966
aF-0.3490658503988659
aF1.1695218588548855
aF1.5707963267948966
aF1.5707963267948966
aF-0.5934475511965971
aF1.2217304763960306
aF-0.06984877559829844
aF1.5707963267948966
aa(lp4
F-0.3490658503988659
aF1.267500000000001
aF1.5707963267948966
aF0.12675000000000008
aF-0.3490658503988659
aF1.3929061543587662
aF0.903944288980282
aF1.5707963267948966
aF-0.3490658503988659
aF1.5707963267948966
aF0.36554117946118864
aF1.5707963267948966
aF-0.8321975511965974
aF1.2217304763960306
aF0.5235987755982988
aF1.5707963267948966
aa(lp5
F-0.3490658503988659
aF0.6125000000000003
aF1.5707963267948966
aF1.5707963267948966
aF-0.3490658503988659
aF0.9241910492869432
aF0.08225000000000006
aF1.5707963267948966
aF-0.3490658503988659
aF0.01
aF0.4966250000000004
aF1.5707963267948966
aF-0.12565560407525378
aF0.8662500000000005
aF0.41483299008072055
aF0.8662500000000005
aa(lp6
F-0.3490658503988659
aF1.164375000000001
aF0.4984375000000004
aF1.2073050145153372
aF-0.3490658503988659
aF1.2730556981008925
aF0.4587897180124618
aF1.1627664147442927
aF-0.3490658503988659
aF1.1575036699774375
aF0.07793750000000006
aF1.5707963267948966
aF-0.099003333353753
aF1.2217304763960306
aF0.06170424689240453
aF0.35687500000000016
aa(lp7
F0.045139660659076986
aF0.4031250000000002
aF1.5707963267948966
aF0.04031250000000003
aF-0.3490658503988659
aF0.9656250000000007
aF0.7129583462583237
aF0.09656250000000008
aF-0.3490658503988659
aF0.8476957657916959
aF1.3041608417607717
aF0.046812500000000035
aF0.4675063337463629
aF1.2217304763960306
aF-0.3892237755982987
aF0.13437499999999997
aa(lp8
F-0.3490658503988659
aF0.46000000000000024
aF1.5707963267948966
aF1.0829551043060306
aF-0.3490658503988659
aF1.0101992985824735
aF0.8261296256235764
aF1.2527501922397175
aF-0.3490658503988659
aF1.0350000000000006
aF0.843158194531263
aF1.415535839180553
aF-0.007000248890190146
aF1.2217304763960306
aF0.2664012244017016
aF1.5707963267948966
aa(lp9
F-0.3490658503988659
aF0.7400000000000004
aF0.4973750000000004
aF0.4973750000000004
aF-0.11658553078038573
aF1.4777965612749373
aF0.02100000000000001
aF0.33837500000000026
aF-0.3490658503988659
aF1.0237500000000006
aF0.4810078096180668
aF1.5707963267948966
aF0.20440321870034922
aF1.2217304763960306
aF-0.48609877559829884
aF0.5607319433080606
aa(lp10
F-0.3490658503988659
aF0.848918122517482
aF0.36276509893469433
aF0.27862500000000023
aF-0.3490658503988659
aF0.32375000000000015
aF1.5707963267948966
aF0.8878639480032585
aF-0.3490658503988659
aF1.0162500000000005
aF0.10162500000000008
aF1.5707963267948966
aF0.054890598858415615
aF1.2217304763960306
aF0.5235987755982988
aF0.09375
aa(lp11
F-0.3490658503988659
aF0.6950000000000004
aF0.06950000000000005
aF1.5707963267948966
aF-0.3490658503988659
aF0.28750000000000003
aF0.7813939424985721
aF1.325087682200493
aF-0.3490658503988659
aF0.01
aF0.4985000000000004
aF0.4985000000000004
aF0.6169122663192047
aF0.26375000000000004
aF-0.25984877559829855
aF0.26375000000000004
aa(lp12
F-0.3490658503988659
aF0.3000000000000001
aF0.7109234943897266
aF1.5707963267948966
aF-0.3490658503988659
aF0.7325000000000005
aF0.07325000000000005
aF1.4885178964191563
aF-0.3490658503988659
aF0.3850000000000002
aF0.4632500000000004
aF1.5707963267948966
aF0.08568205635202833
aF0.1625
aF0.06876467778882131
aF0.1625
aa(lp13
F-0.3490658503988659
aF0.8312500000000005
aF1.5707963267948966
aF1.5707963267948966
aF-0.3490658503988659
aF0.6137500000000004
aF1.5707963267948966
aF1.4255849790177821
aF-0.3490658503988659
aF0.5337500000000003
aF1.5183114428074147
aF0.05337500000000004
aF0.06264633533442128
aF1.2217304763960306
aF-0.1998487755982985
aF1.5707963267948966
aa(lp14
F0.3490658503988659
aF1.5457932177413336
aF0.41241449862004415
aF0.33400000000000024
aF-0.3490658503988659
aF0.9150000000000006
aF1.5707963267948966
aF0.09150000000000007
aF-0.3490658503988659
aF1.1600000000000006
aF1.5707963267948966
aF0.11600000000000009
aF-0.42237356739976695
aF1.2217304763960306
aF0.5235987755982988
aF0.05500000000000001
aa(lp15
F-0.3490658503988659
aF0.5575000000000003
aF1.5707963267948966
aF1.5707963267948966
aF-0.3490658503988659
aF1.4179506533821482
aF0.47943070609271776
aF1.5707963267948966
aF-0.3490658503988659
aF1.327500000000001
aF0.4977500000000004
aF1.5707963267948966
aF0.10661008025289906
aF1.2217304763960306
aF-0.46609877559829876
aF1.5707963267948966
aa(lp16
F-0.3490658503988659
aF0.6650000000000004
aF1.5707963267948966
aF1.5707963267948966
aF-0.3490658503988659
aF1.4516564781650785
aF0.3229553262908667
aF1.5707963267948966
aF-0.3490658503988659
aF1.1450000000000007
aF0.4975000000000004
aF1.5707963267948966
aF0.1613632241102881
aF1.2217304763960306
aF-0.11859877559829847
aF1.5707963267948966
aa.