(lp0
(lp1
F-0.3490658503988659
aF0.45875000000000027
aF0.045875000000000034
aF1.5707963267948966
aF-0.3490658503988659
aF0.07875000000000001
aF1.5707963267948966
aF0.007875
aF-0.3490658503988659
aF0.07125000000000001
aF1.5707963267948966
aF0.007125
aF0.6942457808146579
aF0.8193677246148638
aF-0.43609877559829874
aF0.08750000000000001
aa(lp2
F-0.3490658503988659
aF1.0425000000000004
aF1.5707963267948966
aF1.5707963267948966
aF-0.3490658503988659
aF1.499523497393214
aF0.17125000000000012
aF0.47824472806276624
aF-0.3143257277669188
aF1.515679989831343
aF0.025500000000000016
aF1.5707963267948966
aF-0.41545673008943584
aF1.2217304763960306
aF0.5235987755982988
aF1.5417942190712848
aa(lp3
F-0.3490658503988659
aF0.8856250000000006
aF0.4489994306448148
aF0.08856250000000007
aF-0.3490658503988659
aF0.43437500000000023
aF1.5707963267948966
aF0.04343750000000003
aF-0.3490658503988659
aF0.8543750000000006
aF0.08543750000000007
aF1.5707963267948966
aF-0.05261257951034736
aF1.2217304763960306
aF0.4228826541777324
aF0.21437500000000004
aa(lp4
F-0.3490658503988659
aF1.236250000000001
aF0.1236250000000001
aF1.5707963267948966
aF-0.3490658503988659
aF1.338750000000001
aF0.6692613526585349
aF0.1338750000000001
aF0.12775573869132106
aF1.5707963267948966
aF0.18887500000000015
aF0.18887500000000015
aF-0.4405768293129037
aF1.2217304763960306
aF0.5235987755982988
aF0.6961376376276555
aa(lp5
F-0.3490658503988659
aF0.25750000000000006
aF1.5707963267948966
aF0.9997818700776755
aF-0.3490658503988659
aF1.1100000000000008
aF0.11100000000000007
aF0.11100000000000007
aF-0.3490658503988659
aF0.533255013377322
aF1.3055401921239351
aF0.00625
aF0.1933633326624209
aF1.2157511111769885
aF-0.20234877559829859
aF0.32125000000000015
aa(lp6
F-0.3490658503988659
aF1.3036796996879227
aF0.014125000000000006
aF0.014125000000000006
aF-0.3490658503988659
aF0.49636353449199133
aF1.5707963267948966
aF0.8009779649052536
aF-0.3490658503988659
aF1.1250000000000009
aF0.11250000000000007
aF1.5707963267948966
aF-0.7142854355297384
aF1.2217304763960306
aF0.5235987755982988
aF1.436500259028507
aa(lp7
F-0.3490658503988659
aF0.2825000000000001
aF0.4973750000000004
aF0.4973750000000004
aF-0.3490658503988659
aF0.35250000000000015
aF1.2139291805938193
aF0.31837500000000024
aF-0.3490658503988659
aF0.20750000000000005
aF1.5707963267948966
aF0.02075000000000001
aF-0.09344755119659678
aF0.9537500000000007
aF0.4301512244017017
aF0.9537500000000007
aa(lp8
F-0.3490658503988659
aF0.6268886351323751
aF0.036062500000000025
aF1.5707963267948966
aF-0.3490658503988659
aF0.44562500000000027
aF1.5707963267948966
aF0.04456250000000003
aF-0.3490658503988659
aF0.8881250000000007
aF1.5707963267948966
aF0.08881250000000007
aF0.8473058698915018
aF1.2217304763960306
aF-0.45297377559829877
aF0.07062500000000001
aa(lp9
F-0.3490658503988659
aF0.48375000000000024
aF0.048375000000000036
aF1.5230984044003915
aF-0.3490658503988659
aF0.5450000000000003
aF0.05450000000000004
aF1.5707963267948966
aF-0.3490658503988659
aF0.2700000000000001
aF1.195572911789548
aF0.027000000000000017
aF0.5600203069793398
aF1.1722310201306458
aF-0.2635987755982986
aF0.26000000000000006
aa(lp10
F-0.3490658503988659
aF0.17625000000000005
aF1.5707963267948966
aF0.01762500000000001
aF-0.3490658503988659
aF1.168750000000001
aF0.11687500000000009
aF0.11687500000000009
aF-0.3490658503988659
aF0.8862500000000006
aF1.5707963267948966
aF0.08862500000000006
aF0.8456706420884609
aF1.2217304763960306
aF-0.4448487755982988
aF0.07875000000000001
aa(lp11
F-0.3490658503988659
aF1.0537500000000006
aF0.5306220422013382
aF1.5707963267948966
aF-0.3490658503988659
aF1.0237500000000006
aF1.5707963267948966
aF1.5707963267948966
aF-0.3490658503988659
aF1.0647636029821164
aF0.01775000000000001
aF1.5707963267948966
aF-0.41744787419631935
aF1.2217304763960306
aF0.5235987755982988
aF0.3137500000000001
aa(lp12
F-0.3490658503988659
aF0.7281250000000006
aF0.5532347792563246
aF0.7358462545636251
aF-0.3490658503988659
aF0.5062500000000003
aF1.5707963267948966
aF0.05062500000000004
aF-0.3490658503988659
aF1.0693750000000009
aF0.10693750000000009
aF0.8662296699943624
aF-0.14175380683083996
aF1.2217304763960306
aF0.5235987755982988
aF0.10374999999999998
aa(lp13
F-0.3490658503988659
aF0.09999999999999999
aF0.4971875000000004
aF1.5707963267948966
aF-0.3490658503988659
aF0.18500000000000003
aF0.4971875000000004
aF0.4971875000000004
aF-0.3490658503988659
aF0.13999999999999999
aF0.8531778240800335
aF1.5707963267948966
aF-0.05078273990215515
aF0.9918750000000007
aF0.4682762244017018
aF1.0282634429236994
aa(lp14
F-0.3490658503988659
aF0.11540577768061791
aF1.5707963267948966
aF0.006062500000000001
aF-0.3490658503988659
aF0.7793750000000006
aF0.07793750000000006
aF1.5707963267948966
aF-0.3490658503988659
aF0.5381250000000004
aF1.5707963267948966
aF0.05381250000000004
aF0.7485604673338502
aF1.2217304763960306
aF-0.5004737755982988
aF0.023125
aa(lp15
F0.09773287941648101
aF0.9025000000000006
aF0.576019024989758
aF1.5707963267948966
aF-0.3490658503988659
aF1.3882667686738903
aF0.027750000000000018
aF1.5707963267948966
aF-0.3490658503988659
aF0.6425000000000004
aF1.5707963267948966
aF0.4732500000000004
aF1.0471975511965976
aF0.45250000000000024
aF-0.0710987755982985
aF0.6425000000000004
aa(lp16
F-0.3490658503988659
aF0.414192607836115
aF1.0137036981895797
aF0.0035000000000000005
aF-0.3490658503988659
aF0.869617729630819
aF0.3755922591158317
aF0.06137500000000005
aF-0.3490658503988659
aF0.6175000000000004
aF0.8852579752656051
aF0.06175000000000005
aF0.5701624532038057
aF0.9573332554662259
aF-0.34484877559829863
aF0.17875000000000002
aa(lp17
F0.2858440801630398
aF0.36250000000000016
aF1.5707963267948966
aF0.036250000000000025
aF-0.3490658503988659
aF1.0500000000000007
aF0.6664357078054013
aF0.10500000000000008
aF-0.3490658503988659
aF1.3362600589666769
aF0.08500000000000006
aF0.2238772671712278
aF-0.2606875250181831
aF1.2217304763960306
aF0.5235987755982988
aF0.20750000000000005
aa(lp18
F-0.1310938279072604
aF1.1226555463305568
aF0.4977500000000004
aF1.5707963267948966
aF-0.3490658503988659
aF0.7750000000000005
aF1.5707963267948966
aF1.3927946653620653
aF-0.3490658503988659
aF1.2075000000000007
aF1.5707963267948966
aF0.2864683417347154
aF-0.20219755119659688
aF1.2217304763960306
aF0.5235987755982988
aF1.5707963267948966
aa(lp19
F-0.14610277705613695
aF0.2812500000000001
aF0.028125000000000018
aF1.5707963267948966
aF-0.3490658503988659
aF0.6900000000000005
aF0.24807648292353235
aF0.06900000000000005
aF-0.3490658503988659
aF1.287500000000001
aF1.5707963267948966
aF1.5707963267948966
aF1.0471975511965976
aF1.2217304763960306
aF-0.47984877559829875
aF0.043750000000000004
aa(lp20
F-0.3490658503988659
aF0.8337500000000005
aF0.41025000000000034
aF0.41025000000000034
aF-0.3490658503988659
aF1.287491808506444
aF0.0011250000000000001
aF0.0011250000000000001
aF-0.3490658503988659
aF1.332500000000001
aF0.1332500000000001
aF0.1332500000000001
aF0.2714367785220636
aF1.2217304763960306
aF0.37306176671961533
aF0.02875
aa(lp21
F-0.3490658503988659
aF1.5475000000000012
aF1.5707963267948966
aF0.6549155587005012
aF-0.3490658503988659
aF0.7775000000000005
aF1.5707963267948966
aF1.5707963267948966
aF-0.3490658503988659
aF0.7894543318904625
aF0.012750000000000004
aF1.5707963267948966
aF-0.20175159378369584
aF1.2217304763960306
aF0.5235987755982988
aF0.03125
aa(lp22
F-0.3490658503988659
aF0.8700000000000006
aF1.5707963267948966
aF0.08700000000000006
aF-0.3490658503988659
aF1.0500000000000007
aF1.5707963267948966
aF0.16041082242842342
aF-0.3490658503988659
aF0.8400000000000005
aF1.5707963267948966
aF1.5707963267948966
aF-0.19637334725079464
aF1.2217304763960306
aF0.5235987755982988
aF1.5707963267948966
aa(lp23
F0.0927570552376773
aF0.22500000000000006
aF1.4369454433931765
aF0.022500000000000013
aF-0.3490658503988659
aF0.6125000000000004
aF1.5707963267948966
aF1.06875385918426
aF-0.3490658503988659
aF0.34750000000000014
aF1.5707963267948966
aF0.034750000000000024
aF-0.1018253000417413
aF1.2217304763960306
aF0.5235987755982988
aF0.03
aa(lp24
F-0.3490658503988659
aF0.3475000000000002
aF0.4995000000000004
aF0.4995000000000004
aF-0.3490658503988659
aF0.8901244874752293
aF0.010250000000000002
aF0.3397752041449235
aF-0.3490658503988659
aF1.0050000000000008
aF0.10050000000000008
aF0.509776563974968
aF0.3636156594452613
aF1.2217304763960306
aF0.5235987755982988
aF0.08750000000000001
aa(lp25
F-0.3490658503988659
aF1.1756250000000008
aF0.1175625000000001
aF0.1175625000000001
aF-0.3490658503988659
aF1.2193750000000008
aF0.1219375000000001
aF0.1219375000000001
aF-0.3490658503988659
aF0.48761905556180707
aF1.5707963267948966
aF0.021750000000000012
aF-0.3199478983877573
aF1.2217304763960306
aF-0.2879737755982986
aF1.5707963267948966
aa(lp26
F-0.015913055689470396
aF1.547500000000001
aF0.6877945390085859
aF0.6715836093147555
aF-0.3490658503988659
aF1.341416986209339
aF1.5707963267948966
aF1.5707963267948966
aF-0.3490658503988659
aF1.5707963267948966
aF0.4546094768050825
aF1.5707963267948966
aF-0.6321975511965973
aF0.4150000000000002
aF0.5235987755982988
aF1.5707963267948966
aa(lp27
F-0.3490658503988659
aF0.8950000000000007
aF1.5707963267948966
aF0.08950000000000007
aF-0.3490658503988659
aF0.9550000000000007
aF1.5707963267948966
aF0.09550000000000007
aF-0.3490658503988659
aF1.5707963267948966
aF0.2675000000000002
aF0.2675000000000002
aF-0.2959418244318232
aF1.2217304763960306
aF-0.4573487755982988
aF1.506070573198853
aa(lp28
F-0.03899367602453771
aF0.9629857525141596
aF0.09525000000000007
aF0.28825000000000023
aF-0.3490658503988659
aF1.494022195571947
aF1.5707963267948966
aF1.5707963267948966
aF-0.3490658503988659
aF1.360891763524622
aF0.02900000000000002
aF0.02900000000000002
aF0.22109926596330196
aF1.2217304763960306
aF0.5235987755982988
aF0.3825000000000002
aa(lp29
F-0.3490658503988659
aF0.19250000000000003
aF1.0683316222627823
aF0.24000000000000019
aF-0.3490658503988659
aF0.2825000000000001
aF0.4970000000000004
aF1.5707963267948966
aF-0.3490658503988659
aF0.25250000000000006
aF0.4970000000000004
aF1.5707963267948966
aF0.09280244880340309
aF1.1400000000000006
aF0.5235987755982988
aF1.1400000000000006
aa.